
.//main.elf:     file format elf32-sparc


Disassembly of section .text:

00000000 <_start>:
       0:	1d 3f fc 07 	sethi  %hi(0xfff01c00), %sp
       4:	9c 13 a3 f8 	or  %sp, 0x3f8, %sp	! fff01ff8 <upper_digits+0xffec1f64>
       8:	3d 3f fc 07 	sethi  %hi(0xfff01c00), %fp
       c:	bc 17 a3 00 	or  %fp, 0x300, %fp	! fff01f00 <upper_digits+0xffec1e6c>
      10:	a0 10 20 01 	mov  1, %l0
      14:	81 94 20 00 	mov  %l0, %wim
      18:	21 00 00 0c 	sethi  %hi(0x3000), %l0
      1c:	a0 14 20 00 	mov  %l0, %l0	! 3000 <trap_table_base>
      20:	81 9c 20 00 	mov  %l0, %tbr
      24:	40 00 00 f7 	call  400 <page_table_setup>
      28:	01 00 00 00 	nop 
      2c:	40 00 01 1a 	call  494 <set_context_table_pointer>
      30:	01 00 00 00 	nop 
      34:	21 00 00 04 	sethi  %hi(0x1000), %l0
      38:	a0 14 20 e7 	or  %l0, 0xe7, %l0	! 10e7 <PAGE_TABLE_BASE+0x8e7>
      3c:	81 88 00 10 	mov  %l0, %psr
      40:	90 10 20 01 	mov  1, %o0
      44:	d0 a0 01 40 	sta  %o0, [ %g0 ] (10)
      48:	40 00 1b 2f 	call  6d04 <generate_input_output>
      4c:	01 00 00 00 	nop 
      50:	40 00 1a ab 	call  6afc <main>
      54:	01 00 00 00 	nop 

00000058 <instr_section>:
	...

00000257 <results_section>:
	...
     353:	00 00 00 91 	unimp  0x91
     357:	d0 20 00 00 	st  %o0, [ %g0 ]
     35b:	00 01 00 00 	unimp  0x10000
	...

00000400 <page_table_setup>:
     400:	03 00 00 02 	sethi  %hi(0x800), %g1
     404:	82 10 60 00 	mov  %g1, %g1	! 800 <PAGE_TABLE_BASE>
     408:	88 10 24 00 	mov  0x400, %g4
     40c:	88 00 40 04 	add  %g1, %g4, %g4
     410:	89 31 20 04 	srl  %g4, 4, %g4
     414:	88 11 20 01 	or  %g4, 1, %g4
     418:	8a 10 28 00 	mov  0x800, %g5
     41c:	86 01 40 01 	add  %g5, %g1, %g3
     420:	c8 20 c0 00 	st  %g4, [ %g3 ]
     424:	88 10 20 00 	clr  %g4
     428:	88 00 40 04 	add  %g1, %g4, %g4
     42c:	89 31 20 04 	srl  %g4, 4, %g4
     430:	88 11 20 01 	or  %g4, 1, %g4
     434:	8a 10 24 00 	mov  0x400, %g5
     438:	86 01 40 01 	add  %g5, %g1, %g3
     43c:	c8 20 c0 00 	st  %g4, [ %g3 ]
     440:	84 10 20 8e 	mov  0x8e, %g2
     444:	8a 10 20 00 	clr  %g5
     448:	86 01 40 01 	add  %g5, %g1, %g3
     44c:	c4 20 c0 00 	st  %g2, [ %g3 ]
     450:	05 00 00 10 	sethi  %hi(0x4000), %g2
     454:	84 10 a0 8e 	or  %g2, 0x8e, %g2	! 408e <SW_trap_0xfe+0xae>
     458:	8a 10 20 04 	mov  4, %g5
     45c:	86 01 40 01 	add  %g5, %g1, %g3
     460:	c4 20 c0 00 	st  %g2, [ %g3 ]
     464:	05 00 00 20 	sethi  %hi(0x8000), %g2
     468:	84 10 a0 8e 	or  %g2, 0x8e, %g2	! 808e <__GI_memcpy+0xd1a>
     46c:	8a 10 20 08 	mov  8, %g5
     470:	86 01 40 01 	add  %g5, %g1, %g3
     474:	c4 20 c0 00 	st  %g2, [ %g3 ]
     478:	05 00 00 30 	sethi  %hi(0xc000), %g2
     47c:	84 10 a0 8e 	or  %g2, 0x8e, %g2	! c08e <__GI_memcpy+0x4d1a>
     480:	8a 10 20 0c 	mov  0xc, %g5
     484:	86 01 40 01 	add  %g5, %g1, %g3
     488:	c4 20 c0 00 	st  %g2, [ %g3 ]
     48c:	81 c3 e0 08 	retl 
     490:	01 00 00 00 	nop 

00000494 <set_context_table_pointer>:
     494:	03 00 00 02 	sethi  %hi(0x800), %g1
     498:	82 10 60 00 	mov  %g1, %g1	! 800 <PAGE_TABLE_BASE>
     49c:	8a 10 28 00 	mov  0x800, %g5
     4a0:	84 01 40 01 	add  %g5, %g1, %g2
     4a4:	85 30 a0 04 	srl  %g2, 4, %g2
     4a8:	84 10 a0 01 	or  %g2, 1, %g2
     4ac:	86 10 21 00 	mov  0x100, %g3
     4b0:	c4 a0 c0 80 	sta  %g2, [ %g3 ] #ASI_N
     4b4:	81 c3 e0 08 	retl 
     4b8:	01 00 00 00 	nop 
     4bc:	01 00 00 00 	nop 
     4c0:	01 00 00 00 	nop 
     4c4:	01 00 00 00 	nop 
     4c8:	01 00 00 00 	nop 
     4cc:	01 00 00 00 	nop 
     4d0:	01 00 00 00 	nop 
     4d4:	01 00 00 00 	nop 
     4d8:	01 00 00 00 	nop 
     4dc:	01 00 00 00 	nop 
     4e0:	01 00 00 00 	nop 
     4e4:	01 00 00 00 	nop 
     4e8:	01 00 00 00 	nop 
     4ec:	01 00 00 00 	nop 
     4f0:	01 00 00 00 	nop 
     4f4:	01 00 00 00 	nop 
     4f8:	01 00 00 00 	nop 
     4fc:	01 00 00 00 	nop 
     500:	01 00 00 00 	nop 
     504:	01 00 00 00 	nop 
     508:	01 00 00 00 	nop 
     50c:	01 00 00 00 	nop 
     510:	01 00 00 00 	nop 
     514:	01 00 00 00 	nop 
     518:	01 00 00 00 	nop 
     51c:	01 00 00 00 	nop 
     520:	01 00 00 00 	nop 
     524:	01 00 00 00 	nop 
     528:	01 00 00 00 	nop 
     52c:	01 00 00 00 	nop 
     530:	01 00 00 00 	nop 
     534:	01 00 00 00 	nop 
     538:	01 00 00 00 	nop 
     53c:	01 00 00 00 	nop 
     540:	01 00 00 00 	nop 
     544:	01 00 00 00 	nop 
     548:	01 00 00 00 	nop 
     54c:	01 00 00 00 	nop 
     550:	01 00 00 00 	nop 
     554:	01 00 00 00 	nop 
     558:	01 00 00 00 	nop 
     55c:	01 00 00 00 	nop 
     560:	01 00 00 00 	nop 
     564:	01 00 00 00 	nop 
     568:	01 00 00 00 	nop 
     56c:	01 00 00 00 	nop 
     570:	01 00 00 00 	nop 
     574:	01 00 00 00 	nop 
     578:	01 00 00 00 	nop 
     57c:	01 00 00 00 	nop 
     580:	01 00 00 00 	nop 
     584:	01 00 00 00 	nop 
     588:	01 00 00 00 	nop 
     58c:	01 00 00 00 	nop 
     590:	01 00 00 00 	nop 
     594:	01 00 00 00 	nop 
     598:	01 00 00 00 	nop 
     59c:	01 00 00 00 	nop 
     5a0:	01 00 00 00 	nop 
     5a4:	01 00 00 00 	nop 
     5a8:	01 00 00 00 	nop 
     5ac:	01 00 00 00 	nop 
     5b0:	01 00 00 00 	nop 
     5b4:	01 00 00 00 	nop 
     5b8:	01 00 00 00 	nop 
     5bc:	01 00 00 00 	nop 
     5c0:	01 00 00 00 	nop 
     5c4:	01 00 00 00 	nop 
     5c8:	01 00 00 00 	nop 
     5cc:	01 00 00 00 	nop 
     5d0:	01 00 00 00 	nop 
     5d4:	01 00 00 00 	nop 
     5d8:	01 00 00 00 	nop 
     5dc:	01 00 00 00 	nop 
     5e0:	01 00 00 00 	nop 
     5e4:	01 00 00 00 	nop 
     5e8:	01 00 00 00 	nop 
     5ec:	01 00 00 00 	nop 
     5f0:	01 00 00 00 	nop 
     5f4:	01 00 00 00 	nop 
     5f8:	01 00 00 00 	nop 
     5fc:	01 00 00 00 	nop 
     600:	01 00 00 00 	nop 
     604:	01 00 00 00 	nop 
     608:	01 00 00 00 	nop 
     60c:	01 00 00 00 	nop 
     610:	01 00 00 00 	nop 
     614:	01 00 00 00 	nop 
     618:	01 00 00 00 	nop 
     61c:	01 00 00 00 	nop 
     620:	01 00 00 00 	nop 
     624:	01 00 00 00 	nop 
     628:	01 00 00 00 	nop 
     62c:	01 00 00 00 	nop 
     630:	01 00 00 00 	nop 
     634:	01 00 00 00 	nop 
     638:	01 00 00 00 	nop 
     63c:	01 00 00 00 	nop 
     640:	01 00 00 00 	nop 
     644:	01 00 00 00 	nop 
     648:	01 00 00 00 	nop 
     64c:	01 00 00 00 	nop 
     650:	01 00 00 00 	nop 
     654:	01 00 00 00 	nop 
     658:	01 00 00 00 	nop 
     65c:	01 00 00 00 	nop 
     660:	01 00 00 00 	nop 
     664:	01 00 00 00 	nop 
     668:	01 00 00 00 	nop 
     66c:	01 00 00 00 	nop 
     670:	01 00 00 00 	nop 
     674:	01 00 00 00 	nop 
     678:	01 00 00 00 	nop 
     67c:	01 00 00 00 	nop 
     680:	01 00 00 00 	nop 
     684:	01 00 00 00 	nop 
     688:	01 00 00 00 	nop 
     68c:	01 00 00 00 	nop 
     690:	01 00 00 00 	nop 
     694:	01 00 00 00 	nop 
     698:	01 00 00 00 	nop 
     69c:	01 00 00 00 	nop 
     6a0:	01 00 00 00 	nop 
     6a4:	01 00 00 00 	nop 
     6a8:	01 00 00 00 	nop 
     6ac:	01 00 00 00 	nop 
     6b0:	01 00 00 00 	nop 
     6b4:	01 00 00 00 	nop 
     6b8:	01 00 00 00 	nop 
     6bc:	01 00 00 00 	nop 
     6c0:	01 00 00 00 	nop 
     6c4:	01 00 00 00 	nop 
     6c8:	01 00 00 00 	nop 
     6cc:	01 00 00 00 	nop 
     6d0:	01 00 00 00 	nop 
     6d4:	01 00 00 00 	nop 
     6d8:	01 00 00 00 	nop 
     6dc:	01 00 00 00 	nop 
     6e0:	01 00 00 00 	nop 
     6e4:	01 00 00 00 	nop 
     6e8:	01 00 00 00 	nop 
     6ec:	01 00 00 00 	nop 
     6f0:	01 00 00 00 	nop 
     6f4:	01 00 00 00 	nop 
     6f8:	01 00 00 00 	nop 
     6fc:	01 00 00 00 	nop 
     700:	01 00 00 00 	nop 
     704:	01 00 00 00 	nop 
     708:	01 00 00 00 	nop 
     70c:	01 00 00 00 	nop 
     710:	01 00 00 00 	nop 
     714:	01 00 00 00 	nop 
     718:	01 00 00 00 	nop 
     71c:	01 00 00 00 	nop 
     720:	01 00 00 00 	nop 
     724:	01 00 00 00 	nop 
     728:	01 00 00 00 	nop 
     72c:	01 00 00 00 	nop 
     730:	01 00 00 00 	nop 
     734:	01 00 00 00 	nop 
     738:	01 00 00 00 	nop 
     73c:	01 00 00 00 	nop 
     740:	01 00 00 00 	nop 
     744:	01 00 00 00 	nop 
     748:	01 00 00 00 	nop 
     74c:	01 00 00 00 	nop 
     750:	01 00 00 00 	nop 
     754:	01 00 00 00 	nop 
     758:	01 00 00 00 	nop 
     75c:	01 00 00 00 	nop 
     760:	01 00 00 00 	nop 
     764:	01 00 00 00 	nop 
     768:	01 00 00 00 	nop 
     76c:	01 00 00 00 	nop 
     770:	01 00 00 00 	nop 
     774:	01 00 00 00 	nop 
     778:	01 00 00 00 	nop 
     77c:	01 00 00 00 	nop 
     780:	01 00 00 00 	nop 
     784:	01 00 00 00 	nop 
     788:	01 00 00 00 	nop 
     78c:	01 00 00 00 	nop 
     790:	01 00 00 00 	nop 
     794:	01 00 00 00 	nop 
     798:	01 00 00 00 	nop 
     79c:	01 00 00 00 	nop 
     7a0:	01 00 00 00 	nop 
     7a4:	01 00 00 00 	nop 
     7a8:	01 00 00 00 	nop 
     7ac:	01 00 00 00 	nop 
     7b0:	01 00 00 00 	nop 
     7b4:	01 00 00 00 	nop 
     7b8:	01 00 00 00 	nop 
     7bc:	01 00 00 00 	nop 
     7c0:	01 00 00 00 	nop 
     7c4:	01 00 00 00 	nop 
     7c8:	01 00 00 00 	nop 
     7cc:	01 00 00 00 	nop 
     7d0:	01 00 00 00 	nop 
     7d4:	01 00 00 00 	nop 
     7d8:	01 00 00 00 	nop 
     7dc:	01 00 00 00 	nop 
     7e0:	01 00 00 00 	nop 
     7e4:	01 00 00 00 	nop 
     7e8:	01 00 00 00 	nop 
     7ec:	01 00 00 00 	nop 
     7f0:	01 00 00 00 	nop 
     7f4:	01 00 00 00 	nop 
     7f8:	01 00 00 00 	nop 
     7fc:	01 00 00 00 	nop 

00000800 <PAGE_TABLE_BASE>:
	...

00002000 <window_overflow_trap_handler>:
    2000:	a7 50 00 00 	rd  %wim, %l3
    2004:	a9 2c e0 07 	sll  %l3, 7, %l4
    2008:	a7 34 e0 01 	srl  %l3, 1, %l3
    200c:	a6 14 c0 14 	or  %l3, %l4, %l3
    2010:	a6 0c e0 ff 	and  %l3, 0xff, %l3
    2014:	81 90 00 00 	mov  %g0, %wim
    2018:	01 00 00 00 	nop 
    201c:	01 00 00 00 	nop 
    2020:	01 00 00 00 	nop 
    2024:	81 e0 00 00 	save 
    2028:	e0 3b a0 00 	std  %l0, [ %sp ]
    202c:	e4 3b a0 08 	std  %l2, [ %sp + 8 ]
    2030:	e8 3b a0 10 	std  %l4, [ %sp + 0x10 ]
    2034:	ec 3b a0 18 	std  %l6, [ %sp + 0x18 ]
    2038:	f0 3b a0 20 	std  %i0, [ %sp + 0x20 ]
    203c:	f4 3b a0 28 	std  %i2, [ %sp + 0x28 ]
    2040:	f8 3b a0 30 	std  %i4, [ %sp + 0x30 ]
    2044:	fc 3b a0 38 	std  %fp, [ %sp + 0x38 ]
    2048:	81 e8 00 00 	restore 
    204c:	81 90 00 13 	mov  %l3, %wim
    2050:	01 00 00 00 	nop 
    2054:	01 00 00 00 	nop 
    2058:	01 00 00 00 	nop 
    205c:	81 c4 40 00 	jmp  %l1
    2060:	81 cc 80 00 	rett  %l2

00002064 <window_underflow_trap_handler>:
    2064:	a7 50 00 00 	rd  %wim, %l3
    2068:	a9 34 e0 07 	srl  %l3, 7, %l4
    206c:	a7 2c e0 01 	sll  %l3, 1, %l3
    2070:	a6 14 c0 14 	or  %l3, %l4, %l3
    2074:	a6 0c e0 ff 	and  %l3, 0xff, %l3
    2078:	81 90 00 00 	mov  %g0, %wim
    207c:	01 00 00 00 	nop 
    2080:	01 00 00 00 	nop 
    2084:	01 00 00 00 	nop 
    2088:	81 e8 00 00 	restore 
    208c:	81 e8 00 00 	restore 
    2090:	e0 1b a0 00 	ldd  [ %sp ], %l0
    2094:	e4 1b a0 08 	ldd  [ %sp + 8 ], %l2
    2098:	e8 1b a0 10 	ldd  [ %sp + 0x10 ], %l4
    209c:	ec 1b a0 18 	ldd  [ %sp + 0x18 ], %l6
    20a0:	f0 1b a0 20 	ldd  [ %sp + 0x20 ], %i0
    20a4:	f4 1b a0 28 	ldd  [ %sp + 0x28 ], %i2
    20a8:	f8 1b a0 30 	ldd  [ %sp + 0x30 ], %i4
    20ac:	fc 1b a0 38 	ldd  [ %sp + 0x38 ], %fp
    20b0:	81 e0 00 00 	save 
    20b4:	81 e0 00 00 	save 
    20b8:	81 90 00 13 	mov  %l3, %wim
    20bc:	01 00 00 00 	nop 
    20c0:	01 00 00 00 	nop 
    20c4:	01 00 00 00 	nop 
    20c8:	81 c4 40 00 	jmp  %l1
    20cc:	81 cc 80 00 	rett  %l2
    20d0:	01 00 00 00 	nop 
    20d4:	01 00 00 00 	nop 
    20d8:	01 00 00 00 	nop 
    20dc:	01 00 00 00 	nop 
    20e0:	01 00 00 00 	nop 
    20e4:	01 00 00 00 	nop 
    20e8:	01 00 00 00 	nop 
    20ec:	01 00 00 00 	nop 
    20f0:	01 00 00 00 	nop 
    20f4:	01 00 00 00 	nop 
    20f8:	01 00 00 00 	nop 
    20fc:	01 00 00 00 	nop 
    2100:	01 00 00 00 	nop 
    2104:	01 00 00 00 	nop 
    2108:	01 00 00 00 	nop 
    210c:	01 00 00 00 	nop 
    2110:	01 00 00 00 	nop 
    2114:	01 00 00 00 	nop 
    2118:	01 00 00 00 	nop 
    211c:	01 00 00 00 	nop 
    2120:	01 00 00 00 	nop 
    2124:	01 00 00 00 	nop 
    2128:	01 00 00 00 	nop 
    212c:	01 00 00 00 	nop 
    2130:	01 00 00 00 	nop 
    2134:	01 00 00 00 	nop 
    2138:	01 00 00 00 	nop 
    213c:	01 00 00 00 	nop 
    2140:	01 00 00 00 	nop 
    2144:	01 00 00 00 	nop 
    2148:	01 00 00 00 	nop 
    214c:	01 00 00 00 	nop 
    2150:	01 00 00 00 	nop 
    2154:	01 00 00 00 	nop 
    2158:	01 00 00 00 	nop 
    215c:	01 00 00 00 	nop 
    2160:	01 00 00 00 	nop 
    2164:	01 00 00 00 	nop 
    2168:	01 00 00 00 	nop 
    216c:	01 00 00 00 	nop 
    2170:	01 00 00 00 	nop 
    2174:	01 00 00 00 	nop 
    2178:	01 00 00 00 	nop 
    217c:	01 00 00 00 	nop 
    2180:	01 00 00 00 	nop 
    2184:	01 00 00 00 	nop 
    2188:	01 00 00 00 	nop 
    218c:	01 00 00 00 	nop 
    2190:	01 00 00 00 	nop 
    2194:	01 00 00 00 	nop 
    2198:	01 00 00 00 	nop 
    219c:	01 00 00 00 	nop 
    21a0:	01 00 00 00 	nop 
    21a4:	01 00 00 00 	nop 
    21a8:	01 00 00 00 	nop 
    21ac:	01 00 00 00 	nop 
    21b0:	01 00 00 00 	nop 
    21b4:	01 00 00 00 	nop 
    21b8:	01 00 00 00 	nop 
    21bc:	01 00 00 00 	nop 
    21c0:	01 00 00 00 	nop 
    21c4:	01 00 00 00 	nop 
    21c8:	01 00 00 00 	nop 
    21cc:	01 00 00 00 	nop 
    21d0:	01 00 00 00 	nop 
    21d4:	01 00 00 00 	nop 
    21d8:	01 00 00 00 	nop 
    21dc:	01 00 00 00 	nop 
    21e0:	01 00 00 00 	nop 
    21e4:	01 00 00 00 	nop 
    21e8:	01 00 00 00 	nop 
    21ec:	01 00 00 00 	nop 
    21f0:	01 00 00 00 	nop 
    21f4:	01 00 00 00 	nop 
    21f8:	01 00 00 00 	nop 
    21fc:	01 00 00 00 	nop 
    2200:	01 00 00 00 	nop 
    2204:	01 00 00 00 	nop 
    2208:	01 00 00 00 	nop 
    220c:	01 00 00 00 	nop 
    2210:	01 00 00 00 	nop 
    2214:	01 00 00 00 	nop 
    2218:	01 00 00 00 	nop 
    221c:	01 00 00 00 	nop 
    2220:	01 00 00 00 	nop 
    2224:	01 00 00 00 	nop 
    2228:	01 00 00 00 	nop 
    222c:	01 00 00 00 	nop 
    2230:	01 00 00 00 	nop 
    2234:	01 00 00 00 	nop 
    2238:	01 00 00 00 	nop 
    223c:	01 00 00 00 	nop 
    2240:	01 00 00 00 	nop 
    2244:	01 00 00 00 	nop 
    2248:	01 00 00 00 	nop 
    224c:	01 00 00 00 	nop 
    2250:	01 00 00 00 	nop 
    2254:	01 00 00 00 	nop 
    2258:	01 00 00 00 	nop 
    225c:	01 00 00 00 	nop 
    2260:	01 00 00 00 	nop 
    2264:	01 00 00 00 	nop 
    2268:	01 00 00 00 	nop 
    226c:	01 00 00 00 	nop 
    2270:	01 00 00 00 	nop 
    2274:	01 00 00 00 	nop 
    2278:	01 00 00 00 	nop 
    227c:	01 00 00 00 	nop 
    2280:	01 00 00 00 	nop 
    2284:	01 00 00 00 	nop 
    2288:	01 00 00 00 	nop 
    228c:	01 00 00 00 	nop 
    2290:	01 00 00 00 	nop 
    2294:	01 00 00 00 	nop 
    2298:	01 00 00 00 	nop 
    229c:	01 00 00 00 	nop 
    22a0:	01 00 00 00 	nop 
    22a4:	01 00 00 00 	nop 
    22a8:	01 00 00 00 	nop 
    22ac:	01 00 00 00 	nop 
    22b0:	01 00 00 00 	nop 
    22b4:	01 00 00 00 	nop 
    22b8:	01 00 00 00 	nop 
    22bc:	01 00 00 00 	nop 
    22c0:	01 00 00 00 	nop 
    22c4:	01 00 00 00 	nop 
    22c8:	01 00 00 00 	nop 
    22cc:	01 00 00 00 	nop 
    22d0:	01 00 00 00 	nop 
    22d4:	01 00 00 00 	nop 
    22d8:	01 00 00 00 	nop 
    22dc:	01 00 00 00 	nop 
    22e0:	01 00 00 00 	nop 
    22e4:	01 00 00 00 	nop 
    22e8:	01 00 00 00 	nop 
    22ec:	01 00 00 00 	nop 
    22f0:	01 00 00 00 	nop 
    22f4:	01 00 00 00 	nop 
    22f8:	01 00 00 00 	nop 
    22fc:	01 00 00 00 	nop 
    2300:	01 00 00 00 	nop 
    2304:	01 00 00 00 	nop 
    2308:	01 00 00 00 	nop 
    230c:	01 00 00 00 	nop 
    2310:	01 00 00 00 	nop 
    2314:	01 00 00 00 	nop 
    2318:	01 00 00 00 	nop 
    231c:	01 00 00 00 	nop 
    2320:	01 00 00 00 	nop 
    2324:	01 00 00 00 	nop 
    2328:	01 00 00 00 	nop 
    232c:	01 00 00 00 	nop 
    2330:	01 00 00 00 	nop 
    2334:	01 00 00 00 	nop 
    2338:	01 00 00 00 	nop 
    233c:	01 00 00 00 	nop 
    2340:	01 00 00 00 	nop 
    2344:	01 00 00 00 	nop 
    2348:	01 00 00 00 	nop 
    234c:	01 00 00 00 	nop 
    2350:	01 00 00 00 	nop 
    2354:	01 00 00 00 	nop 
    2358:	01 00 00 00 	nop 
    235c:	01 00 00 00 	nop 
    2360:	01 00 00 00 	nop 
    2364:	01 00 00 00 	nop 
    2368:	01 00 00 00 	nop 
    236c:	01 00 00 00 	nop 
    2370:	01 00 00 00 	nop 
    2374:	01 00 00 00 	nop 
    2378:	01 00 00 00 	nop 
    237c:	01 00 00 00 	nop 
    2380:	01 00 00 00 	nop 
    2384:	01 00 00 00 	nop 
    2388:	01 00 00 00 	nop 
    238c:	01 00 00 00 	nop 
    2390:	01 00 00 00 	nop 
    2394:	01 00 00 00 	nop 
    2398:	01 00 00 00 	nop 
    239c:	01 00 00 00 	nop 
    23a0:	01 00 00 00 	nop 
    23a4:	01 00 00 00 	nop 
    23a8:	01 00 00 00 	nop 
    23ac:	01 00 00 00 	nop 
    23b0:	01 00 00 00 	nop 
    23b4:	01 00 00 00 	nop 
    23b8:	01 00 00 00 	nop 
    23bc:	01 00 00 00 	nop 
    23c0:	01 00 00 00 	nop 
    23c4:	01 00 00 00 	nop 
    23c8:	01 00 00 00 	nop 
    23cc:	01 00 00 00 	nop 
    23d0:	01 00 00 00 	nop 
    23d4:	01 00 00 00 	nop 
    23d8:	01 00 00 00 	nop 
    23dc:	01 00 00 00 	nop 
    23e0:	01 00 00 00 	nop 
    23e4:	01 00 00 00 	nop 
    23e8:	01 00 00 00 	nop 
    23ec:	01 00 00 00 	nop 
    23f0:	01 00 00 00 	nop 
    23f4:	01 00 00 00 	nop 
    23f8:	01 00 00 00 	nop 
    23fc:	01 00 00 00 	nop 
    2400:	01 00 00 00 	nop 
    2404:	01 00 00 00 	nop 
    2408:	01 00 00 00 	nop 
    240c:	01 00 00 00 	nop 
    2410:	01 00 00 00 	nop 
    2414:	01 00 00 00 	nop 
    2418:	01 00 00 00 	nop 
    241c:	01 00 00 00 	nop 
    2420:	01 00 00 00 	nop 
    2424:	01 00 00 00 	nop 
    2428:	01 00 00 00 	nop 
    242c:	01 00 00 00 	nop 
    2430:	01 00 00 00 	nop 
    2434:	01 00 00 00 	nop 
    2438:	01 00 00 00 	nop 
    243c:	01 00 00 00 	nop 
    2440:	01 00 00 00 	nop 
    2444:	01 00 00 00 	nop 
    2448:	01 00 00 00 	nop 
    244c:	01 00 00 00 	nop 
    2450:	01 00 00 00 	nop 
    2454:	01 00 00 00 	nop 
    2458:	01 00 00 00 	nop 
    245c:	01 00 00 00 	nop 
    2460:	01 00 00 00 	nop 
    2464:	01 00 00 00 	nop 
    2468:	01 00 00 00 	nop 
    246c:	01 00 00 00 	nop 
    2470:	01 00 00 00 	nop 
    2474:	01 00 00 00 	nop 
    2478:	01 00 00 00 	nop 
    247c:	01 00 00 00 	nop 
    2480:	01 00 00 00 	nop 
    2484:	01 00 00 00 	nop 
    2488:	01 00 00 00 	nop 
    248c:	01 00 00 00 	nop 
    2490:	01 00 00 00 	nop 
    2494:	01 00 00 00 	nop 
    2498:	01 00 00 00 	nop 
    249c:	01 00 00 00 	nop 
    24a0:	01 00 00 00 	nop 
    24a4:	01 00 00 00 	nop 
    24a8:	01 00 00 00 	nop 
    24ac:	01 00 00 00 	nop 
    24b0:	01 00 00 00 	nop 
    24b4:	01 00 00 00 	nop 
    24b8:	01 00 00 00 	nop 
    24bc:	01 00 00 00 	nop 
    24c0:	01 00 00 00 	nop 
    24c4:	01 00 00 00 	nop 
    24c8:	01 00 00 00 	nop 
    24cc:	01 00 00 00 	nop 
    24d0:	01 00 00 00 	nop 
    24d4:	01 00 00 00 	nop 
    24d8:	01 00 00 00 	nop 
    24dc:	01 00 00 00 	nop 
    24e0:	01 00 00 00 	nop 
    24e4:	01 00 00 00 	nop 
    24e8:	01 00 00 00 	nop 
    24ec:	01 00 00 00 	nop 
    24f0:	01 00 00 00 	nop 
    24f4:	01 00 00 00 	nop 
    24f8:	01 00 00 00 	nop 
    24fc:	01 00 00 00 	nop 
    2500:	01 00 00 00 	nop 
    2504:	01 00 00 00 	nop 
    2508:	01 00 00 00 	nop 
    250c:	01 00 00 00 	nop 
    2510:	01 00 00 00 	nop 
    2514:	01 00 00 00 	nop 
    2518:	01 00 00 00 	nop 
    251c:	01 00 00 00 	nop 
    2520:	01 00 00 00 	nop 
    2524:	01 00 00 00 	nop 
    2528:	01 00 00 00 	nop 
    252c:	01 00 00 00 	nop 
    2530:	01 00 00 00 	nop 
    2534:	01 00 00 00 	nop 
    2538:	01 00 00 00 	nop 
    253c:	01 00 00 00 	nop 
    2540:	01 00 00 00 	nop 
    2544:	01 00 00 00 	nop 
    2548:	01 00 00 00 	nop 
    254c:	01 00 00 00 	nop 
    2550:	01 00 00 00 	nop 
    2554:	01 00 00 00 	nop 
    2558:	01 00 00 00 	nop 
    255c:	01 00 00 00 	nop 
    2560:	01 00 00 00 	nop 
    2564:	01 00 00 00 	nop 
    2568:	01 00 00 00 	nop 
    256c:	01 00 00 00 	nop 
    2570:	01 00 00 00 	nop 
    2574:	01 00 00 00 	nop 
    2578:	01 00 00 00 	nop 
    257c:	01 00 00 00 	nop 
    2580:	01 00 00 00 	nop 
    2584:	01 00 00 00 	nop 
    2588:	01 00 00 00 	nop 
    258c:	01 00 00 00 	nop 
    2590:	01 00 00 00 	nop 
    2594:	01 00 00 00 	nop 
    2598:	01 00 00 00 	nop 
    259c:	01 00 00 00 	nop 
    25a0:	01 00 00 00 	nop 
    25a4:	01 00 00 00 	nop 
    25a8:	01 00 00 00 	nop 
    25ac:	01 00 00 00 	nop 
    25b0:	01 00 00 00 	nop 
    25b4:	01 00 00 00 	nop 
    25b8:	01 00 00 00 	nop 
    25bc:	01 00 00 00 	nop 
    25c0:	01 00 00 00 	nop 
    25c4:	01 00 00 00 	nop 
    25c8:	01 00 00 00 	nop 
    25cc:	01 00 00 00 	nop 
    25d0:	01 00 00 00 	nop 
    25d4:	01 00 00 00 	nop 
    25d8:	01 00 00 00 	nop 
    25dc:	01 00 00 00 	nop 
    25e0:	01 00 00 00 	nop 
    25e4:	01 00 00 00 	nop 
    25e8:	01 00 00 00 	nop 
    25ec:	01 00 00 00 	nop 
    25f0:	01 00 00 00 	nop 
    25f4:	01 00 00 00 	nop 
    25f8:	01 00 00 00 	nop 
    25fc:	01 00 00 00 	nop 
    2600:	01 00 00 00 	nop 
    2604:	01 00 00 00 	nop 
    2608:	01 00 00 00 	nop 
    260c:	01 00 00 00 	nop 
    2610:	01 00 00 00 	nop 
    2614:	01 00 00 00 	nop 
    2618:	01 00 00 00 	nop 
    261c:	01 00 00 00 	nop 
    2620:	01 00 00 00 	nop 
    2624:	01 00 00 00 	nop 
    2628:	01 00 00 00 	nop 
    262c:	01 00 00 00 	nop 
    2630:	01 00 00 00 	nop 
    2634:	01 00 00 00 	nop 
    2638:	01 00 00 00 	nop 
    263c:	01 00 00 00 	nop 
    2640:	01 00 00 00 	nop 
    2644:	01 00 00 00 	nop 
    2648:	01 00 00 00 	nop 
    264c:	01 00 00 00 	nop 
    2650:	01 00 00 00 	nop 
    2654:	01 00 00 00 	nop 
    2658:	01 00 00 00 	nop 
    265c:	01 00 00 00 	nop 
    2660:	01 00 00 00 	nop 
    2664:	01 00 00 00 	nop 
    2668:	01 00 00 00 	nop 
    266c:	01 00 00 00 	nop 
    2670:	01 00 00 00 	nop 
    2674:	01 00 00 00 	nop 
    2678:	01 00 00 00 	nop 
    267c:	01 00 00 00 	nop 
    2680:	01 00 00 00 	nop 
    2684:	01 00 00 00 	nop 
    2688:	01 00 00 00 	nop 
    268c:	01 00 00 00 	nop 
    2690:	01 00 00 00 	nop 
    2694:	01 00 00 00 	nop 
    2698:	01 00 00 00 	nop 
    269c:	01 00 00 00 	nop 
    26a0:	01 00 00 00 	nop 
    26a4:	01 00 00 00 	nop 
    26a8:	01 00 00 00 	nop 
    26ac:	01 00 00 00 	nop 
    26b0:	01 00 00 00 	nop 
    26b4:	01 00 00 00 	nop 
    26b8:	01 00 00 00 	nop 
    26bc:	01 00 00 00 	nop 
    26c0:	01 00 00 00 	nop 
    26c4:	01 00 00 00 	nop 
    26c8:	01 00 00 00 	nop 
    26cc:	01 00 00 00 	nop 
    26d0:	01 00 00 00 	nop 
    26d4:	01 00 00 00 	nop 
    26d8:	01 00 00 00 	nop 
    26dc:	01 00 00 00 	nop 
    26e0:	01 00 00 00 	nop 
    26e4:	01 00 00 00 	nop 
    26e8:	01 00 00 00 	nop 
    26ec:	01 00 00 00 	nop 
    26f0:	01 00 00 00 	nop 
    26f4:	01 00 00 00 	nop 
    26f8:	01 00 00 00 	nop 
    26fc:	01 00 00 00 	nop 
    2700:	01 00 00 00 	nop 
    2704:	01 00 00 00 	nop 
    2708:	01 00 00 00 	nop 
    270c:	01 00 00 00 	nop 
    2710:	01 00 00 00 	nop 
    2714:	01 00 00 00 	nop 
    2718:	01 00 00 00 	nop 
    271c:	01 00 00 00 	nop 
    2720:	01 00 00 00 	nop 
    2724:	01 00 00 00 	nop 
    2728:	01 00 00 00 	nop 
    272c:	01 00 00 00 	nop 
    2730:	01 00 00 00 	nop 
    2734:	01 00 00 00 	nop 
    2738:	01 00 00 00 	nop 
    273c:	01 00 00 00 	nop 
    2740:	01 00 00 00 	nop 
    2744:	01 00 00 00 	nop 
    2748:	01 00 00 00 	nop 
    274c:	01 00 00 00 	nop 
    2750:	01 00 00 00 	nop 
    2754:	01 00 00 00 	nop 
    2758:	01 00 00 00 	nop 
    275c:	01 00 00 00 	nop 
    2760:	01 00 00 00 	nop 
    2764:	01 00 00 00 	nop 
    2768:	01 00 00 00 	nop 
    276c:	01 00 00 00 	nop 
    2770:	01 00 00 00 	nop 
    2774:	01 00 00 00 	nop 
    2778:	01 00 00 00 	nop 
    277c:	01 00 00 00 	nop 
    2780:	01 00 00 00 	nop 
    2784:	01 00 00 00 	nop 
    2788:	01 00 00 00 	nop 
    278c:	01 00 00 00 	nop 
    2790:	01 00 00 00 	nop 
    2794:	01 00 00 00 	nop 
    2798:	01 00 00 00 	nop 
    279c:	01 00 00 00 	nop 
    27a0:	01 00 00 00 	nop 
    27a4:	01 00 00 00 	nop 
    27a8:	01 00 00 00 	nop 
    27ac:	01 00 00 00 	nop 
    27b0:	01 00 00 00 	nop 
    27b4:	01 00 00 00 	nop 
    27b8:	01 00 00 00 	nop 
    27bc:	01 00 00 00 	nop 
    27c0:	01 00 00 00 	nop 
    27c4:	01 00 00 00 	nop 
    27c8:	01 00 00 00 	nop 
    27cc:	01 00 00 00 	nop 
    27d0:	01 00 00 00 	nop 
    27d4:	01 00 00 00 	nop 
    27d8:	01 00 00 00 	nop 
    27dc:	01 00 00 00 	nop 
    27e0:	01 00 00 00 	nop 
    27e4:	01 00 00 00 	nop 
    27e8:	01 00 00 00 	nop 
    27ec:	01 00 00 00 	nop 
    27f0:	01 00 00 00 	nop 
    27f4:	01 00 00 00 	nop 
    27f8:	01 00 00 00 	nop 
    27fc:	01 00 00 00 	nop 
    2800:	01 00 00 00 	nop 
    2804:	01 00 00 00 	nop 
    2808:	01 00 00 00 	nop 
    280c:	01 00 00 00 	nop 
    2810:	01 00 00 00 	nop 
    2814:	01 00 00 00 	nop 
    2818:	01 00 00 00 	nop 
    281c:	01 00 00 00 	nop 
    2820:	01 00 00 00 	nop 
    2824:	01 00 00 00 	nop 
    2828:	01 00 00 00 	nop 
    282c:	01 00 00 00 	nop 
    2830:	01 00 00 00 	nop 
    2834:	01 00 00 00 	nop 
    2838:	01 00 00 00 	nop 
    283c:	01 00 00 00 	nop 
    2840:	01 00 00 00 	nop 
    2844:	01 00 00 00 	nop 
    2848:	01 00 00 00 	nop 
    284c:	01 00 00 00 	nop 
    2850:	01 00 00 00 	nop 
    2854:	01 00 00 00 	nop 
    2858:	01 00 00 00 	nop 
    285c:	01 00 00 00 	nop 
    2860:	01 00 00 00 	nop 
    2864:	01 00 00 00 	nop 
    2868:	01 00 00 00 	nop 
    286c:	01 00 00 00 	nop 
    2870:	01 00 00 00 	nop 
    2874:	01 00 00 00 	nop 
    2878:	01 00 00 00 	nop 
    287c:	01 00 00 00 	nop 
    2880:	01 00 00 00 	nop 
    2884:	01 00 00 00 	nop 
    2888:	01 00 00 00 	nop 
    288c:	01 00 00 00 	nop 
    2890:	01 00 00 00 	nop 
    2894:	01 00 00 00 	nop 
    2898:	01 00 00 00 	nop 
    289c:	01 00 00 00 	nop 
    28a0:	01 00 00 00 	nop 
    28a4:	01 00 00 00 	nop 
    28a8:	01 00 00 00 	nop 
    28ac:	01 00 00 00 	nop 
    28b0:	01 00 00 00 	nop 
    28b4:	01 00 00 00 	nop 
    28b8:	01 00 00 00 	nop 
    28bc:	01 00 00 00 	nop 
    28c0:	01 00 00 00 	nop 
    28c4:	01 00 00 00 	nop 
    28c8:	01 00 00 00 	nop 
    28cc:	01 00 00 00 	nop 
    28d0:	01 00 00 00 	nop 
    28d4:	01 00 00 00 	nop 
    28d8:	01 00 00 00 	nop 
    28dc:	01 00 00 00 	nop 
    28e0:	01 00 00 00 	nop 
    28e4:	01 00 00 00 	nop 
    28e8:	01 00 00 00 	nop 
    28ec:	01 00 00 00 	nop 
    28f0:	01 00 00 00 	nop 
    28f4:	01 00 00 00 	nop 
    28f8:	01 00 00 00 	nop 
    28fc:	01 00 00 00 	nop 
    2900:	01 00 00 00 	nop 
    2904:	01 00 00 00 	nop 
    2908:	01 00 00 00 	nop 
    290c:	01 00 00 00 	nop 
    2910:	01 00 00 00 	nop 
    2914:	01 00 00 00 	nop 
    2918:	01 00 00 00 	nop 
    291c:	01 00 00 00 	nop 
    2920:	01 00 00 00 	nop 
    2924:	01 00 00 00 	nop 
    2928:	01 00 00 00 	nop 
    292c:	01 00 00 00 	nop 
    2930:	01 00 00 00 	nop 
    2934:	01 00 00 00 	nop 
    2938:	01 00 00 00 	nop 
    293c:	01 00 00 00 	nop 
    2940:	01 00 00 00 	nop 
    2944:	01 00 00 00 	nop 
    2948:	01 00 00 00 	nop 
    294c:	01 00 00 00 	nop 
    2950:	01 00 00 00 	nop 
    2954:	01 00 00 00 	nop 
    2958:	01 00 00 00 	nop 
    295c:	01 00 00 00 	nop 
    2960:	01 00 00 00 	nop 
    2964:	01 00 00 00 	nop 
    2968:	01 00 00 00 	nop 
    296c:	01 00 00 00 	nop 
    2970:	01 00 00 00 	nop 
    2974:	01 00 00 00 	nop 
    2978:	01 00 00 00 	nop 
    297c:	01 00 00 00 	nop 
    2980:	01 00 00 00 	nop 
    2984:	01 00 00 00 	nop 
    2988:	01 00 00 00 	nop 
    298c:	01 00 00 00 	nop 
    2990:	01 00 00 00 	nop 
    2994:	01 00 00 00 	nop 
    2998:	01 00 00 00 	nop 
    299c:	01 00 00 00 	nop 
    29a0:	01 00 00 00 	nop 
    29a4:	01 00 00 00 	nop 
    29a8:	01 00 00 00 	nop 
    29ac:	01 00 00 00 	nop 
    29b0:	01 00 00 00 	nop 
    29b4:	01 00 00 00 	nop 
    29b8:	01 00 00 00 	nop 
    29bc:	01 00 00 00 	nop 
    29c0:	01 00 00 00 	nop 
    29c4:	01 00 00 00 	nop 
    29c8:	01 00 00 00 	nop 
    29cc:	01 00 00 00 	nop 
    29d0:	01 00 00 00 	nop 
    29d4:	01 00 00 00 	nop 
    29d8:	01 00 00 00 	nop 
    29dc:	01 00 00 00 	nop 
    29e0:	01 00 00 00 	nop 
    29e4:	01 00 00 00 	nop 
    29e8:	01 00 00 00 	nop 
    29ec:	01 00 00 00 	nop 
    29f0:	01 00 00 00 	nop 
    29f4:	01 00 00 00 	nop 
    29f8:	01 00 00 00 	nop 
    29fc:	01 00 00 00 	nop 
    2a00:	01 00 00 00 	nop 
    2a04:	01 00 00 00 	nop 
    2a08:	01 00 00 00 	nop 
    2a0c:	01 00 00 00 	nop 
    2a10:	01 00 00 00 	nop 
    2a14:	01 00 00 00 	nop 
    2a18:	01 00 00 00 	nop 
    2a1c:	01 00 00 00 	nop 
    2a20:	01 00 00 00 	nop 
    2a24:	01 00 00 00 	nop 
    2a28:	01 00 00 00 	nop 
    2a2c:	01 00 00 00 	nop 
    2a30:	01 00 00 00 	nop 
    2a34:	01 00 00 00 	nop 
    2a38:	01 00 00 00 	nop 
    2a3c:	01 00 00 00 	nop 
    2a40:	01 00 00 00 	nop 
    2a44:	01 00 00 00 	nop 
    2a48:	01 00 00 00 	nop 
    2a4c:	01 00 00 00 	nop 
    2a50:	01 00 00 00 	nop 
    2a54:	01 00 00 00 	nop 
    2a58:	01 00 00 00 	nop 
    2a5c:	01 00 00 00 	nop 
    2a60:	01 00 00 00 	nop 
    2a64:	01 00 00 00 	nop 
    2a68:	01 00 00 00 	nop 
    2a6c:	01 00 00 00 	nop 
    2a70:	01 00 00 00 	nop 
    2a74:	01 00 00 00 	nop 
    2a78:	01 00 00 00 	nop 
    2a7c:	01 00 00 00 	nop 
    2a80:	01 00 00 00 	nop 
    2a84:	01 00 00 00 	nop 
    2a88:	01 00 00 00 	nop 
    2a8c:	01 00 00 00 	nop 
    2a90:	01 00 00 00 	nop 
    2a94:	01 00 00 00 	nop 
    2a98:	01 00 00 00 	nop 
    2a9c:	01 00 00 00 	nop 
    2aa0:	01 00 00 00 	nop 
    2aa4:	01 00 00 00 	nop 
    2aa8:	01 00 00 00 	nop 
    2aac:	01 00 00 00 	nop 
    2ab0:	01 00 00 00 	nop 
    2ab4:	01 00 00 00 	nop 
    2ab8:	01 00 00 00 	nop 
    2abc:	01 00 00 00 	nop 
    2ac0:	01 00 00 00 	nop 
    2ac4:	01 00 00 00 	nop 
    2ac8:	01 00 00 00 	nop 
    2acc:	01 00 00 00 	nop 
    2ad0:	01 00 00 00 	nop 
    2ad4:	01 00 00 00 	nop 
    2ad8:	01 00 00 00 	nop 
    2adc:	01 00 00 00 	nop 
    2ae0:	01 00 00 00 	nop 
    2ae4:	01 00 00 00 	nop 
    2ae8:	01 00 00 00 	nop 
    2aec:	01 00 00 00 	nop 
    2af0:	01 00 00 00 	nop 
    2af4:	01 00 00 00 	nop 
    2af8:	01 00 00 00 	nop 
    2afc:	01 00 00 00 	nop 
    2b00:	01 00 00 00 	nop 
    2b04:	01 00 00 00 	nop 
    2b08:	01 00 00 00 	nop 
    2b0c:	01 00 00 00 	nop 
    2b10:	01 00 00 00 	nop 
    2b14:	01 00 00 00 	nop 
    2b18:	01 00 00 00 	nop 
    2b1c:	01 00 00 00 	nop 
    2b20:	01 00 00 00 	nop 
    2b24:	01 00 00 00 	nop 
    2b28:	01 00 00 00 	nop 
    2b2c:	01 00 00 00 	nop 
    2b30:	01 00 00 00 	nop 
    2b34:	01 00 00 00 	nop 
    2b38:	01 00 00 00 	nop 
    2b3c:	01 00 00 00 	nop 
    2b40:	01 00 00 00 	nop 
    2b44:	01 00 00 00 	nop 
    2b48:	01 00 00 00 	nop 
    2b4c:	01 00 00 00 	nop 
    2b50:	01 00 00 00 	nop 
    2b54:	01 00 00 00 	nop 
    2b58:	01 00 00 00 	nop 
    2b5c:	01 00 00 00 	nop 
    2b60:	01 00 00 00 	nop 
    2b64:	01 00 00 00 	nop 
    2b68:	01 00 00 00 	nop 
    2b6c:	01 00 00 00 	nop 
    2b70:	01 00 00 00 	nop 
    2b74:	01 00 00 00 	nop 
    2b78:	01 00 00 00 	nop 
    2b7c:	01 00 00 00 	nop 
    2b80:	01 00 00 00 	nop 
    2b84:	01 00 00 00 	nop 
    2b88:	01 00 00 00 	nop 
    2b8c:	01 00 00 00 	nop 
    2b90:	01 00 00 00 	nop 
    2b94:	01 00 00 00 	nop 
    2b98:	01 00 00 00 	nop 
    2b9c:	01 00 00 00 	nop 
    2ba0:	01 00 00 00 	nop 
    2ba4:	01 00 00 00 	nop 
    2ba8:	01 00 00 00 	nop 
    2bac:	01 00 00 00 	nop 
    2bb0:	01 00 00 00 	nop 
    2bb4:	01 00 00 00 	nop 
    2bb8:	01 00 00 00 	nop 
    2bbc:	01 00 00 00 	nop 
    2bc0:	01 00 00 00 	nop 
    2bc4:	01 00 00 00 	nop 
    2bc8:	01 00 00 00 	nop 
    2bcc:	01 00 00 00 	nop 
    2bd0:	01 00 00 00 	nop 
    2bd4:	01 00 00 00 	nop 
    2bd8:	01 00 00 00 	nop 
    2bdc:	01 00 00 00 	nop 
    2be0:	01 00 00 00 	nop 
    2be4:	01 00 00 00 	nop 
    2be8:	01 00 00 00 	nop 
    2bec:	01 00 00 00 	nop 
    2bf0:	01 00 00 00 	nop 
    2bf4:	01 00 00 00 	nop 
    2bf8:	01 00 00 00 	nop 
    2bfc:	01 00 00 00 	nop 
    2c00:	01 00 00 00 	nop 
    2c04:	01 00 00 00 	nop 
    2c08:	01 00 00 00 	nop 
    2c0c:	01 00 00 00 	nop 
    2c10:	01 00 00 00 	nop 
    2c14:	01 00 00 00 	nop 
    2c18:	01 00 00 00 	nop 
    2c1c:	01 00 00 00 	nop 
    2c20:	01 00 00 00 	nop 
    2c24:	01 00 00 00 	nop 
    2c28:	01 00 00 00 	nop 
    2c2c:	01 00 00 00 	nop 
    2c30:	01 00 00 00 	nop 
    2c34:	01 00 00 00 	nop 
    2c38:	01 00 00 00 	nop 
    2c3c:	01 00 00 00 	nop 
    2c40:	01 00 00 00 	nop 
    2c44:	01 00 00 00 	nop 
    2c48:	01 00 00 00 	nop 
    2c4c:	01 00 00 00 	nop 
    2c50:	01 00 00 00 	nop 
    2c54:	01 00 00 00 	nop 
    2c58:	01 00 00 00 	nop 
    2c5c:	01 00 00 00 	nop 
    2c60:	01 00 00 00 	nop 
    2c64:	01 00 00 00 	nop 
    2c68:	01 00 00 00 	nop 
    2c6c:	01 00 00 00 	nop 
    2c70:	01 00 00 00 	nop 
    2c74:	01 00 00 00 	nop 
    2c78:	01 00 00 00 	nop 
    2c7c:	01 00 00 00 	nop 
    2c80:	01 00 00 00 	nop 
    2c84:	01 00 00 00 	nop 
    2c88:	01 00 00 00 	nop 
    2c8c:	01 00 00 00 	nop 
    2c90:	01 00 00 00 	nop 
    2c94:	01 00 00 00 	nop 
    2c98:	01 00 00 00 	nop 
    2c9c:	01 00 00 00 	nop 
    2ca0:	01 00 00 00 	nop 
    2ca4:	01 00 00 00 	nop 
    2ca8:	01 00 00 00 	nop 
    2cac:	01 00 00 00 	nop 
    2cb0:	01 00 00 00 	nop 
    2cb4:	01 00 00 00 	nop 
    2cb8:	01 00 00 00 	nop 
    2cbc:	01 00 00 00 	nop 
    2cc0:	01 00 00 00 	nop 
    2cc4:	01 00 00 00 	nop 
    2cc8:	01 00 00 00 	nop 
    2ccc:	01 00 00 00 	nop 
    2cd0:	01 00 00 00 	nop 
    2cd4:	01 00 00 00 	nop 
    2cd8:	01 00 00 00 	nop 
    2cdc:	01 00 00 00 	nop 
    2ce0:	01 00 00 00 	nop 
    2ce4:	01 00 00 00 	nop 
    2ce8:	01 00 00 00 	nop 
    2cec:	01 00 00 00 	nop 
    2cf0:	01 00 00 00 	nop 
    2cf4:	01 00 00 00 	nop 
    2cf8:	01 00 00 00 	nop 
    2cfc:	01 00 00 00 	nop 
    2d00:	01 00 00 00 	nop 
    2d04:	01 00 00 00 	nop 
    2d08:	01 00 00 00 	nop 
    2d0c:	01 00 00 00 	nop 
    2d10:	01 00 00 00 	nop 
    2d14:	01 00 00 00 	nop 
    2d18:	01 00 00 00 	nop 
    2d1c:	01 00 00 00 	nop 
    2d20:	01 00 00 00 	nop 
    2d24:	01 00 00 00 	nop 
    2d28:	01 00 00 00 	nop 
    2d2c:	01 00 00 00 	nop 
    2d30:	01 00 00 00 	nop 
    2d34:	01 00 00 00 	nop 
    2d38:	01 00 00 00 	nop 
    2d3c:	01 00 00 00 	nop 
    2d40:	01 00 00 00 	nop 
    2d44:	01 00 00 00 	nop 
    2d48:	01 00 00 00 	nop 
    2d4c:	01 00 00 00 	nop 
    2d50:	01 00 00 00 	nop 
    2d54:	01 00 00 00 	nop 
    2d58:	01 00 00 00 	nop 
    2d5c:	01 00 00 00 	nop 
    2d60:	01 00 00 00 	nop 
    2d64:	01 00 00 00 	nop 
    2d68:	01 00 00 00 	nop 
    2d6c:	01 00 00 00 	nop 
    2d70:	01 00 00 00 	nop 
    2d74:	01 00 00 00 	nop 
    2d78:	01 00 00 00 	nop 
    2d7c:	01 00 00 00 	nop 
    2d80:	01 00 00 00 	nop 
    2d84:	01 00 00 00 	nop 
    2d88:	01 00 00 00 	nop 
    2d8c:	01 00 00 00 	nop 
    2d90:	01 00 00 00 	nop 
    2d94:	01 00 00 00 	nop 
    2d98:	01 00 00 00 	nop 
    2d9c:	01 00 00 00 	nop 
    2da0:	01 00 00 00 	nop 
    2da4:	01 00 00 00 	nop 
    2da8:	01 00 00 00 	nop 
    2dac:	01 00 00 00 	nop 
    2db0:	01 00 00 00 	nop 
    2db4:	01 00 00 00 	nop 
    2db8:	01 00 00 00 	nop 
    2dbc:	01 00 00 00 	nop 
    2dc0:	01 00 00 00 	nop 
    2dc4:	01 00 00 00 	nop 
    2dc8:	01 00 00 00 	nop 
    2dcc:	01 00 00 00 	nop 
    2dd0:	01 00 00 00 	nop 
    2dd4:	01 00 00 00 	nop 
    2dd8:	01 00 00 00 	nop 
    2ddc:	01 00 00 00 	nop 
    2de0:	01 00 00 00 	nop 
    2de4:	01 00 00 00 	nop 
    2de8:	01 00 00 00 	nop 
    2dec:	01 00 00 00 	nop 
    2df0:	01 00 00 00 	nop 
    2df4:	01 00 00 00 	nop 
    2df8:	01 00 00 00 	nop 
    2dfc:	01 00 00 00 	nop 
    2e00:	01 00 00 00 	nop 
    2e04:	01 00 00 00 	nop 
    2e08:	01 00 00 00 	nop 
    2e0c:	01 00 00 00 	nop 
    2e10:	01 00 00 00 	nop 
    2e14:	01 00 00 00 	nop 
    2e18:	01 00 00 00 	nop 
    2e1c:	01 00 00 00 	nop 
    2e20:	01 00 00 00 	nop 
    2e24:	01 00 00 00 	nop 
    2e28:	01 00 00 00 	nop 
    2e2c:	01 00 00 00 	nop 
    2e30:	01 00 00 00 	nop 
    2e34:	01 00 00 00 	nop 
    2e38:	01 00 00 00 	nop 
    2e3c:	01 00 00 00 	nop 
    2e40:	01 00 00 00 	nop 
    2e44:	01 00 00 00 	nop 
    2e48:	01 00 00 00 	nop 
    2e4c:	01 00 00 00 	nop 
    2e50:	01 00 00 00 	nop 
    2e54:	01 00 00 00 	nop 
    2e58:	01 00 00 00 	nop 
    2e5c:	01 00 00 00 	nop 
    2e60:	01 00 00 00 	nop 
    2e64:	01 00 00 00 	nop 
    2e68:	01 00 00 00 	nop 
    2e6c:	01 00 00 00 	nop 
    2e70:	01 00 00 00 	nop 
    2e74:	01 00 00 00 	nop 
    2e78:	01 00 00 00 	nop 
    2e7c:	01 00 00 00 	nop 
    2e80:	01 00 00 00 	nop 
    2e84:	01 00 00 00 	nop 
    2e88:	01 00 00 00 	nop 
    2e8c:	01 00 00 00 	nop 
    2e90:	01 00 00 00 	nop 
    2e94:	01 00 00 00 	nop 
    2e98:	01 00 00 00 	nop 
    2e9c:	01 00 00 00 	nop 
    2ea0:	01 00 00 00 	nop 
    2ea4:	01 00 00 00 	nop 
    2ea8:	01 00 00 00 	nop 
    2eac:	01 00 00 00 	nop 
    2eb0:	01 00 00 00 	nop 
    2eb4:	01 00 00 00 	nop 
    2eb8:	01 00 00 00 	nop 
    2ebc:	01 00 00 00 	nop 
    2ec0:	01 00 00 00 	nop 
    2ec4:	01 00 00 00 	nop 
    2ec8:	01 00 00 00 	nop 
    2ecc:	01 00 00 00 	nop 
    2ed0:	01 00 00 00 	nop 
    2ed4:	01 00 00 00 	nop 
    2ed8:	01 00 00 00 	nop 
    2edc:	01 00 00 00 	nop 
    2ee0:	01 00 00 00 	nop 
    2ee4:	01 00 00 00 	nop 
    2ee8:	01 00 00 00 	nop 
    2eec:	01 00 00 00 	nop 
    2ef0:	01 00 00 00 	nop 
    2ef4:	01 00 00 00 	nop 
    2ef8:	01 00 00 00 	nop 
    2efc:	01 00 00 00 	nop 
    2f00:	01 00 00 00 	nop 
    2f04:	01 00 00 00 	nop 
    2f08:	01 00 00 00 	nop 
    2f0c:	01 00 00 00 	nop 
    2f10:	01 00 00 00 	nop 
    2f14:	01 00 00 00 	nop 
    2f18:	01 00 00 00 	nop 
    2f1c:	01 00 00 00 	nop 
    2f20:	01 00 00 00 	nop 
    2f24:	01 00 00 00 	nop 
    2f28:	01 00 00 00 	nop 
    2f2c:	01 00 00 00 	nop 
    2f30:	01 00 00 00 	nop 
    2f34:	01 00 00 00 	nop 
    2f38:	01 00 00 00 	nop 
    2f3c:	01 00 00 00 	nop 
    2f40:	01 00 00 00 	nop 
    2f44:	01 00 00 00 	nop 
    2f48:	01 00 00 00 	nop 
    2f4c:	01 00 00 00 	nop 
    2f50:	01 00 00 00 	nop 
    2f54:	01 00 00 00 	nop 
    2f58:	01 00 00 00 	nop 
    2f5c:	01 00 00 00 	nop 
    2f60:	01 00 00 00 	nop 
    2f64:	01 00 00 00 	nop 
    2f68:	01 00 00 00 	nop 
    2f6c:	01 00 00 00 	nop 
    2f70:	01 00 00 00 	nop 
    2f74:	01 00 00 00 	nop 
    2f78:	01 00 00 00 	nop 
    2f7c:	01 00 00 00 	nop 
    2f80:	01 00 00 00 	nop 
    2f84:	01 00 00 00 	nop 
    2f88:	01 00 00 00 	nop 
    2f8c:	01 00 00 00 	nop 
    2f90:	01 00 00 00 	nop 
    2f94:	01 00 00 00 	nop 
    2f98:	01 00 00 00 	nop 
    2f9c:	01 00 00 00 	nop 
    2fa0:	01 00 00 00 	nop 
    2fa4:	01 00 00 00 	nop 
    2fa8:	01 00 00 00 	nop 
    2fac:	01 00 00 00 	nop 
    2fb0:	01 00 00 00 	nop 
    2fb4:	01 00 00 00 	nop 
    2fb8:	01 00 00 00 	nop 
    2fbc:	01 00 00 00 	nop 
    2fc0:	01 00 00 00 	nop 
    2fc4:	01 00 00 00 	nop 
    2fc8:	01 00 00 00 	nop 
    2fcc:	01 00 00 00 	nop 
    2fd0:	01 00 00 00 	nop 
    2fd4:	01 00 00 00 	nop 
    2fd8:	01 00 00 00 	nop 
    2fdc:	01 00 00 00 	nop 
    2fe0:	01 00 00 00 	nop 
    2fe4:	01 00 00 00 	nop 
    2fe8:	01 00 00 00 	nop 
    2fec:	01 00 00 00 	nop 
    2ff0:	01 00 00 00 	nop 
    2ff4:	01 00 00 00 	nop 
    2ff8:	01 00 00 00 	nop 
    2ffc:	01 00 00 00 	nop 

00003000 <trap_table_base>:
    3000:	91 d0 20 00 	ta  0
    3004:	01 00 00 00 	nop 
    3008:	01 00 00 00 	nop 
    300c:	01 00 00 00 	nop 

00003010 <HW_trap_0x01>:
    3010:	91 d0 20 00 	ta  0
    3014:	01 00 00 00 	nop 
    3018:	01 00 00 00 	nop 
    301c:	01 00 00 00 	nop 

00003020 <HW_trap_0x02>:
    3020:	91 d0 20 00 	ta  0
    3024:	01 00 00 00 	nop 
    3028:	01 00 00 00 	nop 
    302c:	01 00 00 00 	nop 

00003030 <HW_trap_0x03>:
    3030:	91 d0 20 00 	ta  0
    3034:	01 00 00 00 	nop 
    3038:	01 00 00 00 	nop 
    303c:	01 00 00 00 	nop 

00003040 <HW_trap_0x04>:
    3040:	91 d0 20 00 	ta  0
    3044:	01 00 00 00 	nop 
    3048:	01 00 00 00 	nop 
    304c:	01 00 00 00 	nop 

00003050 <HW_trap_0x05>:
    3050:	10 bf fb ec 	b  2000 <window_overflow_trap_handler>
    3054:	01 00 00 00 	nop 
    3058:	01 00 00 00 	nop 
    305c:	01 00 00 00 	nop 

00003060 <HW_trap_0x06>:
    3060:	10 bf fc 01 	b  2064 <window_underflow_trap_handler>
    3064:	01 00 00 00 	nop 
    3068:	01 00 00 00 	nop 
    306c:	01 00 00 00 	nop 

00003070 <HW_trap_0x07>:
    3070:	91 d0 20 00 	ta  0
    3074:	01 00 00 00 	nop 
    3078:	01 00 00 00 	nop 
    307c:	01 00 00 00 	nop 

00003080 <HW_trap_0x08>:
    3080:	91 d0 20 00 	ta  0
    3084:	01 00 00 00 	nop 
    3088:	01 00 00 00 	nop 
    308c:	01 00 00 00 	nop 

00003090 <HW_trap_0x09>:
    3090:	91 d0 20 00 	ta  0
    3094:	01 00 00 00 	nop 
    3098:	01 00 00 00 	nop 
    309c:	01 00 00 00 	nop 

000030a0 <HW_trap_0x0a>:
    30a0:	91 d0 20 00 	ta  0
    30a4:	01 00 00 00 	nop 
    30a8:	01 00 00 00 	nop 
    30ac:	01 00 00 00 	nop 

000030b0 <HW_trap_0x0b>:
    30b0:	91 d0 20 00 	ta  0
    30b4:	01 00 00 00 	nop 
    30b8:	01 00 00 00 	nop 
    30bc:	01 00 00 00 	nop 

000030c0 <HW_trap_0x0c>:
    30c0:	91 d0 20 00 	ta  0
    30c4:	01 00 00 00 	nop 
    30c8:	01 00 00 00 	nop 
    30cc:	01 00 00 00 	nop 

000030d0 <HW_trap_0x0d>:
    30d0:	91 d0 20 00 	ta  0
    30d4:	01 00 00 00 	nop 
    30d8:	01 00 00 00 	nop 
    30dc:	01 00 00 00 	nop 

000030e0 <HW_trap_0x0e>:
    30e0:	91 d0 20 00 	ta  0
    30e4:	01 00 00 00 	nop 
    30e8:	01 00 00 00 	nop 
    30ec:	01 00 00 00 	nop 

000030f0 <HW_trap_0x0f>:
    30f0:	91 d0 20 00 	ta  0
    30f4:	01 00 00 00 	nop 
    30f8:	01 00 00 00 	nop 
    30fc:	01 00 00 00 	nop 

00003100 <HW_trap_0x10>:
    3100:	91 d0 20 00 	ta  0
    3104:	01 00 00 00 	nop 
    3108:	01 00 00 00 	nop 
    310c:	01 00 00 00 	nop 

00003110 <HW_trap_0x11>:
    3110:	91 d0 20 00 	ta  0
    3114:	01 00 00 00 	nop 
    3118:	01 00 00 00 	nop 
    311c:	01 00 00 00 	nop 

00003120 <HW_trap_0x12>:
    3120:	91 d0 20 00 	ta  0
    3124:	01 00 00 00 	nop 
    3128:	01 00 00 00 	nop 
    312c:	01 00 00 00 	nop 

00003130 <HW_trap_0x13>:
    3130:	91 d0 20 00 	ta  0
    3134:	01 00 00 00 	nop 
    3138:	01 00 00 00 	nop 
    313c:	01 00 00 00 	nop 

00003140 <HW_trap_0x14>:
    3140:	91 d0 20 00 	ta  0
    3144:	01 00 00 00 	nop 
    3148:	01 00 00 00 	nop 
    314c:	01 00 00 00 	nop 

00003150 <HW_trap_0x15>:
    3150:	91 d0 20 00 	ta  0
    3154:	01 00 00 00 	nop 
    3158:	01 00 00 00 	nop 
    315c:	01 00 00 00 	nop 

00003160 <HW_trap_0x16>:
    3160:	91 d0 20 00 	ta  0
    3164:	01 00 00 00 	nop 
    3168:	01 00 00 00 	nop 
    316c:	01 00 00 00 	nop 

00003170 <HW_trap_0x17>:
    3170:	91 d0 20 00 	ta  0
    3174:	01 00 00 00 	nop 
    3178:	01 00 00 00 	nop 
    317c:	01 00 00 00 	nop 

00003180 <HW_trap_0x18>:
    3180:	91 d0 20 00 	ta  0
    3184:	01 00 00 00 	nop 
    3188:	01 00 00 00 	nop 
    318c:	01 00 00 00 	nop 

00003190 <HW_trap_0x19>:
    3190:	91 d0 20 00 	ta  0
    3194:	01 00 00 00 	nop 
    3198:	01 00 00 00 	nop 
    319c:	01 00 00 00 	nop 

000031a0 <HW_trap_0x1a>:
    31a0:	91 d0 20 00 	ta  0
    31a4:	01 00 00 00 	nop 
    31a8:	01 00 00 00 	nop 
    31ac:	01 00 00 00 	nop 

000031b0 <HW_trap_0x1b>:
    31b0:	91 d0 20 00 	ta  0
    31b4:	01 00 00 00 	nop 
    31b8:	01 00 00 00 	nop 
    31bc:	01 00 00 00 	nop 

000031c0 <HW_trap_0x1c>:
    31c0:	91 d0 20 00 	ta  0
    31c4:	01 00 00 00 	nop 
    31c8:	01 00 00 00 	nop 
    31cc:	01 00 00 00 	nop 

000031d0 <HW_trap_0x1d>:
    31d0:	91 d0 20 00 	ta  0
    31d4:	01 00 00 00 	nop 
    31d8:	01 00 00 00 	nop 
    31dc:	01 00 00 00 	nop 

000031e0 <HW_trap_0x1e>:
    31e0:	91 d0 20 00 	ta  0
    31e4:	01 00 00 00 	nop 
    31e8:	01 00 00 00 	nop 
    31ec:	01 00 00 00 	nop 

000031f0 <HW_trap_0x1f>:
    31f0:	91 d0 20 00 	ta  0
    31f4:	01 00 00 00 	nop 
    31f8:	01 00 00 00 	nop 
    31fc:	01 00 00 00 	nop 

00003200 <HW_trap_0x20>:
    3200:	91 d0 20 00 	ta  0
    3204:	01 00 00 00 	nop 
    3208:	01 00 00 00 	nop 
    320c:	01 00 00 00 	nop 

00003210 <HW_trap_0x21>:
    3210:	91 d0 20 00 	ta  0
    3214:	01 00 00 00 	nop 
    3218:	01 00 00 00 	nop 
    321c:	01 00 00 00 	nop 

00003220 <HW_trap_0x22>:
    3220:	91 d0 20 00 	ta  0
    3224:	01 00 00 00 	nop 
    3228:	01 00 00 00 	nop 
    322c:	01 00 00 00 	nop 

00003230 <HW_trap_0x23>:
    3230:	91 d0 20 00 	ta  0
    3234:	01 00 00 00 	nop 
    3238:	01 00 00 00 	nop 
    323c:	01 00 00 00 	nop 

00003240 <HW_trap_0x24>:
    3240:	91 d0 20 00 	ta  0
    3244:	01 00 00 00 	nop 
    3248:	01 00 00 00 	nop 
    324c:	01 00 00 00 	nop 

00003250 <HW_trap_0x25>:
    3250:	91 d0 20 00 	ta  0
    3254:	01 00 00 00 	nop 
    3258:	01 00 00 00 	nop 
    325c:	01 00 00 00 	nop 

00003260 <HW_trap_0x26>:
    3260:	91 d0 20 00 	ta  0
    3264:	01 00 00 00 	nop 
    3268:	01 00 00 00 	nop 
    326c:	01 00 00 00 	nop 

00003270 <HW_trap_0x27>:
    3270:	91 d0 20 00 	ta  0
    3274:	01 00 00 00 	nop 
    3278:	01 00 00 00 	nop 
    327c:	01 00 00 00 	nop 

00003280 <HW_trap_0x28>:
    3280:	91 d0 20 00 	ta  0
    3284:	01 00 00 00 	nop 
    3288:	01 00 00 00 	nop 
    328c:	01 00 00 00 	nop 

00003290 <HW_trap_0x29>:
    3290:	91 d0 20 00 	ta  0
    3294:	01 00 00 00 	nop 
    3298:	01 00 00 00 	nop 
    329c:	01 00 00 00 	nop 

000032a0 <HW_trap_0x2a>:
    32a0:	91 d0 20 00 	ta  0
    32a4:	01 00 00 00 	nop 
    32a8:	01 00 00 00 	nop 
    32ac:	01 00 00 00 	nop 

000032b0 <HW_trap_0x2b>:
    32b0:	91 d0 20 00 	ta  0
    32b4:	01 00 00 00 	nop 
    32b8:	01 00 00 00 	nop 
    32bc:	01 00 00 00 	nop 

000032c0 <HW_trap_0x2c>:
    32c0:	91 d0 20 00 	ta  0
    32c4:	01 00 00 00 	nop 
    32c8:	01 00 00 00 	nop 
    32cc:	01 00 00 00 	nop 

000032d0 <HW_trap_0x2d>:
    32d0:	91 d0 20 00 	ta  0
    32d4:	01 00 00 00 	nop 
    32d8:	01 00 00 00 	nop 
    32dc:	01 00 00 00 	nop 

000032e0 <HW_trap_0x2e>:
    32e0:	91 d0 20 00 	ta  0
    32e4:	01 00 00 00 	nop 
    32e8:	01 00 00 00 	nop 
    32ec:	01 00 00 00 	nop 

000032f0 <HW_trap_0x2f>:
    32f0:	91 d0 20 00 	ta  0
    32f4:	01 00 00 00 	nop 
    32f8:	01 00 00 00 	nop 
    32fc:	01 00 00 00 	nop 

00003300 <HW_trap_0x30>:
    3300:	91 d0 20 00 	ta  0
    3304:	01 00 00 00 	nop 
    3308:	01 00 00 00 	nop 
    330c:	01 00 00 00 	nop 

00003310 <HW_trap_0x31>:
    3310:	91 d0 20 00 	ta  0
    3314:	01 00 00 00 	nop 
    3318:	01 00 00 00 	nop 
    331c:	01 00 00 00 	nop 

00003320 <HW_trap_0x32>:
    3320:	91 d0 20 00 	ta  0
    3324:	01 00 00 00 	nop 
    3328:	01 00 00 00 	nop 
    332c:	01 00 00 00 	nop 

00003330 <HW_trap_0x33>:
    3330:	91 d0 20 00 	ta  0
    3334:	01 00 00 00 	nop 
    3338:	01 00 00 00 	nop 
    333c:	01 00 00 00 	nop 

00003340 <HW_trap_0x34>:
    3340:	91 d0 20 00 	ta  0
    3344:	01 00 00 00 	nop 
    3348:	01 00 00 00 	nop 
    334c:	01 00 00 00 	nop 

00003350 <HW_trap_0x35>:
    3350:	91 d0 20 00 	ta  0
    3354:	01 00 00 00 	nop 
    3358:	01 00 00 00 	nop 
    335c:	01 00 00 00 	nop 

00003360 <HW_trap_0x36>:
    3360:	91 d0 20 00 	ta  0
    3364:	01 00 00 00 	nop 
    3368:	01 00 00 00 	nop 
    336c:	01 00 00 00 	nop 

00003370 <HW_trap_0x37>:
    3370:	91 d0 20 00 	ta  0
    3374:	01 00 00 00 	nop 
    3378:	01 00 00 00 	nop 
    337c:	01 00 00 00 	nop 

00003380 <HW_trap_0x38>:
    3380:	91 d0 20 00 	ta  0
    3384:	01 00 00 00 	nop 
    3388:	01 00 00 00 	nop 
    338c:	01 00 00 00 	nop 

00003390 <HW_trap_0x39>:
    3390:	91 d0 20 00 	ta  0
    3394:	01 00 00 00 	nop 
    3398:	01 00 00 00 	nop 
    339c:	01 00 00 00 	nop 

000033a0 <HW_trap_0x3a>:
    33a0:	91 d0 20 00 	ta  0
    33a4:	01 00 00 00 	nop 
    33a8:	01 00 00 00 	nop 
    33ac:	01 00 00 00 	nop 

000033b0 <HW_trap_0x3b>:
    33b0:	91 d0 20 00 	ta  0
    33b4:	01 00 00 00 	nop 
    33b8:	01 00 00 00 	nop 
    33bc:	01 00 00 00 	nop 

000033c0 <HW_trap_0x3c>:
    33c0:	91 d0 20 00 	ta  0
    33c4:	01 00 00 00 	nop 
    33c8:	01 00 00 00 	nop 
    33cc:	01 00 00 00 	nop 

000033d0 <HW_trap_0x3d>:
    33d0:	91 d0 20 00 	ta  0
    33d4:	01 00 00 00 	nop 
    33d8:	01 00 00 00 	nop 
    33dc:	01 00 00 00 	nop 

000033e0 <HW_trap_0x3e>:
    33e0:	91 d0 20 00 	ta  0
    33e4:	01 00 00 00 	nop 
    33e8:	01 00 00 00 	nop 
    33ec:	01 00 00 00 	nop 

000033f0 <HW_trap_0x3f>:
    33f0:	91 d0 20 00 	ta  0
    33f4:	01 00 00 00 	nop 
    33f8:	01 00 00 00 	nop 
    33fc:	01 00 00 00 	nop 

00003400 <HW_trap_0x40>:
    3400:	91 d0 20 00 	ta  0
    3404:	01 00 00 00 	nop 
    3408:	01 00 00 00 	nop 
    340c:	01 00 00 00 	nop 

00003410 <HW_trap_0x41>:
    3410:	91 d0 20 00 	ta  0
    3414:	01 00 00 00 	nop 
    3418:	01 00 00 00 	nop 
    341c:	01 00 00 00 	nop 

00003420 <HW_trap_0x42>:
    3420:	91 d0 20 00 	ta  0
    3424:	01 00 00 00 	nop 
    3428:	01 00 00 00 	nop 
    342c:	01 00 00 00 	nop 

00003430 <HW_trap_0x43>:
    3430:	91 d0 20 00 	ta  0
    3434:	01 00 00 00 	nop 
    3438:	01 00 00 00 	nop 
    343c:	01 00 00 00 	nop 

00003440 <HW_trap_0x44>:
    3440:	91 d0 20 00 	ta  0
    3444:	01 00 00 00 	nop 
    3448:	01 00 00 00 	nop 
    344c:	01 00 00 00 	nop 

00003450 <HW_trap_0x45>:
    3450:	91 d0 20 00 	ta  0
    3454:	01 00 00 00 	nop 
    3458:	01 00 00 00 	nop 
    345c:	01 00 00 00 	nop 

00003460 <HW_trap_0x46>:
    3460:	91 d0 20 00 	ta  0
    3464:	01 00 00 00 	nop 
    3468:	01 00 00 00 	nop 
    346c:	01 00 00 00 	nop 

00003470 <HW_trap_0x47>:
    3470:	91 d0 20 00 	ta  0
    3474:	01 00 00 00 	nop 
    3478:	01 00 00 00 	nop 
    347c:	01 00 00 00 	nop 

00003480 <HW_trap_0x48>:
    3480:	91 d0 20 00 	ta  0
    3484:	01 00 00 00 	nop 
    3488:	01 00 00 00 	nop 
    348c:	01 00 00 00 	nop 

00003490 <HW_trap_0x49>:
    3490:	91 d0 20 00 	ta  0
    3494:	01 00 00 00 	nop 
    3498:	01 00 00 00 	nop 
    349c:	01 00 00 00 	nop 

000034a0 <HW_trap_0x4a>:
    34a0:	91 d0 20 00 	ta  0
    34a4:	01 00 00 00 	nop 
    34a8:	01 00 00 00 	nop 
    34ac:	01 00 00 00 	nop 

000034b0 <HW_trap_0x4b>:
    34b0:	91 d0 20 00 	ta  0
    34b4:	01 00 00 00 	nop 
    34b8:	01 00 00 00 	nop 
    34bc:	01 00 00 00 	nop 

000034c0 <HW_trap_0x4c>:
    34c0:	91 d0 20 00 	ta  0
    34c4:	01 00 00 00 	nop 
    34c8:	01 00 00 00 	nop 
    34cc:	01 00 00 00 	nop 

000034d0 <HW_trap_0x4d>:
    34d0:	91 d0 20 00 	ta  0
    34d4:	01 00 00 00 	nop 
    34d8:	01 00 00 00 	nop 
    34dc:	01 00 00 00 	nop 

000034e0 <HW_trap_0x4e>:
    34e0:	91 d0 20 00 	ta  0
    34e4:	01 00 00 00 	nop 
    34e8:	01 00 00 00 	nop 
    34ec:	01 00 00 00 	nop 

000034f0 <HW_trap_0x4f>:
    34f0:	91 d0 20 00 	ta  0
    34f4:	01 00 00 00 	nop 
    34f8:	01 00 00 00 	nop 
    34fc:	01 00 00 00 	nop 

00003500 <HW_trap_0x50>:
    3500:	91 d0 20 00 	ta  0
    3504:	01 00 00 00 	nop 
    3508:	01 00 00 00 	nop 
    350c:	01 00 00 00 	nop 

00003510 <HW_trap_0x51>:
    3510:	91 d0 20 00 	ta  0
    3514:	01 00 00 00 	nop 
    3518:	01 00 00 00 	nop 
    351c:	01 00 00 00 	nop 

00003520 <HW_trap_0x52>:
    3520:	91 d0 20 00 	ta  0
    3524:	01 00 00 00 	nop 
    3528:	01 00 00 00 	nop 
    352c:	01 00 00 00 	nop 

00003530 <HW_trap_0x53>:
    3530:	91 d0 20 00 	ta  0
    3534:	01 00 00 00 	nop 
    3538:	01 00 00 00 	nop 
    353c:	01 00 00 00 	nop 

00003540 <HW_trap_0x54>:
    3540:	91 d0 20 00 	ta  0
    3544:	01 00 00 00 	nop 
    3548:	01 00 00 00 	nop 
    354c:	01 00 00 00 	nop 

00003550 <HW_trap_0x55>:
    3550:	91 d0 20 00 	ta  0
    3554:	01 00 00 00 	nop 
    3558:	01 00 00 00 	nop 
    355c:	01 00 00 00 	nop 

00003560 <HW_trap_0x56>:
    3560:	91 d0 20 00 	ta  0
    3564:	01 00 00 00 	nop 
    3568:	01 00 00 00 	nop 
    356c:	01 00 00 00 	nop 

00003570 <HW_trap_0x57>:
    3570:	91 d0 20 00 	ta  0
    3574:	01 00 00 00 	nop 
    3578:	01 00 00 00 	nop 
    357c:	01 00 00 00 	nop 

00003580 <HW_trap_0x58>:
    3580:	91 d0 20 00 	ta  0
    3584:	01 00 00 00 	nop 
    3588:	01 00 00 00 	nop 
    358c:	01 00 00 00 	nop 

00003590 <HW_trap_0x59>:
    3590:	91 d0 20 00 	ta  0
    3594:	01 00 00 00 	nop 
    3598:	01 00 00 00 	nop 
    359c:	01 00 00 00 	nop 

000035a0 <HW_trap_0x5a>:
    35a0:	91 d0 20 00 	ta  0
    35a4:	01 00 00 00 	nop 
    35a8:	01 00 00 00 	nop 
    35ac:	01 00 00 00 	nop 

000035b0 <HW_trap_0x5b>:
    35b0:	91 d0 20 00 	ta  0
    35b4:	01 00 00 00 	nop 
    35b8:	01 00 00 00 	nop 
    35bc:	01 00 00 00 	nop 

000035c0 <HW_trap_0x5c>:
    35c0:	91 d0 20 00 	ta  0
    35c4:	01 00 00 00 	nop 
    35c8:	01 00 00 00 	nop 
    35cc:	01 00 00 00 	nop 

000035d0 <HW_trap_0x5d>:
    35d0:	91 d0 20 00 	ta  0
    35d4:	01 00 00 00 	nop 
    35d8:	01 00 00 00 	nop 
    35dc:	01 00 00 00 	nop 

000035e0 <HW_trap_0x5e>:
    35e0:	91 d0 20 00 	ta  0
    35e4:	01 00 00 00 	nop 
    35e8:	01 00 00 00 	nop 
    35ec:	01 00 00 00 	nop 

000035f0 <HW_trap_0x5f>:
    35f0:	91 d0 20 00 	ta  0
    35f4:	01 00 00 00 	nop 
    35f8:	01 00 00 00 	nop 
    35fc:	01 00 00 00 	nop 

00003600 <HW_trap_0x60>:
    3600:	91 d0 20 00 	ta  0
    3604:	01 00 00 00 	nop 
    3608:	01 00 00 00 	nop 
    360c:	01 00 00 00 	nop 

00003610 <HW_trap_0x61>:
    3610:	91 d0 20 00 	ta  0
    3614:	01 00 00 00 	nop 
    3618:	01 00 00 00 	nop 
    361c:	01 00 00 00 	nop 

00003620 <HW_trap_0x62>:
    3620:	91 d0 20 00 	ta  0
    3624:	01 00 00 00 	nop 
    3628:	01 00 00 00 	nop 
    362c:	01 00 00 00 	nop 

00003630 <HW_trap_0x63>:
    3630:	91 d0 20 00 	ta  0
    3634:	01 00 00 00 	nop 
    3638:	01 00 00 00 	nop 
    363c:	01 00 00 00 	nop 

00003640 <HW_trap_0x64>:
    3640:	91 d0 20 00 	ta  0
    3644:	01 00 00 00 	nop 
    3648:	01 00 00 00 	nop 
    364c:	01 00 00 00 	nop 

00003650 <HW_trap_0x65>:
    3650:	91 d0 20 00 	ta  0
    3654:	01 00 00 00 	nop 
    3658:	01 00 00 00 	nop 
    365c:	01 00 00 00 	nop 

00003660 <HW_trap_0x66>:
    3660:	91 d0 20 00 	ta  0
    3664:	01 00 00 00 	nop 
    3668:	01 00 00 00 	nop 
    366c:	01 00 00 00 	nop 

00003670 <HW_trap_0x67>:
    3670:	91 d0 20 00 	ta  0
    3674:	01 00 00 00 	nop 
    3678:	01 00 00 00 	nop 
    367c:	01 00 00 00 	nop 

00003680 <HW_trap_0x68>:
    3680:	91 d0 20 00 	ta  0
    3684:	01 00 00 00 	nop 
    3688:	01 00 00 00 	nop 
    368c:	01 00 00 00 	nop 

00003690 <HW_trap_0x69>:
    3690:	91 d0 20 00 	ta  0
    3694:	01 00 00 00 	nop 
    3698:	01 00 00 00 	nop 
    369c:	01 00 00 00 	nop 

000036a0 <HW_trap_0x6a>:
    36a0:	91 d0 20 00 	ta  0
    36a4:	01 00 00 00 	nop 
    36a8:	01 00 00 00 	nop 
    36ac:	01 00 00 00 	nop 

000036b0 <HW_trap_0x6b>:
    36b0:	91 d0 20 00 	ta  0
    36b4:	01 00 00 00 	nop 
    36b8:	01 00 00 00 	nop 
    36bc:	01 00 00 00 	nop 

000036c0 <HW_trap_0x6c>:
    36c0:	91 d0 20 00 	ta  0
    36c4:	01 00 00 00 	nop 
    36c8:	01 00 00 00 	nop 
    36cc:	01 00 00 00 	nop 

000036d0 <HW_trap_0x6d>:
    36d0:	91 d0 20 00 	ta  0
    36d4:	01 00 00 00 	nop 
    36d8:	01 00 00 00 	nop 
    36dc:	01 00 00 00 	nop 

000036e0 <HW_trap_0x6e>:
    36e0:	91 d0 20 00 	ta  0
    36e4:	01 00 00 00 	nop 
    36e8:	01 00 00 00 	nop 
    36ec:	01 00 00 00 	nop 

000036f0 <HW_trap_0x6f>:
    36f0:	91 d0 20 00 	ta  0
    36f4:	01 00 00 00 	nop 
    36f8:	01 00 00 00 	nop 
    36fc:	01 00 00 00 	nop 

00003700 <HW_trap_0x70>:
    3700:	91 d0 20 00 	ta  0
    3704:	01 00 00 00 	nop 
    3708:	01 00 00 00 	nop 
    370c:	01 00 00 00 	nop 

00003710 <HW_trap_0x71>:
    3710:	91 d0 20 00 	ta  0
    3714:	01 00 00 00 	nop 
    3718:	01 00 00 00 	nop 
    371c:	01 00 00 00 	nop 

00003720 <HW_trap_0x72>:
    3720:	91 d0 20 00 	ta  0
    3724:	01 00 00 00 	nop 
    3728:	01 00 00 00 	nop 
    372c:	01 00 00 00 	nop 

00003730 <HW_trap_0x73>:
    3730:	91 d0 20 00 	ta  0
    3734:	01 00 00 00 	nop 
    3738:	01 00 00 00 	nop 
    373c:	01 00 00 00 	nop 

00003740 <HW_trap_0x74>:
    3740:	91 d0 20 00 	ta  0
    3744:	01 00 00 00 	nop 
    3748:	01 00 00 00 	nop 
    374c:	01 00 00 00 	nop 

00003750 <HW_trap_0x75>:
    3750:	91 d0 20 00 	ta  0
    3754:	01 00 00 00 	nop 
    3758:	01 00 00 00 	nop 
    375c:	01 00 00 00 	nop 

00003760 <HW_trap_0x76>:
    3760:	91 d0 20 00 	ta  0
    3764:	01 00 00 00 	nop 
    3768:	01 00 00 00 	nop 
    376c:	01 00 00 00 	nop 

00003770 <HW_trap_0x77>:
    3770:	91 d0 20 00 	ta  0
    3774:	01 00 00 00 	nop 
    3778:	01 00 00 00 	nop 
    377c:	01 00 00 00 	nop 

00003780 <HW_trap_0x78>:
    3780:	91 d0 20 00 	ta  0
    3784:	01 00 00 00 	nop 
    3788:	01 00 00 00 	nop 
    378c:	01 00 00 00 	nop 

00003790 <HW_trap_0x79>:
    3790:	91 d0 20 00 	ta  0
    3794:	01 00 00 00 	nop 
    3798:	01 00 00 00 	nop 
    379c:	01 00 00 00 	nop 

000037a0 <HW_trap_0x7a>:
    37a0:	91 d0 20 00 	ta  0
    37a4:	01 00 00 00 	nop 
    37a8:	01 00 00 00 	nop 
    37ac:	01 00 00 00 	nop 

000037b0 <HW_trap_0x7b>:
    37b0:	91 d0 20 00 	ta  0
    37b4:	01 00 00 00 	nop 
    37b8:	01 00 00 00 	nop 
    37bc:	01 00 00 00 	nop 

000037c0 <HW_trap_0x7c>:
    37c0:	91 d0 20 00 	ta  0
    37c4:	01 00 00 00 	nop 
    37c8:	01 00 00 00 	nop 
    37cc:	01 00 00 00 	nop 

000037d0 <HW_trap_0x7d>:
    37d0:	91 d0 20 00 	ta  0
    37d4:	01 00 00 00 	nop 
    37d8:	01 00 00 00 	nop 
    37dc:	01 00 00 00 	nop 

000037e0 <HW_trap_0x7e>:
    37e0:	91 d0 20 00 	ta  0
    37e4:	01 00 00 00 	nop 
    37e8:	01 00 00 00 	nop 
    37ec:	01 00 00 00 	nop 

000037f0 <HW_trap_0x7f>:
    37f0:	91 d0 20 00 	ta  0
    37f4:	01 00 00 00 	nop 
    37f8:	01 00 00 00 	nop 
    37fc:	01 00 00 00 	nop 

00003800 <SW_trap_0x80>:
    3800:	91 d0 20 00 	ta  0
    3804:	01 00 00 00 	nop 
    3808:	01 00 00 00 	nop 
    380c:	01 00 00 00 	nop 

00003810 <SW_trap_0x81>:
    3810:	91 d0 20 00 	ta  0
    3814:	01 00 00 00 	nop 
    3818:	01 00 00 00 	nop 
    381c:	01 00 00 00 	nop 

00003820 <SW_trap_0x82>:
    3820:	91 d0 20 00 	ta  0
    3824:	01 00 00 00 	nop 
    3828:	01 00 00 00 	nop 
    382c:	01 00 00 00 	nop 

00003830 <SW_trap_0x83>:
    3830:	91 d0 20 00 	ta  0
    3834:	01 00 00 00 	nop 
    3838:	01 00 00 00 	nop 
    383c:	01 00 00 00 	nop 

00003840 <SW_trap_0x84>:
    3840:	91 d0 20 00 	ta  0
    3844:	01 00 00 00 	nop 
    3848:	01 00 00 00 	nop 
    384c:	01 00 00 00 	nop 

00003850 <SW_trap_0x85>:
    3850:	91 d0 20 00 	ta  0
    3854:	01 00 00 00 	nop 
    3858:	01 00 00 00 	nop 
    385c:	01 00 00 00 	nop 

00003860 <SW_trap_0x86>:
    3860:	91 d0 20 00 	ta  0
    3864:	01 00 00 00 	nop 
    3868:	01 00 00 00 	nop 
    386c:	01 00 00 00 	nop 

00003870 <SW_trap_0x87>:
    3870:	91 d0 20 00 	ta  0
    3874:	01 00 00 00 	nop 
    3878:	01 00 00 00 	nop 
    387c:	01 00 00 00 	nop 

00003880 <SW_trap_0x88>:
    3880:	91 d0 20 00 	ta  0
    3884:	01 00 00 00 	nop 
    3888:	01 00 00 00 	nop 
    388c:	01 00 00 00 	nop 

00003890 <SW_trap_0x89>:
    3890:	91 d0 20 00 	ta  0
    3894:	01 00 00 00 	nop 
    3898:	01 00 00 00 	nop 
    389c:	01 00 00 00 	nop 

000038a0 <SW_trap_0x8a>:
    38a0:	91 d0 20 00 	ta  0
    38a4:	01 00 00 00 	nop 
    38a8:	01 00 00 00 	nop 
    38ac:	01 00 00 00 	nop 

000038b0 <SW_trap_0x8b>:
    38b0:	91 d0 20 00 	ta  0
    38b4:	01 00 00 00 	nop 
    38b8:	01 00 00 00 	nop 
    38bc:	01 00 00 00 	nop 

000038c0 <SW_trap_0x8c>:
    38c0:	91 d0 20 00 	ta  0
    38c4:	01 00 00 00 	nop 
    38c8:	01 00 00 00 	nop 
    38cc:	01 00 00 00 	nop 

000038d0 <SW_trap_0x8d>:
    38d0:	91 d0 20 00 	ta  0
    38d4:	01 00 00 00 	nop 
    38d8:	01 00 00 00 	nop 
    38dc:	01 00 00 00 	nop 

000038e0 <SW_trap_0x8e>:
    38e0:	91 d0 20 00 	ta  0
    38e4:	01 00 00 00 	nop 
    38e8:	01 00 00 00 	nop 
    38ec:	01 00 00 00 	nop 

000038f0 <SW_trap_0x8f>:
    38f0:	91 d0 20 00 	ta  0
    38f4:	01 00 00 00 	nop 
    38f8:	01 00 00 00 	nop 
    38fc:	01 00 00 00 	nop 

00003900 <SW_trap_0x90>:
    3900:	91 d0 20 00 	ta  0
    3904:	01 00 00 00 	nop 
    3908:	01 00 00 00 	nop 
    390c:	01 00 00 00 	nop 

00003910 <SW_trap_0x91>:
    3910:	91 d0 20 00 	ta  0
    3914:	01 00 00 00 	nop 
    3918:	01 00 00 00 	nop 
    391c:	01 00 00 00 	nop 

00003920 <SW_trap_0x92>:
    3920:	91 d0 20 00 	ta  0
    3924:	01 00 00 00 	nop 
    3928:	01 00 00 00 	nop 
    392c:	01 00 00 00 	nop 

00003930 <SW_trap_0x93>:
    3930:	91 d0 20 00 	ta  0
    3934:	01 00 00 00 	nop 
    3938:	01 00 00 00 	nop 
    393c:	01 00 00 00 	nop 

00003940 <SW_trap_0x94>:
    3940:	91 d0 20 00 	ta  0
    3944:	01 00 00 00 	nop 
    3948:	01 00 00 00 	nop 
    394c:	01 00 00 00 	nop 

00003950 <SW_trap_0x95>:
    3950:	91 d0 20 00 	ta  0
    3954:	01 00 00 00 	nop 
    3958:	01 00 00 00 	nop 
    395c:	01 00 00 00 	nop 

00003960 <SW_trap_0x96>:
    3960:	91 d0 20 00 	ta  0
    3964:	01 00 00 00 	nop 
    3968:	01 00 00 00 	nop 
    396c:	01 00 00 00 	nop 

00003970 <SW_trap_0x97>:
    3970:	91 d0 20 00 	ta  0
    3974:	01 00 00 00 	nop 
    3978:	01 00 00 00 	nop 
    397c:	01 00 00 00 	nop 

00003980 <SW_trap_0x98>:
    3980:	91 d0 20 00 	ta  0
    3984:	01 00 00 00 	nop 
    3988:	01 00 00 00 	nop 
    398c:	01 00 00 00 	nop 

00003990 <SW_trap_0x99>:
    3990:	91 d0 20 00 	ta  0
    3994:	01 00 00 00 	nop 
    3998:	01 00 00 00 	nop 
    399c:	01 00 00 00 	nop 

000039a0 <SW_trap_0x9a>:
    39a0:	91 d0 20 00 	ta  0
    39a4:	01 00 00 00 	nop 
    39a8:	01 00 00 00 	nop 
    39ac:	01 00 00 00 	nop 

000039b0 <SW_trap_0x9b>:
    39b0:	91 d0 20 00 	ta  0
    39b4:	01 00 00 00 	nop 
    39b8:	01 00 00 00 	nop 
    39bc:	01 00 00 00 	nop 

000039c0 <SW_trap_0x9c>:
    39c0:	91 d0 20 00 	ta  0
    39c4:	01 00 00 00 	nop 
    39c8:	01 00 00 00 	nop 
    39cc:	01 00 00 00 	nop 

000039d0 <SW_trap_0x9d>:
    39d0:	91 d0 20 00 	ta  0
    39d4:	01 00 00 00 	nop 
    39d8:	01 00 00 00 	nop 
    39dc:	01 00 00 00 	nop 

000039e0 <SW_trap_0x9e>:
    39e0:	91 d0 20 00 	ta  0
    39e4:	01 00 00 00 	nop 
    39e8:	01 00 00 00 	nop 
    39ec:	01 00 00 00 	nop 

000039f0 <SW_trap_0x9f>:
    39f0:	91 d0 20 00 	ta  0
    39f4:	01 00 00 00 	nop 
    39f8:	01 00 00 00 	nop 
    39fc:	01 00 00 00 	nop 

00003a00 <SW_trap_0xa0>:
    3a00:	91 d0 20 00 	ta  0
    3a04:	01 00 00 00 	nop 
    3a08:	01 00 00 00 	nop 
    3a0c:	01 00 00 00 	nop 

00003a10 <SW_trap_0xa1>:
    3a10:	91 d0 20 00 	ta  0
    3a14:	01 00 00 00 	nop 
    3a18:	01 00 00 00 	nop 
    3a1c:	01 00 00 00 	nop 

00003a20 <SW_trap_0xa2>:
    3a20:	91 d0 20 00 	ta  0
    3a24:	01 00 00 00 	nop 
    3a28:	01 00 00 00 	nop 
    3a2c:	01 00 00 00 	nop 

00003a30 <SW_trap_0xa3>:
    3a30:	91 d0 20 00 	ta  0
    3a34:	01 00 00 00 	nop 
    3a38:	01 00 00 00 	nop 
    3a3c:	01 00 00 00 	nop 

00003a40 <SW_trap_0xa4>:
    3a40:	91 d0 20 00 	ta  0
    3a44:	01 00 00 00 	nop 
    3a48:	01 00 00 00 	nop 
    3a4c:	01 00 00 00 	nop 

00003a50 <SW_trap_0xa5>:
    3a50:	91 d0 20 00 	ta  0
    3a54:	01 00 00 00 	nop 
    3a58:	01 00 00 00 	nop 
    3a5c:	01 00 00 00 	nop 

00003a60 <SW_trap_0xa6>:
    3a60:	91 d0 20 00 	ta  0
    3a64:	01 00 00 00 	nop 
    3a68:	01 00 00 00 	nop 
    3a6c:	01 00 00 00 	nop 

00003a70 <SW_trap_0xa7>:
    3a70:	91 d0 20 00 	ta  0
    3a74:	01 00 00 00 	nop 
    3a78:	01 00 00 00 	nop 
    3a7c:	01 00 00 00 	nop 

00003a80 <SW_trap_0xa8>:
    3a80:	91 d0 20 00 	ta  0
    3a84:	01 00 00 00 	nop 
    3a88:	01 00 00 00 	nop 
    3a8c:	01 00 00 00 	nop 

00003a90 <SW_trap_0xa9>:
    3a90:	91 d0 20 00 	ta  0
    3a94:	01 00 00 00 	nop 
    3a98:	01 00 00 00 	nop 
    3a9c:	01 00 00 00 	nop 

00003aa0 <SW_trap_0xaa>:
    3aa0:	91 d0 20 00 	ta  0
    3aa4:	01 00 00 00 	nop 
    3aa8:	01 00 00 00 	nop 
    3aac:	01 00 00 00 	nop 

00003ab0 <SW_trap_0xab>:
    3ab0:	91 d0 20 00 	ta  0
    3ab4:	01 00 00 00 	nop 
    3ab8:	01 00 00 00 	nop 
    3abc:	01 00 00 00 	nop 

00003ac0 <SW_trap_0xac>:
    3ac0:	91 d0 20 00 	ta  0
    3ac4:	01 00 00 00 	nop 
    3ac8:	01 00 00 00 	nop 
    3acc:	01 00 00 00 	nop 

00003ad0 <SW_trap_0xad>:
    3ad0:	91 d0 20 00 	ta  0
    3ad4:	01 00 00 00 	nop 
    3ad8:	01 00 00 00 	nop 
    3adc:	01 00 00 00 	nop 

00003ae0 <SW_trap_0xae>:
    3ae0:	91 d0 20 00 	ta  0
    3ae4:	01 00 00 00 	nop 
    3ae8:	01 00 00 00 	nop 
    3aec:	01 00 00 00 	nop 

00003af0 <SW_trap_0xaf>:
    3af0:	91 d0 20 00 	ta  0
    3af4:	01 00 00 00 	nop 
    3af8:	01 00 00 00 	nop 
    3afc:	01 00 00 00 	nop 

00003b00 <SW_trap_0xb0>:
    3b00:	91 d0 20 00 	ta  0
    3b04:	01 00 00 00 	nop 
    3b08:	01 00 00 00 	nop 
    3b0c:	01 00 00 00 	nop 

00003b10 <SW_trap_0xb1>:
    3b10:	91 d0 20 00 	ta  0
    3b14:	01 00 00 00 	nop 
    3b18:	01 00 00 00 	nop 
    3b1c:	01 00 00 00 	nop 

00003b20 <SW_trap_0xb2>:
    3b20:	91 d0 20 00 	ta  0
    3b24:	01 00 00 00 	nop 
    3b28:	01 00 00 00 	nop 
    3b2c:	01 00 00 00 	nop 

00003b30 <SW_trap_0xb3>:
    3b30:	91 d0 20 00 	ta  0
    3b34:	01 00 00 00 	nop 
    3b38:	01 00 00 00 	nop 
    3b3c:	01 00 00 00 	nop 

00003b40 <SW_trap_0xb4>:
    3b40:	91 d0 20 00 	ta  0
    3b44:	01 00 00 00 	nop 
    3b48:	01 00 00 00 	nop 
    3b4c:	01 00 00 00 	nop 

00003b50 <SW_trap_0xb5>:
    3b50:	91 d0 20 00 	ta  0
    3b54:	01 00 00 00 	nop 
    3b58:	01 00 00 00 	nop 
    3b5c:	01 00 00 00 	nop 

00003b60 <SW_trap_0xb6>:
    3b60:	91 d0 20 00 	ta  0
    3b64:	01 00 00 00 	nop 
    3b68:	01 00 00 00 	nop 
    3b6c:	01 00 00 00 	nop 

00003b70 <SW_trap_0xb7>:
    3b70:	91 d0 20 00 	ta  0
    3b74:	01 00 00 00 	nop 
    3b78:	01 00 00 00 	nop 
    3b7c:	01 00 00 00 	nop 

00003b80 <SW_trap_0xb8>:
    3b80:	91 d0 20 00 	ta  0
    3b84:	01 00 00 00 	nop 
    3b88:	01 00 00 00 	nop 
    3b8c:	01 00 00 00 	nop 

00003b90 <SW_trap_0xb9>:
    3b90:	91 d0 20 00 	ta  0
    3b94:	01 00 00 00 	nop 
    3b98:	01 00 00 00 	nop 
    3b9c:	01 00 00 00 	nop 

00003ba0 <SW_trap_0xba>:
    3ba0:	91 d0 20 00 	ta  0
    3ba4:	01 00 00 00 	nop 
    3ba8:	01 00 00 00 	nop 
    3bac:	01 00 00 00 	nop 

00003bb0 <SW_trap_0xbb>:
    3bb0:	91 d0 20 00 	ta  0
    3bb4:	01 00 00 00 	nop 
    3bb8:	01 00 00 00 	nop 
    3bbc:	01 00 00 00 	nop 

00003bc0 <SW_trap_0xbc>:
    3bc0:	91 d0 20 00 	ta  0
    3bc4:	01 00 00 00 	nop 
    3bc8:	01 00 00 00 	nop 
    3bcc:	01 00 00 00 	nop 

00003bd0 <SW_trap_0xbd>:
    3bd0:	91 d0 20 00 	ta  0
    3bd4:	01 00 00 00 	nop 
    3bd8:	01 00 00 00 	nop 
    3bdc:	01 00 00 00 	nop 

00003be0 <SW_trap_0xbe>:
    3be0:	91 d0 20 00 	ta  0
    3be4:	01 00 00 00 	nop 
    3be8:	01 00 00 00 	nop 
    3bec:	01 00 00 00 	nop 

00003bf0 <SW_trap_0xbf>:
    3bf0:	91 d0 20 00 	ta  0
    3bf4:	01 00 00 00 	nop 
    3bf8:	01 00 00 00 	nop 
    3bfc:	01 00 00 00 	nop 

00003c00 <SW_trap_0xc0>:
    3c00:	91 d0 20 00 	ta  0
    3c04:	01 00 00 00 	nop 
    3c08:	01 00 00 00 	nop 
    3c0c:	01 00 00 00 	nop 

00003c10 <SW_trap_0xc1>:
    3c10:	91 d0 20 00 	ta  0
    3c14:	01 00 00 00 	nop 
    3c18:	01 00 00 00 	nop 
    3c1c:	01 00 00 00 	nop 

00003c20 <SW_trap_0xc2>:
    3c20:	91 d0 20 00 	ta  0
    3c24:	01 00 00 00 	nop 
    3c28:	01 00 00 00 	nop 
    3c2c:	01 00 00 00 	nop 

00003c30 <SW_trap_0xc3>:
    3c30:	91 d0 20 00 	ta  0
    3c34:	01 00 00 00 	nop 
    3c38:	01 00 00 00 	nop 
    3c3c:	01 00 00 00 	nop 

00003c40 <SW_trap_0xc4>:
    3c40:	91 d0 20 00 	ta  0
    3c44:	01 00 00 00 	nop 
    3c48:	01 00 00 00 	nop 
    3c4c:	01 00 00 00 	nop 

00003c50 <SW_trap_0xc5>:
    3c50:	91 d0 20 00 	ta  0
    3c54:	01 00 00 00 	nop 
    3c58:	01 00 00 00 	nop 
    3c5c:	01 00 00 00 	nop 

00003c60 <SW_trap_0xc6>:
    3c60:	91 d0 20 00 	ta  0
    3c64:	01 00 00 00 	nop 
    3c68:	01 00 00 00 	nop 
    3c6c:	01 00 00 00 	nop 

00003c70 <SW_trap_0xc7>:
    3c70:	91 d0 20 00 	ta  0
    3c74:	01 00 00 00 	nop 
    3c78:	01 00 00 00 	nop 
    3c7c:	01 00 00 00 	nop 

00003c80 <SW_trap_0xc8>:
    3c80:	91 d0 20 00 	ta  0
    3c84:	01 00 00 00 	nop 
    3c88:	01 00 00 00 	nop 
    3c8c:	01 00 00 00 	nop 

00003c90 <SW_trap_0xc9>:
    3c90:	91 d0 20 00 	ta  0
    3c94:	01 00 00 00 	nop 
    3c98:	01 00 00 00 	nop 
    3c9c:	01 00 00 00 	nop 

00003ca0 <SW_trap_0xca>:
    3ca0:	91 d0 20 00 	ta  0
    3ca4:	01 00 00 00 	nop 
    3ca8:	01 00 00 00 	nop 
    3cac:	01 00 00 00 	nop 

00003cb0 <SW_trap_0xcb>:
    3cb0:	91 d0 20 00 	ta  0
    3cb4:	01 00 00 00 	nop 
    3cb8:	01 00 00 00 	nop 
    3cbc:	01 00 00 00 	nop 

00003cc0 <SW_trap_0xcc>:
    3cc0:	91 d0 20 00 	ta  0
    3cc4:	01 00 00 00 	nop 
    3cc8:	01 00 00 00 	nop 
    3ccc:	01 00 00 00 	nop 

00003cd0 <SW_trap_0xcd>:
    3cd0:	91 d0 20 00 	ta  0
    3cd4:	01 00 00 00 	nop 
    3cd8:	01 00 00 00 	nop 
    3cdc:	01 00 00 00 	nop 

00003ce0 <SW_trap_0xce>:
    3ce0:	91 d0 20 00 	ta  0
    3ce4:	01 00 00 00 	nop 
    3ce8:	01 00 00 00 	nop 
    3cec:	01 00 00 00 	nop 

00003cf0 <SW_trap_0xcf>:
    3cf0:	91 d0 20 00 	ta  0
    3cf4:	01 00 00 00 	nop 
    3cf8:	01 00 00 00 	nop 
    3cfc:	01 00 00 00 	nop 

00003d00 <SW_trap_0xd0>:
    3d00:	91 d0 20 00 	ta  0
    3d04:	01 00 00 00 	nop 
    3d08:	01 00 00 00 	nop 
    3d0c:	01 00 00 00 	nop 

00003d10 <SW_trap_0xd1>:
    3d10:	91 d0 20 00 	ta  0
    3d14:	01 00 00 00 	nop 
    3d18:	01 00 00 00 	nop 
    3d1c:	01 00 00 00 	nop 

00003d20 <SW_trap_0xd2>:
    3d20:	91 d0 20 00 	ta  0
    3d24:	01 00 00 00 	nop 
    3d28:	01 00 00 00 	nop 
    3d2c:	01 00 00 00 	nop 

00003d30 <SW_trap_0xd3>:
    3d30:	91 d0 20 00 	ta  0
    3d34:	01 00 00 00 	nop 
    3d38:	01 00 00 00 	nop 
    3d3c:	01 00 00 00 	nop 

00003d40 <SW_trap_0xd4>:
    3d40:	91 d0 20 00 	ta  0
    3d44:	01 00 00 00 	nop 
    3d48:	01 00 00 00 	nop 
    3d4c:	01 00 00 00 	nop 

00003d50 <SW_trap_0xd5>:
    3d50:	91 d0 20 00 	ta  0
    3d54:	01 00 00 00 	nop 
    3d58:	01 00 00 00 	nop 
    3d5c:	01 00 00 00 	nop 

00003d60 <SW_trap_0xd6>:
    3d60:	91 d0 20 00 	ta  0
    3d64:	01 00 00 00 	nop 
    3d68:	01 00 00 00 	nop 
    3d6c:	01 00 00 00 	nop 

00003d70 <SW_trap_0xd7>:
    3d70:	91 d0 20 00 	ta  0
    3d74:	01 00 00 00 	nop 
    3d78:	01 00 00 00 	nop 
    3d7c:	01 00 00 00 	nop 

00003d80 <SW_trap_0xd8>:
    3d80:	91 d0 20 00 	ta  0
    3d84:	01 00 00 00 	nop 
    3d88:	01 00 00 00 	nop 
    3d8c:	01 00 00 00 	nop 

00003d90 <SW_trap_0xd9>:
    3d90:	91 d0 20 00 	ta  0
    3d94:	01 00 00 00 	nop 
    3d98:	01 00 00 00 	nop 
    3d9c:	01 00 00 00 	nop 

00003da0 <SW_trap_0xda>:
    3da0:	91 d0 20 00 	ta  0
    3da4:	01 00 00 00 	nop 
    3da8:	01 00 00 00 	nop 
    3dac:	01 00 00 00 	nop 

00003db0 <SW_trap_0xdb>:
    3db0:	91 d0 20 00 	ta  0
    3db4:	01 00 00 00 	nop 
    3db8:	01 00 00 00 	nop 
    3dbc:	01 00 00 00 	nop 

00003dc0 <SW_trap_0xdc>:
    3dc0:	91 d0 20 00 	ta  0
    3dc4:	01 00 00 00 	nop 
    3dc8:	01 00 00 00 	nop 
    3dcc:	01 00 00 00 	nop 

00003dd0 <SW_trap_0xdd>:
    3dd0:	91 d0 20 00 	ta  0
    3dd4:	01 00 00 00 	nop 
    3dd8:	01 00 00 00 	nop 
    3ddc:	01 00 00 00 	nop 

00003de0 <SW_trap_0xde>:
    3de0:	91 d0 20 00 	ta  0
    3de4:	01 00 00 00 	nop 
    3de8:	01 00 00 00 	nop 
    3dec:	01 00 00 00 	nop 

00003df0 <SW_trap_0xdf>:
    3df0:	91 d0 20 00 	ta  0
    3df4:	01 00 00 00 	nop 
    3df8:	01 00 00 00 	nop 
    3dfc:	01 00 00 00 	nop 

00003e00 <SW_trap_0xe0>:
    3e00:	91 d0 20 00 	ta  0
    3e04:	01 00 00 00 	nop 
    3e08:	01 00 00 00 	nop 
    3e0c:	01 00 00 00 	nop 

00003e10 <SW_trap_0xe1>:
    3e10:	91 d0 20 00 	ta  0
    3e14:	01 00 00 00 	nop 
    3e18:	01 00 00 00 	nop 
    3e1c:	01 00 00 00 	nop 

00003e20 <SW_trap_0xe2>:
    3e20:	91 d0 20 00 	ta  0
    3e24:	01 00 00 00 	nop 
    3e28:	01 00 00 00 	nop 
    3e2c:	01 00 00 00 	nop 

00003e30 <SW_trap_0xe3>:
    3e30:	91 d0 20 00 	ta  0
    3e34:	01 00 00 00 	nop 
    3e38:	01 00 00 00 	nop 
    3e3c:	01 00 00 00 	nop 

00003e40 <SW_trap_0xe4>:
    3e40:	91 d0 20 00 	ta  0
    3e44:	01 00 00 00 	nop 
    3e48:	01 00 00 00 	nop 
    3e4c:	01 00 00 00 	nop 

00003e50 <SW_trap_0xe5>:
    3e50:	91 d0 20 00 	ta  0
    3e54:	01 00 00 00 	nop 
    3e58:	01 00 00 00 	nop 
    3e5c:	01 00 00 00 	nop 

00003e60 <SW_trap_0xe6>:
    3e60:	91 d0 20 00 	ta  0
    3e64:	01 00 00 00 	nop 
    3e68:	01 00 00 00 	nop 
    3e6c:	01 00 00 00 	nop 

00003e70 <SW_trap_0xe7>:
    3e70:	91 d0 20 00 	ta  0
    3e74:	01 00 00 00 	nop 
    3e78:	01 00 00 00 	nop 
    3e7c:	01 00 00 00 	nop 

00003e80 <SW_trap_0xe8>:
    3e80:	91 d0 20 00 	ta  0
    3e84:	01 00 00 00 	nop 
    3e88:	01 00 00 00 	nop 
    3e8c:	01 00 00 00 	nop 

00003e90 <SW_trap_0xe9>:
    3e90:	91 d0 20 00 	ta  0
    3e94:	01 00 00 00 	nop 
    3e98:	01 00 00 00 	nop 
    3e9c:	01 00 00 00 	nop 

00003ea0 <SW_trap_0xea>:
    3ea0:	91 d0 20 00 	ta  0
    3ea4:	01 00 00 00 	nop 
    3ea8:	01 00 00 00 	nop 
    3eac:	01 00 00 00 	nop 

00003eb0 <SW_trap_0xeb>:
    3eb0:	91 d0 20 00 	ta  0
    3eb4:	01 00 00 00 	nop 
    3eb8:	01 00 00 00 	nop 
    3ebc:	01 00 00 00 	nop 

00003ec0 <SW_trap_0xec>:
    3ec0:	91 d0 20 00 	ta  0
    3ec4:	01 00 00 00 	nop 
    3ec8:	01 00 00 00 	nop 
    3ecc:	01 00 00 00 	nop 

00003ed0 <SW_trap_0xed>:
    3ed0:	91 d0 20 00 	ta  0
    3ed4:	01 00 00 00 	nop 
    3ed8:	01 00 00 00 	nop 
    3edc:	01 00 00 00 	nop 

00003ee0 <SW_trap_0xee>:
    3ee0:	91 d0 20 00 	ta  0
    3ee4:	01 00 00 00 	nop 
    3ee8:	01 00 00 00 	nop 
    3eec:	01 00 00 00 	nop 

00003ef0 <SW_trap_0xef>:
    3ef0:	91 d0 20 00 	ta  0
    3ef4:	01 00 00 00 	nop 
    3ef8:	01 00 00 00 	nop 
    3efc:	01 00 00 00 	nop 

00003f00 <SW_trap_0xf0>:
    3f00:	91 d0 20 00 	ta  0
    3f04:	01 00 00 00 	nop 
    3f08:	01 00 00 00 	nop 
    3f0c:	01 00 00 00 	nop 

00003f10 <SW_trap_0xf1>:
    3f10:	91 d0 20 00 	ta  0
    3f14:	01 00 00 00 	nop 
    3f18:	01 00 00 00 	nop 
    3f1c:	01 00 00 00 	nop 

00003f20 <SW_trap_0xf2>:
    3f20:	91 d0 20 00 	ta  0
    3f24:	01 00 00 00 	nop 
    3f28:	01 00 00 00 	nop 
    3f2c:	01 00 00 00 	nop 

00003f30 <SW_trap_0xf3>:
    3f30:	91 d0 20 00 	ta  0
    3f34:	01 00 00 00 	nop 
    3f38:	01 00 00 00 	nop 
    3f3c:	01 00 00 00 	nop 

00003f40 <SW_trap_0xf4>:
    3f40:	91 d0 20 00 	ta  0
    3f44:	01 00 00 00 	nop 
    3f48:	01 00 00 00 	nop 
    3f4c:	01 00 00 00 	nop 

00003f50 <SW_trap_0xf5>:
    3f50:	91 d0 20 00 	ta  0
    3f54:	01 00 00 00 	nop 
    3f58:	01 00 00 00 	nop 
    3f5c:	01 00 00 00 	nop 

00003f60 <SW_trap_0xf6>:
    3f60:	91 d0 20 00 	ta  0
    3f64:	01 00 00 00 	nop 
    3f68:	01 00 00 00 	nop 
    3f6c:	01 00 00 00 	nop 

00003f70 <SW_trap_0xf7>:
    3f70:	91 d0 20 00 	ta  0
    3f74:	01 00 00 00 	nop 
    3f78:	01 00 00 00 	nop 
    3f7c:	01 00 00 00 	nop 

00003f80 <SW_trap_0xf8>:
    3f80:	91 d0 20 00 	ta  0
    3f84:	01 00 00 00 	nop 
    3f88:	01 00 00 00 	nop 
    3f8c:	01 00 00 00 	nop 

00003f90 <SW_trap_0xf9>:
    3f90:	91 d0 20 00 	ta  0
    3f94:	01 00 00 00 	nop 
    3f98:	01 00 00 00 	nop 
    3f9c:	01 00 00 00 	nop 

00003fa0 <SW_trap_0xfa>:
    3fa0:	91 d0 20 00 	ta  0
    3fa4:	01 00 00 00 	nop 
    3fa8:	01 00 00 00 	nop 
    3fac:	01 00 00 00 	nop 

00003fb0 <SW_trap_0xfb>:
    3fb0:	91 d0 20 00 	ta  0
    3fb4:	01 00 00 00 	nop 
    3fb8:	01 00 00 00 	nop 
    3fbc:	01 00 00 00 	nop 

00003fc0 <SW_trap_0xfc>:
    3fc0:	91 d0 20 00 	ta  0
    3fc4:	01 00 00 00 	nop 
    3fc8:	01 00 00 00 	nop 
    3fcc:	01 00 00 00 	nop 

00003fd0 <SW_trap_0xfd>:
    3fd0:	91 d0 20 00 	ta  0
    3fd4:	01 00 00 00 	nop 
    3fd8:	01 00 00 00 	nop 
    3fdc:	01 00 00 00 	nop 

00003fe0 <SW_trap_0xfe>:
    3fe0:	91 d0 20 00 	ta  0
    3fe4:	01 00 00 00 	nop 
    3fe8:	01 00 00 00 	nop 
    3fec:	01 00 00 00 	nop 
    3ff0:	01 00 00 00 	nop 
    3ff4:	01 00 00 00 	nop 
    3ff8:	00 00 53 54 	unimp  0x5354
    3ffc:	00 00 54 28 	unimp  0x5428
    4000:	00 00 54 28 	unimp  0x5428
    4004:	00 00 54 28 	unimp  0x5428
    4008:	00 00 54 28 	unimp  0x5428
    400c:	00 00 54 28 	unimp  0x5428
    4010:	00 00 54 28 	unimp  0x5428
    4014:	00 00 54 28 	unimp  0x5428
    4018:	00 00 54 28 	unimp  0x5428
    401c:	00 00 54 28 	unimp  0x5428
    4020:	00 00 54 28 	unimp  0x5428
    4024:	00 00 54 28 	unimp  0x5428
    4028:	00 00 54 28 	unimp  0x5428
    402c:	00 00 54 28 	unimp  0x5428
    4030:	00 00 54 28 	unimp  0x5428
    4034:	00 00 54 28 	unimp  0x5428
    4038:	00 00 54 28 	unimp  0x5428
    403c:	00 00 54 28 	unimp  0x5428
    4040:	00 00 54 28 	unimp  0x5428
    4044:	00 00 54 28 	unimp  0x5428
    4048:	00 00 54 28 	unimp  0x5428
    404c:	00 00 54 28 	unimp  0x5428
    4050:	00 00 54 28 	unimp  0x5428
    4054:	00 00 53 f8 	unimp  0x53f8
    4058:	00 00 54 28 	unimp  0x5428
    405c:	00 00 54 28 	unimp  0x5428
    4060:	00 00 54 28 	unimp  0x5428
    4064:	00 00 54 28 	unimp  0x5428
    4068:	00 00 54 28 	unimp  0x5428
    406c:	00 00 54 28 	unimp  0x5428
    4070:	00 00 54 28 	unimp  0x5428
    4074:	00 00 54 28 	unimp  0x5428
    4078:	00 00 53 60 	unimp  0x5360
    407c:	00 00 54 28 	unimp  0x5428
    4080:	00 00 50 c0 	unimp  0x50c0
    4084:	00 00 54 14 	unimp  0x5414
    4088:	00 00 54 28 	unimp  0x5428
    408c:	00 00 54 28 	unimp  0x5428
    4090:	00 00 54 28 	unimp  0x5428
    4094:	00 00 54 28 	unimp  0x5428
    4098:	00 00 54 14 	unimp  0x5414
    409c:	00 00 54 28 	unimp  0x5428
    40a0:	00 00 54 28 	unimp  0x5428
    40a4:	00 00 54 28 	unimp  0x5428
    40a8:	00 00 54 28 	unimp  0x5428
    40ac:	00 00 54 28 	unimp  0x5428
    40b0:	00 00 53 e8 	unimp  0x53e8
    40b4:	00 00 52 f0 	unimp  0x52f0
    40b8:	00 00 54 28 	unimp  0x5428
    40bc:	00 00 54 28 	unimp  0x5428
    40c0:	00 00 51 80 	unimp  0x5180
    40c4:	00 00 54 28 	unimp  0x5428
    40c8:	00 00 54 b0 	unimp  0x54b0
    40cc:	00 00 54 28 	unimp  0x5428
    40d0:	00 00 54 28 	unimp  0x5428
    40d4:	00 00 54 04 	unimp  0x5404
    40d8:	00 00 4e 48 	unimp  0x4e48
    40dc:	00 00 4e 84 	unimp  0x4e84
    40e0:	00 00 4e 84 	unimp  0x4e84
    40e4:	00 00 4e 5c 	unimp  0x4e5c
    40e8:	00 00 4e 84 	unimp  0x4e84
    40ec:	00 00 4e 84 	unimp  0x4e84
    40f0:	00 00 4e 84 	unimp  0x4e84
    40f4:	00 00 4e 84 	unimp  0x4e84
    40f8:	00 00 4e 84 	unimp  0x4e84
    40fc:	00 00 4e 84 	unimp  0x4e84
    4100:	00 00 4e 84 	unimp  0x4e84
    4104:	00 00 4e 34 	unimp  0x4e34
    4108:	00 00 4e 84 	unimp  0x4e84
    410c:	00 00 4e 20 	unimp  0x4e20
    4110:	00 00 4e 84 	unimp  0x4e84
    4114:	00 00 4e 84 	unimp  0x4e84
    4118:	00 00 4e 70 	unimp  0x4e70

0000411c <strnlen>:
    411c:	9d e3 bf 98 	save  %sp, -104, %sp
    4120:	f0 27 a0 44 	st  %i0, [ %fp + 0x44 ]
    4124:	f2 27 a0 48 	st  %i1, [ %fp + 0x48 ]
    4128:	c2 07 a0 44 	ld  [ %fp + 0x44 ], %g1
    412c:	c2 27 bf fc 	st  %g1, [ %fp + -4 ]
    4130:	10 80 00 05 	b  4144 <strnlen+0x28>
    4134:	01 00 00 00 	nop 
    4138:	c2 07 bf fc 	ld  [ %fp + -4 ], %g1
    413c:	82 00 60 01 	inc  %g1
    4140:	c2 27 bf fc 	st  %g1, [ %fp + -4 ]
    4144:	c2 07 bf fc 	ld  [ %fp + -4 ], %g1
    4148:	c2 08 40 00 	ldub  [ %g1 ], %g1
    414c:	83 28 60 18 	sll  %g1, 0x18, %g1
    4150:	83 38 60 18 	sra  %g1, 0x18, %g1
    4154:	80 a0 60 00 	cmp  %g1, 0
    4158:	02 80 00 0d 	be  418c <strnlen+0x70>
    415c:	01 00 00 00 	nop 
    4160:	c2 07 a0 48 	ld  [ %fp + 0x48 ], %g1
    4164:	82 18 60 00 	xor  %g1, 0, %g1
    4168:	80 a0 00 01 	cmp  %g0, %g1
    416c:	82 40 20 00 	addx  %g0, 0, %g1
    4170:	c4 07 a0 48 	ld  [ %fp + 0x48 ], %g2
    4174:	84 00 bf ff 	add  %g2, -1, %g2
    4178:	c4 27 a0 48 	st  %g2, [ %fp + 0x48 ]
    417c:	82 08 60 ff 	and  %g1, 0xff, %g1
    4180:	80 a0 60 00 	cmp  %g1, 0
    4184:	12 bf ff ed 	bne  4138 <strnlen+0x1c>
    4188:	01 00 00 00 	nop 
    418c:	c4 07 bf fc 	ld  [ %fp + -4 ], %g2
    4190:	c2 07 a0 44 	ld  [ %fp + 0x44 ], %g1
    4194:	82 20 80 01 	sub  %g2, %g1, %g1
    4198:	b0 10 00 01 	mov  %g1, %i0
    419c:	81 e8 00 00 	restore 
    41a0:	81 c3 e0 08 	retl 
    41a4:	01 00 00 00 	nop 

000041a8 <skip_atoi>:
    41a8:	9d e3 bf 98 	save  %sp, -104, %sp
    41ac:	f0 27 a0 44 	st  %i0, [ %fp + 0x44 ]
    41b0:	c0 27 bf fc 	clr  [ %fp + -4 ]
    41b4:	10 80 00 11 	b  41f8 <skip_atoi+0x50>
    41b8:	01 00 00 00 	nop 
    41bc:	c2 07 bf fc 	ld  [ %fp + -4 ], %g1
    41c0:	82 00 40 01 	add  %g1, %g1, %g1
    41c4:	85 28 60 02 	sll  %g1, 2, %g2
    41c8:	86 00 40 02 	add  %g1, %g2, %g3
    41cc:	c2 07 a0 44 	ld  [ %fp + 0x44 ], %g1
    41d0:	c2 00 40 00 	ld  [ %g1 ], %g1
    41d4:	c4 08 40 00 	ldub  [ %g1 ], %g2
    41d8:	85 28 a0 18 	sll  %g2, 0x18, %g2
    41dc:	85 38 a0 18 	sra  %g2, 0x18, %g2
    41e0:	84 00 c0 02 	add  %g3, %g2, %g2
    41e4:	84 00 bf d0 	add  %g2, -48, %g2
    41e8:	c4 27 bf fc 	st  %g2, [ %fp + -4 ]
    41ec:	84 00 60 01 	add  %g1, 1, %g2
    41f0:	c2 07 a0 44 	ld  [ %fp + 0x44 ], %g1
    41f4:	c4 20 40 00 	st  %g2, [ %g1 ]
    41f8:	c2 07 a0 44 	ld  [ %fp + 0x44 ], %g1
    41fc:	c2 00 40 00 	ld  [ %g1 ], %g1
    4200:	c2 08 40 00 	ldub  [ %g1 ], %g1
    4204:	83 28 60 18 	sll  %g1, 0x18, %g1
    4208:	83 38 60 18 	sra  %g1, 0x18, %g1
    420c:	80 a0 60 2f 	cmp  %g1, 0x2f
    4210:	04 80 00 0a 	ble  4238 <skip_atoi+0x90>
    4214:	01 00 00 00 	nop 
    4218:	c2 07 a0 44 	ld  [ %fp + 0x44 ], %g1
    421c:	c2 00 40 00 	ld  [ %g1 ], %g1
    4220:	c2 08 40 00 	ldub  [ %g1 ], %g1
    4224:	83 28 60 18 	sll  %g1, 0x18, %g1
    4228:	83 38 60 18 	sra  %g1, 0x18, %g1
    422c:	80 a0 60 39 	cmp  %g1, 0x39
    4230:	04 bf ff e3 	ble  41bc <skip_atoi+0x14>
    4234:	01 00 00 00 	nop 
    4238:	c2 07 bf fc 	ld  [ %fp + -4 ], %g1
    423c:	b0 10 00 01 	mov  %g1, %i0
    4240:	81 e8 00 00 	restore 
    4244:	81 c3 e0 08 	retl 
    4248:	01 00 00 00 	nop 

0000424c <number>:
    424c:	9d e3 bf 50 	save  %sp, -176, %sp
    4250:	f0 27 a0 44 	st  %i0, [ %fp + 0x44 ]
    4254:	f2 27 a0 48 	st  %i1, [ %fp + 0x48 ]
    4258:	f4 27 a0 4c 	st  %i2, [ %fp + 0x4c ]
    425c:	f6 27 a0 50 	st  %i3, [ %fp + 0x50 ]
    4260:	f8 27 a0 54 	st  %i4, [ %fp + 0x54 ]
    4264:	fa 27 a0 58 	st  %i5, [ %fp + 0x58 ]
    4268:	03 00 01 00 	sethi  %hi(0x40000), %g1
    426c:	82 10 60 90 	or  %g1, 0x90, %g1	! 40090 <digits>
    4270:	c2 00 40 00 	ld  [ %g1 ], %g1
    4274:	c2 27 bf f8 	st  %g1, [ %fp + -8 ]
    4278:	c2 07 a0 58 	ld  [ %fp + 0x58 ], %g1
    427c:	82 08 60 40 	and  %g1, 0x40, %g1
    4280:	80 a0 60 00 	cmp  %g1, 0
    4284:	02 80 00 06 	be  429c <number+0x50>
    4288:	01 00 00 00 	nop 
    428c:	03 00 01 00 	sethi  %hi(0x40000), %g1
    4290:	82 10 60 94 	or  %g1, 0x94, %g1	! 40094 <upper_digits>
    4294:	c2 00 40 00 	ld  [ %g1 ], %g1
    4298:	c2 27 bf f8 	st  %g1, [ %fp + -8 ]
    429c:	c2 07 a0 58 	ld  [ %fp + 0x58 ], %g1
    42a0:	82 08 60 10 	and  %g1, 0x10, %g1
    42a4:	80 a0 60 00 	cmp  %g1, 0
    42a8:	02 80 00 05 	be  42bc <number+0x70>
    42ac:	01 00 00 00 	nop 
    42b0:	c2 07 a0 58 	ld  [ %fp + 0x58 ], %g1
    42b4:	82 08 7f fe 	and  %g1, -2, %g1
    42b8:	c2 27 a0 58 	st  %g1, [ %fp + 0x58 ]
    42bc:	c2 07 a0 4c 	ld  [ %fp + 0x4c ], %g1
    42c0:	80 a0 60 01 	cmp  %g1, 1
    42c4:	04 80 00 06 	ble  42dc <number+0x90>
    42c8:	01 00 00 00 	nop 
    42cc:	c2 07 a0 4c 	ld  [ %fp + 0x4c ], %g1
    42d0:	80 a0 60 24 	cmp  %g1, 0x24
    42d4:	04 80 00 05 	ble  42e8 <number+0x9c>
    42d8:	01 00 00 00 	nop 
    42dc:	82 10 20 00 	clr  %g1	! 0 <_start>
    42e0:	10 80 01 28 	b  4780 <number+0x534>
    42e4:	01 00 00 00 	nop 
    42e8:	c2 07 a0 58 	ld  [ %fp + 0x58 ], %g1
    42ec:	82 08 60 01 	and  %g1, 1, %g1
    42f0:	80 a0 60 00 	cmp  %g1, 0
    42f4:	02 80 00 05 	be  4308 <number+0xbc>
    42f8:	01 00 00 00 	nop 
    42fc:	82 10 20 30 	mov  0x30, %g1	! 30 <_start+0x30>
    4300:	10 80 00 03 	b  430c <number+0xc0>
    4304:	01 00 00 00 	nop 
    4308:	82 10 20 20 	mov  0x20, %g1	! 20 <_start+0x20>
    430c:	c2 2f bf f3 	stb  %g1, [ %fp + -13 ]
    4310:	c0 2f bf ff 	clrb  [ %fp + -1 ]
    4314:	c2 07 a0 58 	ld  [ %fp + 0x58 ], %g1
    4318:	82 08 60 02 	and  %g1, 2, %g1
    431c:	80 a0 60 00 	cmp  %g1, 0
    4320:	02 80 00 26 	be  43b8 <number+0x16c>
    4324:	01 00 00 00 	nop 
    4328:	c2 07 a0 48 	ld  [ %fp + 0x48 ], %g1
    432c:	80 a0 60 00 	cmp  %g1, 0
    4330:	16 80 00 0c 	bge  4360 <number+0x114>
    4334:	01 00 00 00 	nop 
    4338:	82 10 20 2d 	mov  0x2d, %g1	! 2d <_start+0x2d>
    433c:	c2 2f bf ff 	stb  %g1, [ %fp + -1 ]
    4340:	c2 07 a0 48 	ld  [ %fp + 0x48 ], %g1
    4344:	82 20 00 01 	neg  %g1
    4348:	c2 27 a0 48 	st  %g1, [ %fp + 0x48 ]
    434c:	c2 07 a0 50 	ld  [ %fp + 0x50 ], %g1
    4350:	82 00 7f ff 	add  %g1, -1, %g1
    4354:	c2 27 a0 50 	st  %g1, [ %fp + 0x50 ]
    4358:	10 80 00 18 	b  43b8 <number+0x16c>
    435c:	01 00 00 00 	nop 
    4360:	c2 07 a0 58 	ld  [ %fp + 0x58 ], %g1
    4364:	82 08 60 04 	and  %g1, 4, %g1
    4368:	80 a0 60 00 	cmp  %g1, 0
    436c:	02 80 00 09 	be  4390 <number+0x144>
    4370:	01 00 00 00 	nop 
    4374:	82 10 20 2b 	mov  0x2b, %g1	! 2b <_start+0x2b>
    4378:	c2 2f bf ff 	stb  %g1, [ %fp + -1 ]
    437c:	c2 07 a0 50 	ld  [ %fp + 0x50 ], %g1
    4380:	82 00 7f ff 	add  %g1, -1, %g1
    4384:	c2 27 a0 50 	st  %g1, [ %fp + 0x50 ]
    4388:	10 80 00 0c 	b  43b8 <number+0x16c>
    438c:	01 00 00 00 	nop 
    4390:	c2 07 a0 58 	ld  [ %fp + 0x58 ], %g1
    4394:	82 08 60 08 	and  %g1, 8, %g1
    4398:	80 a0 60 00 	cmp  %g1, 0
    439c:	02 80 00 07 	be  43b8 <number+0x16c>
    43a0:	01 00 00 00 	nop 
    43a4:	82 10 20 20 	mov  0x20, %g1	! 20 <_start+0x20>
    43a8:	c2 2f bf ff 	stb  %g1, [ %fp + -1 ]
    43ac:	c2 07 a0 50 	ld  [ %fp + 0x50 ], %g1
    43b0:	82 00 7f ff 	add  %g1, -1, %g1
    43b4:	c2 27 a0 50 	st  %g1, [ %fp + 0x50 ]
    43b8:	c2 07 a0 58 	ld  [ %fp + 0x58 ], %g1
    43bc:	82 08 60 20 	and  %g1, 0x20, %g1
    43c0:	80 a0 60 00 	cmp  %g1, 0
    43c4:	02 80 00 12 	be  440c <number+0x1c0>
    43c8:	01 00 00 00 	nop 
    43cc:	c2 07 a0 4c 	ld  [ %fp + 0x4c ], %g1
    43d0:	80 a0 60 10 	cmp  %g1, 0x10
    43d4:	12 80 00 07 	bne  43f0 <number+0x1a4>
    43d8:	01 00 00 00 	nop 
    43dc:	c2 07 a0 50 	ld  [ %fp + 0x50 ], %g1
    43e0:	82 00 7f fe 	add  %g1, -2, %g1
    43e4:	c2 27 a0 50 	st  %g1, [ %fp + 0x50 ]
    43e8:	10 80 00 09 	b  440c <number+0x1c0>
    43ec:	01 00 00 00 	nop 
    43f0:	c2 07 a0 4c 	ld  [ %fp + 0x4c ], %g1
    43f4:	80 a0 60 08 	cmp  %g1, 8
    43f8:	12 80 00 05 	bne  440c <number+0x1c0>
    43fc:	01 00 00 00 	nop 
    4400:	c2 07 a0 50 	ld  [ %fp + 0x50 ], %g1
    4404:	82 00 7f ff 	add  %g1, -1, %g1
    4408:	c2 27 a0 50 	st  %g1, [ %fp + 0x50 ]
    440c:	c0 27 bf f4 	clr  [ %fp + -12 ]
    4410:	c2 07 a0 48 	ld  [ %fp + 0x48 ], %g1
    4414:	80 a0 60 00 	cmp  %g1, 0
    4418:	12 80 00 25 	bne  44ac <number+0x260>
    441c:	01 00 00 00 	nop 
    4420:	c2 07 bf f4 	ld  [ %fp + -12 ], %g1
    4424:	82 07 80 01 	add  %fp, %g1, %g1
    4428:	84 10 20 30 	mov  0x30, %g2
    442c:	c4 28 7f b0 	stb  %g2, [ %g1 + -80 ]
    4430:	c2 07 bf f4 	ld  [ %fp + -12 ], %g1
    4434:	82 00 60 01 	inc  %g1
    4438:	c2 27 bf f4 	st  %g1, [ %fp + -12 ]
    443c:	10 80 00 20 	b  44bc <number+0x270>
    4440:	01 00 00 00 	nop 
    4444:	c2 07 a0 48 	ld  [ %fp + 0x48 ], %g1
    4448:	c4 07 a0 4c 	ld  [ %fp + 0x4c ], %g2
    444c:	81 80 20 00 	mov  %g0, %y
    4450:	01 00 00 00 	nop 
    4454:	01 00 00 00 	nop 
    4458:	01 00 00 00 	nop 
    445c:	86 70 40 02 	udiv  %g1, %g2, %g3
    4460:	84 58 c0 02 	smul  %g3, %g2, %g2
    4464:	82 20 40 02 	sub  %g1, %g2, %g1
    4468:	c4 07 bf f8 	ld  [ %fp + -8 ], %g2
    446c:	82 00 80 01 	add  %g2, %g1, %g1
    4470:	c4 08 40 00 	ldub  [ %g1 ], %g2
    4474:	c2 07 bf f4 	ld  [ %fp + -12 ], %g1
    4478:	82 07 80 01 	add  %fp, %g1, %g1
    447c:	c4 28 7f b0 	stb  %g2, [ %g1 + -80 ]
    4480:	c2 07 bf f4 	ld  [ %fp + -12 ], %g1
    4484:	82 00 60 01 	inc  %g1
    4488:	c2 27 bf f4 	st  %g1, [ %fp + -12 ]
    448c:	c6 07 a0 48 	ld  [ %fp + 0x48 ], %g3
    4490:	c4 07 a0 4c 	ld  [ %fp + 0x4c ], %g2
    4494:	81 80 20 00 	mov  %g0, %y
    4498:	01 00 00 00 	nop 
    449c:	01 00 00 00 	nop 
    44a0:	01 00 00 00 	nop 
    44a4:	82 70 c0 02 	udiv  %g3, %g2, %g1
    44a8:	c2 27 a0 48 	st  %g1, [ %fp + 0x48 ]
    44ac:	c2 07 a0 48 	ld  [ %fp + 0x48 ], %g1
    44b0:	80 a0 60 00 	cmp  %g1, 0
    44b4:	12 bf ff e4 	bne  4444 <number+0x1f8>
    44b8:	01 00 00 00 	nop 
    44bc:	c4 07 bf f4 	ld  [ %fp + -12 ], %g2
    44c0:	c2 07 a0 54 	ld  [ %fp + 0x54 ], %g1
    44c4:	80 a0 80 01 	cmp  %g2, %g1
    44c8:	04 80 00 04 	ble  44d8 <number+0x28c>
    44cc:	01 00 00 00 	nop 
    44d0:	c2 07 bf f4 	ld  [ %fp + -12 ], %g1
    44d4:	c2 27 a0 54 	st  %g1, [ %fp + 0x54 ]
    44d8:	c4 07 a0 50 	ld  [ %fp + 0x50 ], %g2
    44dc:	c2 07 a0 54 	ld  [ %fp + 0x54 ], %g1
    44e0:	82 20 80 01 	sub  %g2, %g1, %g1
    44e4:	c2 27 a0 50 	st  %g1, [ %fp + 0x50 ]
    44e8:	c2 07 a0 58 	ld  [ %fp + 0x58 ], %g1
    44ec:	82 08 60 11 	and  %g1, 0x11, %g1
    44f0:	80 a0 60 00 	cmp  %g1, 0
    44f4:	12 80 00 16 	bne  454c <number+0x300>
    44f8:	01 00 00 00 	nop 
    44fc:	10 80 00 08 	b  451c <number+0x2d0>
    4500:	01 00 00 00 	nop 
    4504:	c2 07 a0 44 	ld  [ %fp + 0x44 ], %g1
    4508:	84 10 20 20 	mov  0x20, %g2
    450c:	c4 28 40 00 	stb  %g2, [ %g1 ]
    4510:	c2 07 a0 44 	ld  [ %fp + 0x44 ], %g1
    4514:	82 00 60 01 	inc  %g1
    4518:	c2 27 a0 44 	st  %g1, [ %fp + 0x44 ]
    451c:	c2 07 a0 50 	ld  [ %fp + 0x50 ], %g1
    4520:	85 38 60 1f 	sra  %g1, 0x1f, %g2
    4524:	c2 07 a0 50 	ld  [ %fp + 0x50 ], %g1
    4528:	82 20 80 01 	sub  %g2, %g1, %g1
    452c:	83 30 60 1f 	srl  %g1, 0x1f, %g1
    4530:	c4 07 a0 50 	ld  [ %fp + 0x50 ], %g2
    4534:	84 00 bf ff 	add  %g2, -1, %g2
    4538:	c4 27 a0 50 	st  %g2, [ %fp + 0x50 ]
    453c:	82 08 60 ff 	and  %g1, 0xff, %g1
    4540:	80 a0 60 00 	cmp  %g1, 0
    4544:	12 bf ff f0 	bne  4504 <number+0x2b8>
    4548:	01 00 00 00 	nop 
    454c:	c2 0f bf ff 	ldub  [ %fp + -1 ], %g1
    4550:	83 28 60 18 	sll  %g1, 0x18, %g1
    4554:	83 38 60 18 	sra  %g1, 0x18, %g1
    4558:	80 a0 60 00 	cmp  %g1, 0
    455c:	02 80 00 08 	be  457c <number+0x330>
    4560:	01 00 00 00 	nop 
    4564:	c2 07 a0 44 	ld  [ %fp + 0x44 ], %g1
    4568:	c4 0f bf ff 	ldub  [ %fp + -1 ], %g2
    456c:	c4 28 40 00 	stb  %g2, [ %g1 ]
    4570:	c2 07 a0 44 	ld  [ %fp + 0x44 ], %g1
    4574:	82 00 60 01 	inc  %g1
    4578:	c2 27 a0 44 	st  %g1, [ %fp + 0x44 ]
    457c:	c2 07 a0 58 	ld  [ %fp + 0x58 ], %g1
    4580:	82 08 60 20 	and  %g1, 0x20, %g1
    4584:	80 a0 60 00 	cmp  %g1, 0
    4588:	02 80 00 21 	be  460c <number+0x3c0>
    458c:	01 00 00 00 	nop 
    4590:	c2 07 a0 4c 	ld  [ %fp + 0x4c ], %g1
    4594:	80 a0 60 08 	cmp  %g1, 8
    4598:	12 80 00 0a 	bne  45c0 <number+0x374>
    459c:	01 00 00 00 	nop 
    45a0:	c2 07 a0 44 	ld  [ %fp + 0x44 ], %g1
    45a4:	84 10 20 30 	mov  0x30, %g2
    45a8:	c4 28 40 00 	stb  %g2, [ %g1 ]
    45ac:	c2 07 a0 44 	ld  [ %fp + 0x44 ], %g1
    45b0:	82 00 60 01 	inc  %g1
    45b4:	c2 27 a0 44 	st  %g1, [ %fp + 0x44 ]
    45b8:	10 80 00 15 	b  460c <number+0x3c0>
    45bc:	01 00 00 00 	nop 
    45c0:	c2 07 a0 4c 	ld  [ %fp + 0x4c ], %g1
    45c4:	80 a0 60 10 	cmp  %g1, 0x10
    45c8:	12 80 00 11 	bne  460c <number+0x3c0>
    45cc:	01 00 00 00 	nop 
    45d0:	c2 07 a0 44 	ld  [ %fp + 0x44 ], %g1
    45d4:	84 10 20 30 	mov  0x30, %g2
    45d8:	c4 28 40 00 	stb  %g2, [ %g1 ]
    45dc:	c2 07 a0 44 	ld  [ %fp + 0x44 ], %g1
    45e0:	82 00 60 01 	inc  %g1
    45e4:	c2 27 a0 44 	st  %g1, [ %fp + 0x44 ]
    45e8:	03 00 01 00 	sethi  %hi(0x40000), %g1
    45ec:	82 10 60 90 	or  %g1, 0x90, %g1	! 40090 <digits>
    45f0:	c2 00 40 00 	ld  [ %g1 ], %g1
    45f4:	c4 08 60 21 	ldub  [ %g1 + 0x21 ], %g2
    45f8:	c2 07 a0 44 	ld  [ %fp + 0x44 ], %g1
    45fc:	c4 28 40 00 	stb  %g2, [ %g1 ]
    4600:	c2 07 a0 44 	ld  [ %fp + 0x44 ], %g1
    4604:	82 00 60 01 	inc  %g1
    4608:	c2 27 a0 44 	st  %g1, [ %fp + 0x44 ]
    460c:	c2 07 a0 58 	ld  [ %fp + 0x58 ], %g1
    4610:	82 08 60 10 	and  %g1, 0x10, %g1
    4614:	80 a0 60 00 	cmp  %g1, 0
    4618:	12 80 00 20 	bne  4698 <number+0x44c>
    461c:	01 00 00 00 	nop 
    4620:	10 80 00 08 	b  4640 <number+0x3f4>
    4624:	01 00 00 00 	nop 
    4628:	c2 07 a0 44 	ld  [ %fp + 0x44 ], %g1
    462c:	c4 0f bf f3 	ldub  [ %fp + -13 ], %g2
    4630:	c4 28 40 00 	stb  %g2, [ %g1 ]
    4634:	c2 07 a0 44 	ld  [ %fp + 0x44 ], %g1
    4638:	82 00 60 01 	inc  %g1
    463c:	c2 27 a0 44 	st  %g1, [ %fp + 0x44 ]
    4640:	c2 07 a0 50 	ld  [ %fp + 0x50 ], %g1
    4644:	85 38 60 1f 	sra  %g1, 0x1f, %g2
    4648:	c2 07 a0 50 	ld  [ %fp + 0x50 ], %g1
    464c:	82 20 80 01 	sub  %g2, %g1, %g1
    4650:	83 30 60 1f 	srl  %g1, 0x1f, %g1
    4654:	c4 07 a0 50 	ld  [ %fp + 0x50 ], %g2
    4658:	84 00 bf ff 	add  %g2, -1, %g2
    465c:	c4 27 a0 50 	st  %g2, [ %fp + 0x50 ]
    4660:	82 08 60 ff 	and  %g1, 0xff, %g1
    4664:	80 a0 60 00 	cmp  %g1, 0
    4668:	12 bf ff f0 	bne  4628 <number+0x3dc>
    466c:	01 00 00 00 	nop 
    4670:	10 80 00 0a 	b  4698 <number+0x44c>
    4674:	01 00 00 00 	nop 
    4678:	c2 07 a0 44 	ld  [ %fp + 0x44 ], %g1
    467c:	84 10 20 30 	mov  0x30, %g2
    4680:	c4 28 40 00 	stb  %g2, [ %g1 ]
    4684:	c2 07 a0 44 	ld  [ %fp + 0x44 ], %g1
    4688:	82 00 60 01 	inc  %g1
    468c:	c2 27 a0 44 	st  %g1, [ %fp + 0x44 ]
    4690:	10 80 00 03 	b  469c <number+0x450>
    4694:	01 00 00 00 	nop 
    4698:	01 00 00 00 	nop 
    469c:	82 10 20 01 	mov  1, %g1	! 1 <_start+0x1>
    46a0:	c6 07 a0 54 	ld  [ %fp + 0x54 ], %g3
    46a4:	c4 07 bf f4 	ld  [ %fp + -12 ], %g2
    46a8:	80 a0 c0 02 	cmp  %g3, %g2
    46ac:	14 80 00 03 	bg  46b8 <number+0x46c>
    46b0:	01 00 00 00 	nop 
    46b4:	82 10 20 00 	clr  %g1	! 0 <_start>
    46b8:	c4 07 a0 54 	ld  [ %fp + 0x54 ], %g2
    46bc:	84 00 bf ff 	add  %g2, -1, %g2
    46c0:	c4 27 a0 54 	st  %g2, [ %fp + 0x54 ]
    46c4:	82 08 60 ff 	and  %g1, 0xff, %g1
    46c8:	80 a0 60 00 	cmp  %g1, 0
    46cc:	12 bf ff eb 	bne  4678 <number+0x42c>
    46d0:	01 00 00 00 	nop 
    46d4:	10 80 00 0a 	b  46fc <number+0x4b0>
    46d8:	01 00 00 00 	nop 
    46dc:	c2 07 bf f4 	ld  [ %fp + -12 ], %g1
    46e0:	82 07 80 01 	add  %fp, %g1, %g1
    46e4:	c4 08 7f b0 	ldub  [ %g1 + -80 ], %g2
    46e8:	c2 07 a0 44 	ld  [ %fp + 0x44 ], %g1
    46ec:	c4 28 40 00 	stb  %g2, [ %g1 ]
    46f0:	c2 07 a0 44 	ld  [ %fp + 0x44 ], %g1
    46f4:	82 00 60 01 	inc  %g1
    46f8:	c2 27 a0 44 	st  %g1, [ %fp + 0x44 ]
    46fc:	c2 07 bf f4 	ld  [ %fp + -12 ], %g1
    4700:	85 38 60 1f 	sra  %g1, 0x1f, %g2
    4704:	c2 07 bf f4 	ld  [ %fp + -12 ], %g1
    4708:	82 20 80 01 	sub  %g2, %g1, %g1
    470c:	83 30 60 1f 	srl  %g1, 0x1f, %g1
    4710:	c4 07 bf f4 	ld  [ %fp + -12 ], %g2
    4714:	84 00 bf ff 	add  %g2, -1, %g2
    4718:	c4 27 bf f4 	st  %g2, [ %fp + -12 ]
    471c:	82 08 60 ff 	and  %g1, 0xff, %g1
    4720:	80 a0 60 00 	cmp  %g1, 0
    4724:	12 bf ff ee 	bne  46dc <number+0x490>
    4728:	01 00 00 00 	nop 
    472c:	10 80 00 08 	b  474c <number+0x500>
    4730:	01 00 00 00 	nop 
    4734:	c2 07 a0 44 	ld  [ %fp + 0x44 ], %g1
    4738:	84 10 20 20 	mov  0x20, %g2
    473c:	c4 28 40 00 	stb  %g2, [ %g1 ]
    4740:	c2 07 a0 44 	ld  [ %fp + 0x44 ], %g1
    4744:	82 00 60 01 	inc  %g1
    4748:	c2 27 a0 44 	st  %g1, [ %fp + 0x44 ]
    474c:	c2 07 a0 50 	ld  [ %fp + 0x50 ], %g1
    4750:	85 38 60 1f 	sra  %g1, 0x1f, %g2
    4754:	c2 07 a0 50 	ld  [ %fp + 0x50 ], %g1
    4758:	82 20 80 01 	sub  %g2, %g1, %g1
    475c:	83 30 60 1f 	srl  %g1, 0x1f, %g1
    4760:	c4 07 a0 50 	ld  [ %fp + 0x50 ], %g2
    4764:	84 00 bf ff 	add  %g2, -1, %g2
    4768:	c4 27 a0 50 	st  %g2, [ %fp + 0x50 ]
    476c:	82 08 60 ff 	and  %g1, 0xff, %g1
    4770:	80 a0 60 00 	cmp  %g1, 0
    4774:	12 bf ff f0 	bne  4734 <number+0x4e8>
    4778:	01 00 00 00 	nop 
    477c:	c2 07 a0 44 	ld  [ %fp + 0x44 ], %g1
    4780:	b0 10 00 01 	mov  %g1, %i0
    4784:	81 e8 00 00 	restore 
    4788:	81 c3 e0 08 	retl 
    478c:	01 00 00 00 	nop 

00004790 <eaddr>:
    4790:	9d e3 bf 78 	save  %sp, -136, %sp
    4794:	f0 27 a0 44 	st  %i0, [ %fp + 0x44 ]
    4798:	f2 27 a0 48 	st  %i1, [ %fp + 0x48 ]
    479c:	f4 27 a0 4c 	st  %i2, [ %fp + 0x4c ]
    47a0:	f6 27 a0 50 	st  %i3, [ %fp + 0x50 ]
    47a4:	f8 27 a0 54 	st  %i4, [ %fp + 0x54 ]
    47a8:	03 00 01 00 	sethi  %hi(0x40000), %g1
    47ac:	82 10 60 90 	or  %g1, 0x90, %g1	! 40090 <digits>
    47b0:	c2 00 40 00 	ld  [ %g1 ], %g1
    47b4:	c2 27 bf fc 	st  %g1, [ %fp + -4 ]
    47b8:	c2 07 a0 54 	ld  [ %fp + 0x54 ], %g1
    47bc:	82 08 60 40 	and  %g1, 0x40, %g1
    47c0:	80 a0 60 00 	cmp  %g1, 0
    47c4:	02 80 00 06 	be  47dc <eaddr+0x4c>
    47c8:	01 00 00 00 	nop 
    47cc:	03 00 01 00 	sethi  %hi(0x40000), %g1
    47d0:	82 10 60 94 	or  %g1, 0x94, %g1	! 40094 <upper_digits>
    47d4:	c2 00 40 00 	ld  [ %g1 ], %g1
    47d8:	c2 27 bf fc 	st  %g1, [ %fp + -4 ]
    47dc:	c0 27 bf f4 	clr  [ %fp + -12 ]
    47e0:	c0 27 bf f8 	clr  [ %fp + -8 ]
    47e4:	10 80 00 2f 	b  48a0 <eaddr+0x110>
    47e8:	01 00 00 00 	nop 
    47ec:	c2 07 bf f8 	ld  [ %fp + -8 ], %g1
    47f0:	80 a0 60 00 	cmp  %g1, 0
    47f4:	02 80 00 09 	be  4818 <eaddr+0x88>
    47f8:	01 00 00 00 	nop 
    47fc:	c2 07 bf f4 	ld  [ %fp + -12 ], %g1
    4800:	82 07 80 01 	add  %fp, %g1, %g1
    4804:	84 10 20 3a 	mov  0x3a, %g2
    4808:	c4 28 7f d8 	stb  %g2, [ %g1 + -40 ]
    480c:	c2 07 bf f4 	ld  [ %fp + -12 ], %g1
    4810:	82 00 60 01 	inc  %g1
    4814:	c2 27 bf f4 	st  %g1, [ %fp + -12 ]
    4818:	c2 07 bf f8 	ld  [ %fp + -8 ], %g1
    481c:	c4 07 a0 48 	ld  [ %fp + 0x48 ], %g2
    4820:	82 00 80 01 	add  %g2, %g1, %g1
    4824:	c2 08 40 00 	ldub  [ %g1 ], %g1
    4828:	82 08 60 ff 	and  %g1, 0xff, %g1
    482c:	83 30 60 04 	srl  %g1, 4, %g1
    4830:	82 08 60 ff 	and  %g1, 0xff, %g1
    4834:	c4 07 bf fc 	ld  [ %fp + -4 ], %g2
    4838:	82 00 80 01 	add  %g2, %g1, %g1
    483c:	c4 08 40 00 	ldub  [ %g1 ], %g2
    4840:	c2 07 bf f4 	ld  [ %fp + -12 ], %g1
    4844:	82 07 80 01 	add  %fp, %g1, %g1
    4848:	c4 28 7f d8 	stb  %g2, [ %g1 + -40 ]
    484c:	c2 07 bf f4 	ld  [ %fp + -12 ], %g1
    4850:	82 00 60 01 	inc  %g1
    4854:	c2 27 bf f4 	st  %g1, [ %fp + -12 ]
    4858:	c2 07 bf f8 	ld  [ %fp + -8 ], %g1
    485c:	c4 07 a0 48 	ld  [ %fp + 0x48 ], %g2
    4860:	82 00 80 01 	add  %g2, %g1, %g1
    4864:	c2 08 40 00 	ldub  [ %g1 ], %g1
    4868:	82 08 60 ff 	and  %g1, 0xff, %g1
    486c:	82 08 60 0f 	and  %g1, 0xf, %g1
    4870:	c4 07 bf fc 	ld  [ %fp + -4 ], %g2
    4874:	82 00 80 01 	add  %g2, %g1, %g1
    4878:	c4 08 40 00 	ldub  [ %g1 ], %g2
    487c:	c2 07 bf f4 	ld  [ %fp + -12 ], %g1
    4880:	82 07 80 01 	add  %fp, %g1, %g1
    4884:	c4 28 7f d8 	stb  %g2, [ %g1 + -40 ]
    4888:	c2 07 bf f4 	ld  [ %fp + -12 ], %g1
    488c:	82 00 60 01 	inc  %g1
    4890:	c2 27 bf f4 	st  %g1, [ %fp + -12 ]
    4894:	c2 07 bf f8 	ld  [ %fp + -8 ], %g1
    4898:	82 00 60 01 	inc  %g1
    489c:	c2 27 bf f8 	st  %g1, [ %fp + -8 ]
    48a0:	c2 07 bf f8 	ld  [ %fp + -8 ], %g1
    48a4:	80 a0 60 05 	cmp  %g1, 5
    48a8:	04 bf ff d1 	ble  47ec <eaddr+0x5c>
    48ac:	01 00 00 00 	nop 
    48b0:	c2 07 a0 54 	ld  [ %fp + 0x54 ], %g1
    48b4:	82 08 60 10 	and  %g1, 0x10, %g1
    48b8:	80 a0 60 00 	cmp  %g1, 0
    48bc:	12 80 00 18 	bne  491c <eaddr+0x18c>
    48c0:	01 00 00 00 	nop 
    48c4:	10 80 00 08 	b  48e4 <eaddr+0x154>
    48c8:	01 00 00 00 	nop 
    48cc:	c2 07 a0 44 	ld  [ %fp + 0x44 ], %g1
    48d0:	84 10 20 20 	mov  0x20, %g2
    48d4:	c4 28 40 00 	stb  %g2, [ %g1 ]
    48d8:	c2 07 a0 44 	ld  [ %fp + 0x44 ], %g1
    48dc:	82 00 60 01 	inc  %g1
    48e0:	c2 27 a0 44 	st  %g1, [ %fp + 0x44 ]
    48e4:	82 10 20 01 	mov  1, %g1
    48e8:	c6 07 a0 4c 	ld  [ %fp + 0x4c ], %g3
    48ec:	c4 07 bf f4 	ld  [ %fp + -12 ], %g2
    48f0:	80 a0 c0 02 	cmp  %g3, %g2
    48f4:	14 80 00 03 	bg  4900 <eaddr+0x170>
    48f8:	01 00 00 00 	nop 
    48fc:	82 10 20 00 	clr  %g1	! 0 <_start>
    4900:	c4 07 a0 4c 	ld  [ %fp + 0x4c ], %g2
    4904:	84 00 bf ff 	add  %g2, -1, %g2
    4908:	c4 27 a0 4c 	st  %g2, [ %fp + 0x4c ]
    490c:	82 08 60 ff 	and  %g1, 0xff, %g1
    4910:	80 a0 60 00 	cmp  %g1, 0
    4914:	12 bf ff ee 	bne  48cc <eaddr+0x13c>
    4918:	01 00 00 00 	nop 
    491c:	c0 27 bf f8 	clr  [ %fp + -8 ]
    4920:	10 80 00 0d 	b  4954 <eaddr+0x1c4>
    4924:	01 00 00 00 	nop 
    4928:	c2 07 bf f8 	ld  [ %fp + -8 ], %g1
    492c:	82 07 80 01 	add  %fp, %g1, %g1
    4930:	c4 08 7f d8 	ldub  [ %g1 + -40 ], %g2
    4934:	c2 07 a0 44 	ld  [ %fp + 0x44 ], %g1
    4938:	c4 28 40 00 	stb  %g2, [ %g1 ]
    493c:	c2 07 a0 44 	ld  [ %fp + 0x44 ], %g1
    4940:	82 00 60 01 	inc  %g1
    4944:	c2 27 a0 44 	st  %g1, [ %fp + 0x44 ]
    4948:	c2 07 bf f8 	ld  [ %fp + -8 ], %g1
    494c:	82 00 60 01 	inc  %g1
    4950:	c2 27 bf f8 	st  %g1, [ %fp + -8 ]
    4954:	c4 07 bf f8 	ld  [ %fp + -8 ], %g2
    4958:	c2 07 bf f4 	ld  [ %fp + -12 ], %g1
    495c:	80 a0 80 01 	cmp  %g2, %g1
    4960:	06 bf ff f2 	bl  4928 <eaddr+0x198>
    4964:	01 00 00 00 	nop 
    4968:	10 80 00 08 	b  4988 <eaddr+0x1f8>
    496c:	01 00 00 00 	nop 
    4970:	c2 07 a0 44 	ld  [ %fp + 0x44 ], %g1
    4974:	84 10 20 20 	mov  0x20, %g2
    4978:	c4 28 40 00 	stb  %g2, [ %g1 ]
    497c:	c2 07 a0 44 	ld  [ %fp + 0x44 ], %g1
    4980:	82 00 60 01 	inc  %g1
    4984:	c2 27 a0 44 	st  %g1, [ %fp + 0x44 ]
    4988:	82 10 20 01 	mov  1, %g1
    498c:	c6 07 a0 4c 	ld  [ %fp + 0x4c ], %g3
    4990:	c4 07 bf f4 	ld  [ %fp + -12 ], %g2
    4994:	80 a0 c0 02 	cmp  %g3, %g2
    4998:	14 80 00 03 	bg  49a4 <eaddr+0x214>
    499c:	01 00 00 00 	nop 
    49a0:	82 10 20 00 	clr  %g1	! 0 <_start>
    49a4:	c4 07 a0 4c 	ld  [ %fp + 0x4c ], %g2
    49a8:	84 00 bf ff 	add  %g2, -1, %g2
    49ac:	c4 27 a0 4c 	st  %g2, [ %fp + 0x4c ]
    49b0:	82 08 60 ff 	and  %g1, 0xff, %g1
    49b4:	80 a0 60 00 	cmp  %g1, 0
    49b8:	12 bf ff ee 	bne  4970 <eaddr+0x1e0>
    49bc:	01 00 00 00 	nop 
    49c0:	c2 07 a0 44 	ld  [ %fp + 0x44 ], %g1
    49c4:	b0 10 00 01 	mov  %g1, %i0
    49c8:	81 e8 00 00 	restore 
    49cc:	81 c3 e0 08 	retl 
    49d0:	01 00 00 00 	nop 

000049d4 <iaddr>:
    49d4:	9d e3 bf 78 	save  %sp, -136, %sp
    49d8:	f0 27 a0 44 	st  %i0, [ %fp + 0x44 ]
    49dc:	f2 27 a0 48 	st  %i1, [ %fp + 0x48 ]
    49e0:	f4 27 a0 4c 	st  %i2, [ %fp + 0x4c ]
    49e4:	f6 27 a0 50 	st  %i3, [ %fp + 0x50 ]
    49e8:	f8 27 a0 54 	st  %i4, [ %fp + 0x54 ]
    49ec:	c0 27 bf f4 	clr  [ %fp + -12 ]
    49f0:	c0 27 bf fc 	clr  [ %fp + -4 ]
    49f4:	10 80 00 94 	b  4c44 <iaddr+0x270>
    49f8:	01 00 00 00 	nop 
    49fc:	c2 07 bf fc 	ld  [ %fp + -4 ], %g1
    4a00:	80 a0 60 00 	cmp  %g1, 0
    4a04:	02 80 00 09 	be  4a28 <iaddr+0x54>
    4a08:	01 00 00 00 	nop 
    4a0c:	c2 07 bf f4 	ld  [ %fp + -12 ], %g1
    4a10:	82 07 80 01 	add  %fp, %g1, %g1
    4a14:	84 10 20 2e 	mov  0x2e, %g2
    4a18:	c4 28 7f d8 	stb  %g2, [ %g1 + -40 ]
    4a1c:	c2 07 bf f4 	ld  [ %fp + -12 ], %g1
    4a20:	82 00 60 01 	inc  %g1
    4a24:	c2 27 bf f4 	st  %g1, [ %fp + -12 ]
    4a28:	c2 07 bf fc 	ld  [ %fp + -4 ], %g1
    4a2c:	c4 07 a0 48 	ld  [ %fp + 0x48 ], %g2
    4a30:	82 00 80 01 	add  %g2, %g1, %g1
    4a34:	c2 08 40 00 	ldub  [ %g1 ], %g1
    4a38:	82 08 60 ff 	and  %g1, 0xff, %g1
    4a3c:	c2 27 bf f8 	st  %g1, [ %fp + -8 ]
    4a40:	c2 07 bf f8 	ld  [ %fp + -8 ], %g1
    4a44:	80 a0 60 00 	cmp  %g1, 0
    4a48:	12 80 00 0e 	bne  4a80 <iaddr+0xac>
    4a4c:	01 00 00 00 	nop 
    4a50:	03 00 01 00 	sethi  %hi(0x40000), %g1
    4a54:	82 10 60 90 	or  %g1, 0x90, %g1	! 40090 <digits>
    4a58:	c2 00 40 00 	ld  [ %g1 ], %g1
    4a5c:	c4 08 40 00 	ldub  [ %g1 ], %g2
    4a60:	c2 07 bf f4 	ld  [ %fp + -12 ], %g1
    4a64:	82 07 80 01 	add  %fp, %g1, %g1
    4a68:	c4 28 7f d8 	stb  %g2, [ %g1 + -40 ]
    4a6c:	c2 07 bf f4 	ld  [ %fp + -12 ], %g1
    4a70:	82 00 60 01 	inc  %g1
    4a74:	c2 27 bf f4 	st  %g1, [ %fp + -12 ]
    4a78:	10 80 00 70 	b  4c38 <iaddr+0x264>
    4a7c:	01 00 00 00 	nop 
    4a80:	c2 07 bf f8 	ld  [ %fp + -8 ], %g1
    4a84:	80 a0 60 63 	cmp  %g1, 0x63
    4a88:	04 80 00 3e 	ble  4b80 <iaddr+0x1ac>
    4a8c:	01 00 00 00 	nop 
    4a90:	03 00 01 00 	sethi  %hi(0x40000), %g1
    4a94:	82 10 60 90 	or  %g1, 0x90, %g1	! 40090 <digits>
    4a98:	c4 00 40 00 	ld  [ %g1 ], %g2
    4a9c:	c2 07 bf f8 	ld  [ %fp + -8 ], %g1
    4aa0:	87 38 60 1f 	sra  %g1, 0x1f, %g3
    4aa4:	81 80 e0 00 	mov  %g3, %y
    4aa8:	01 00 00 00 	nop 
    4aac:	01 00 00 00 	nop 
    4ab0:	01 00 00 00 	nop 
    4ab4:	82 78 60 64 	sdiv  %g1, 0x64, %g1
    4ab8:	82 00 80 01 	add  %g2, %g1, %g1
    4abc:	c4 08 40 00 	ldub  [ %g1 ], %g2
    4ac0:	c2 07 bf f4 	ld  [ %fp + -12 ], %g1
    4ac4:	82 07 80 01 	add  %fp, %g1, %g1
    4ac8:	c4 28 7f d8 	stb  %g2, [ %g1 + -40 ]
    4acc:	c2 07 bf f4 	ld  [ %fp + -12 ], %g1
    4ad0:	82 00 60 01 	inc  %g1
    4ad4:	c2 27 bf f4 	st  %g1, [ %fp + -12 ]
    4ad8:	c2 07 bf f8 	ld  [ %fp + -8 ], %g1
    4adc:	87 38 60 1f 	sra  %g1, 0x1f, %g3
    4ae0:	81 80 e0 00 	mov  %g3, %y
    4ae4:	01 00 00 00 	nop 
    4ae8:	01 00 00 00 	nop 
    4aec:	01 00 00 00 	nop 
    4af0:	84 78 60 64 	sdiv  %g1, 0x64, %g2
    4af4:	84 58 a0 64 	smul  %g2, 0x64, %g2
    4af8:	82 20 40 02 	sub  %g1, %g2, %g1
    4afc:	c2 27 bf f8 	st  %g1, [ %fp + -8 ]
    4b00:	03 00 01 00 	sethi  %hi(0x40000), %g1
    4b04:	82 10 60 90 	or  %g1, 0x90, %g1	! 40090 <digits>
    4b08:	c4 00 40 00 	ld  [ %g1 ], %g2
    4b0c:	c2 07 bf f8 	ld  [ %fp + -8 ], %g1
    4b10:	87 38 60 1f 	sra  %g1, 0x1f, %g3
    4b14:	81 80 e0 00 	mov  %g3, %y
    4b18:	01 00 00 00 	nop 
    4b1c:	01 00 00 00 	nop 
    4b20:	01 00 00 00 	nop 
    4b24:	82 78 60 0a 	sdiv  %g1, 0xa, %g1
    4b28:	82 00 80 01 	add  %g2, %g1, %g1
    4b2c:	c4 08 40 00 	ldub  [ %g1 ], %g2
    4b30:	c2 07 bf f4 	ld  [ %fp + -12 ], %g1
    4b34:	82 07 80 01 	add  %fp, %g1, %g1
    4b38:	c4 28 7f d8 	stb  %g2, [ %g1 + -40 ]
    4b3c:	c2 07 bf f4 	ld  [ %fp + -12 ], %g1
    4b40:	82 00 60 01 	inc  %g1
    4b44:	c2 27 bf f4 	st  %g1, [ %fp + -12 ]
    4b48:	c4 07 bf f8 	ld  [ %fp + -8 ], %g2
    4b4c:	87 38 a0 1f 	sra  %g2, 0x1f, %g3
    4b50:	81 80 e0 00 	mov  %g3, %y
    4b54:	01 00 00 00 	nop 
    4b58:	01 00 00 00 	nop 
    4b5c:	01 00 00 00 	nop 
    4b60:	82 78 a0 0a 	sdiv  %g2, 0xa, %g1
    4b64:	82 00 40 01 	add  %g1, %g1, %g1
    4b68:	87 28 60 02 	sll  %g1, 2, %g3
    4b6c:	82 00 40 03 	add  %g1, %g3, %g1
    4b70:	82 20 80 01 	sub  %g2, %g1, %g1
    4b74:	c2 27 bf f8 	st  %g1, [ %fp + -8 ]
    4b78:	10 80 00 24 	b  4c08 <iaddr+0x234>
    4b7c:	01 00 00 00 	nop 
    4b80:	c2 07 bf f8 	ld  [ %fp + -8 ], %g1
    4b84:	80 a0 60 09 	cmp  %g1, 9
    4b88:	04 80 00 20 	ble  4c08 <iaddr+0x234>
    4b8c:	01 00 00 00 	nop 
    4b90:	03 00 01 00 	sethi  %hi(0x40000), %g1
    4b94:	82 10 60 90 	or  %g1, 0x90, %g1	! 40090 <digits>
    4b98:	c4 00 40 00 	ld  [ %g1 ], %g2
    4b9c:	c2 07 bf f8 	ld  [ %fp + -8 ], %g1
    4ba0:	87 38 60 1f 	sra  %g1, 0x1f, %g3
    4ba4:	81 80 e0 00 	mov  %g3, %y
    4ba8:	01 00 00 00 	nop 
    4bac:	01 00 00 00 	nop 
    4bb0:	01 00 00 00 	nop 
    4bb4:	82 78 60 0a 	sdiv  %g1, 0xa, %g1
    4bb8:	82 00 80 01 	add  %g2, %g1, %g1
    4bbc:	c4 08 40 00 	ldub  [ %g1 ], %g2
    4bc0:	c2 07 bf f4 	ld  [ %fp + -12 ], %g1
    4bc4:	82 07 80 01 	add  %fp, %g1, %g1
    4bc8:	c4 28 7f d8 	stb  %g2, [ %g1 + -40 ]
    4bcc:	c2 07 bf f4 	ld  [ %fp + -12 ], %g1
    4bd0:	82 00 60 01 	inc  %g1
    4bd4:	c2 27 bf f4 	st  %g1, [ %fp + -12 ]
    4bd8:	c4 07 bf f8 	ld  [ %fp + -8 ], %g2
    4bdc:	87 38 a0 1f 	sra  %g2, 0x1f, %g3
    4be0:	81 80 e0 00 	mov  %g3, %y
    4be4:	01 00 00 00 	nop 
    4be8:	01 00 00 00 	nop 
    4bec:	01 00 00 00 	nop 
    4bf0:	82 78 a0 0a 	sdiv  %g2, 0xa, %g1
    4bf4:	82 00 40 01 	add  %g1, %g1, %g1
    4bf8:	87 28 60 02 	sll  %g1, 2, %g3
    4bfc:	82 00 40 03 	add  %g1, %g3, %g1
    4c00:	82 20 80 01 	sub  %g2, %g1, %g1
    4c04:	c2 27 bf f8 	st  %g1, [ %fp + -8 ]
    4c08:	03 00 01 00 	sethi  %hi(0x40000), %g1
    4c0c:	82 10 60 90 	or  %g1, 0x90, %g1	! 40090 <digits>
    4c10:	c4 00 40 00 	ld  [ %g1 ], %g2
    4c14:	c2 07 bf f8 	ld  [ %fp + -8 ], %g1
    4c18:	82 00 80 01 	add  %g2, %g1, %g1
    4c1c:	c4 08 40 00 	ldub  [ %g1 ], %g2
    4c20:	c2 07 bf f4 	ld  [ %fp + -12 ], %g1
    4c24:	82 07 80 01 	add  %fp, %g1, %g1
    4c28:	c4 28 7f d8 	stb  %g2, [ %g1 + -40 ]
    4c2c:	c2 07 bf f4 	ld  [ %fp + -12 ], %g1
    4c30:	82 00 60 01 	inc  %g1
    4c34:	c2 27 bf f4 	st  %g1, [ %fp + -12 ]
    4c38:	c2 07 bf fc 	ld  [ %fp + -4 ], %g1
    4c3c:	82 00 60 01 	inc  %g1
    4c40:	c2 27 bf fc 	st  %g1, [ %fp + -4 ]
    4c44:	c2 07 bf fc 	ld  [ %fp + -4 ], %g1
    4c48:	80 a0 60 03 	cmp  %g1, 3
    4c4c:	04 bf ff 6c 	ble  49fc <iaddr+0x28>
    4c50:	01 00 00 00 	nop 
    4c54:	c2 07 a0 54 	ld  [ %fp + 0x54 ], %g1
    4c58:	82 08 60 10 	and  %g1, 0x10, %g1
    4c5c:	80 a0 60 00 	cmp  %g1, 0
    4c60:	12 80 00 18 	bne  4cc0 <iaddr+0x2ec>
    4c64:	01 00 00 00 	nop 
    4c68:	10 80 00 08 	b  4c88 <iaddr+0x2b4>
    4c6c:	01 00 00 00 	nop 
    4c70:	c2 07 a0 44 	ld  [ %fp + 0x44 ], %g1
    4c74:	84 10 20 20 	mov  0x20, %g2
    4c78:	c4 28 40 00 	stb  %g2, [ %g1 ]
    4c7c:	c2 07 a0 44 	ld  [ %fp + 0x44 ], %g1
    4c80:	82 00 60 01 	inc  %g1
    4c84:	c2 27 a0 44 	st  %g1, [ %fp + 0x44 ]
    4c88:	82 10 20 01 	mov  1, %g1
    4c8c:	c6 07 a0 4c 	ld  [ %fp + 0x4c ], %g3
    4c90:	c4 07 bf f4 	ld  [ %fp + -12 ], %g2
    4c94:	80 a0 c0 02 	cmp  %g3, %g2
    4c98:	14 80 00 03 	bg  4ca4 <iaddr+0x2d0>
    4c9c:	01 00 00 00 	nop 
    4ca0:	82 10 20 00 	clr  %g1	! 0 <_start>
    4ca4:	c4 07 a0 4c 	ld  [ %fp + 0x4c ], %g2
    4ca8:	84 00 bf ff 	add  %g2, -1, %g2
    4cac:	c4 27 a0 4c 	st  %g2, [ %fp + 0x4c ]
    4cb0:	82 08 60 ff 	and  %g1, 0xff, %g1
    4cb4:	80 a0 60 00 	cmp  %g1, 0
    4cb8:	12 bf ff ee 	bne  4c70 <iaddr+0x29c>
    4cbc:	01 00 00 00 	nop 
    4cc0:	c0 27 bf fc 	clr  [ %fp + -4 ]
    4cc4:	10 80 00 0d 	b  4cf8 <iaddr+0x324>
    4cc8:	01 00 00 00 	nop 
    4ccc:	c2 07 bf fc 	ld  [ %fp + -4 ], %g1
    4cd0:	82 07 80 01 	add  %fp, %g1, %g1
    4cd4:	c4 08 7f d8 	ldub  [ %g1 + -40 ], %g2
    4cd8:	c2 07 a0 44 	ld  [ %fp + 0x44 ], %g1
    4cdc:	c4 28 40 00 	stb  %g2, [ %g1 ]
    4ce0:	c2 07 a0 44 	ld  [ %fp + 0x44 ], %g1
    4ce4:	82 00 60 01 	inc  %g1
    4ce8:	c2 27 a0 44 	st  %g1, [ %fp + 0x44 ]
    4cec:	c2 07 bf fc 	ld  [ %fp + -4 ], %g1
    4cf0:	82 00 60 01 	inc  %g1
    4cf4:	c2 27 bf fc 	st  %g1, [ %fp + -4 ]
    4cf8:	c4 07 bf fc 	ld  [ %fp + -4 ], %g2
    4cfc:	c2 07 bf f4 	ld  [ %fp + -12 ], %g1
    4d00:	80 a0 80 01 	cmp  %g2, %g1
    4d04:	06 bf ff f2 	bl  4ccc <iaddr+0x2f8>
    4d08:	01 00 00 00 	nop 
    4d0c:	10 80 00 08 	b  4d2c <iaddr+0x358>
    4d10:	01 00 00 00 	nop 
    4d14:	c2 07 a0 44 	ld  [ %fp + 0x44 ], %g1
    4d18:	84 10 20 20 	mov  0x20, %g2
    4d1c:	c4 28 40 00 	stb  %g2, [ %g1 ]
    4d20:	c2 07 a0 44 	ld  [ %fp + 0x44 ], %g1
    4d24:	82 00 60 01 	inc  %g1
    4d28:	c2 27 a0 44 	st  %g1, [ %fp + 0x44 ]
    4d2c:	82 10 20 01 	mov  1, %g1
    4d30:	c6 07 a0 4c 	ld  [ %fp + 0x4c ], %g3
    4d34:	c4 07 bf f4 	ld  [ %fp + -12 ], %g2
    4d38:	80 a0 c0 02 	cmp  %g3, %g2
    4d3c:	14 80 00 03 	bg  4d48 <iaddr+0x374>
    4d40:	01 00 00 00 	nop 
    4d44:	82 10 20 00 	clr  %g1	! 0 <_start>
    4d48:	c4 07 a0 4c 	ld  [ %fp + 0x4c ], %g2
    4d4c:	84 00 bf ff 	add  %g2, -1, %g2
    4d50:	c4 27 a0 4c 	st  %g2, [ %fp + 0x4c ]
    4d54:	82 08 60 ff 	and  %g1, 0xff, %g1
    4d58:	80 a0 60 00 	cmp  %g1, 0
    4d5c:	12 bf ff ee 	bne  4d14 <iaddr+0x340>
    4d60:	01 00 00 00 	nop 
    4d64:	c2 07 a0 44 	ld  [ %fp + 0x44 ], %g1
    4d68:	b0 10 00 01 	mov  %g1, %i0
    4d6c:	81 e8 00 00 	restore 
    4d70:	81 c3 e0 08 	retl 
    4d74:	01 00 00 00 	nop 

00004d78 <ee_vsprintf>:
    4d78:	9d e3 bf 78 	save  %sp, -136, %sp
    4d7c:	f0 27 a0 44 	st  %i0, [ %fp + 0x44 ]
    4d80:	f2 27 a0 48 	st  %i1, [ %fp + 0x48 ]
    4d84:	f4 27 a0 4c 	st  %i2, [ %fp + 0x4c ]
    4d88:	c2 07 a0 44 	ld  [ %fp + 0x44 ], %g1
    4d8c:	c2 27 bf f0 	st  %g1, [ %fp + -16 ]
    4d90:	10 80 01 f5 	b  5564 <ee_vsprintf+0x7ec>
    4d94:	01 00 00 00 	nop 
    4d98:	c2 07 a0 48 	ld  [ %fp + 0x48 ], %g1
    4d9c:	c2 08 40 00 	ldub  [ %g1 ], %g1
    4da0:	83 28 60 18 	sll  %g1, 0x18, %g1
    4da4:	83 38 60 18 	sra  %g1, 0x18, %g1
    4da8:	80 a0 60 25 	cmp  %g1, 0x25
    4dac:	02 80 00 0b 	be  4dd8 <ee_vsprintf+0x60>
    4db0:	01 00 00 00 	nop 
    4db4:	c2 07 a0 48 	ld  [ %fp + 0x48 ], %g1
    4db8:	c4 08 40 00 	ldub  [ %g1 ], %g2
    4dbc:	c2 07 bf f0 	ld  [ %fp + -16 ], %g1
    4dc0:	c4 28 40 00 	stb  %g2, [ %g1 ]
    4dc4:	c2 07 bf f0 	ld  [ %fp + -16 ], %g1
    4dc8:	82 00 60 01 	inc  %g1
    4dcc:	c2 27 bf f0 	st  %g1, [ %fp + -16 ]
    4dd0:	10 80 01 e2 	b  5558 <ee_vsprintf+0x7e0>
    4dd4:	01 00 00 00 	nop 
    4dd8:	c0 27 bf e8 	clr  [ %fp + -24 ]
    4ddc:	c2 07 a0 48 	ld  [ %fp + 0x48 ], %g1
    4de0:	82 00 60 01 	inc  %g1
    4de4:	c2 27 a0 48 	st  %g1, [ %fp + 0x48 ]
    4de8:	c2 07 a0 48 	ld  [ %fp + 0x48 ], %g1
    4dec:	c2 08 40 00 	ldub  [ %g1 ], %g1
    4df0:	83 28 60 18 	sll  %g1, 0x18, %g1
    4df4:	83 38 60 18 	sra  %g1, 0x18, %g1
    4df8:	82 00 7f e0 	add  %g1, -32, %g1
    4dfc:	80 a0 60 10 	cmp  %g1, 0x10
    4e00:	18 80 00 21 	bgu  4e84 <ee_vsprintf+0x10c>
    4e04:	01 00 00 00 	nop 
    4e08:	85 28 60 02 	sll  %g1, 2, %g2
    4e0c:	03 00 00 10 	sethi  %hi(0x4000), %g1
    4e10:	82 10 60 d8 	or  %g1, 0xd8, %g1	! 40d8 <SW_trap_0xfe+0xf8>
    4e14:	c2 00 80 01 	ld  [ %g2 + %g1 ], %g1
    4e18:	81 c0 40 00 	jmp  %g1
    4e1c:	01 00 00 00 	nop 
    4e20:	c2 07 bf e8 	ld  [ %fp + -24 ], %g1
    4e24:	82 10 60 10 	or  %g1, 0x10, %g1
    4e28:	c2 27 bf e8 	st  %g1, [ %fp + -24 ]
    4e2c:	10 bf ff ec 	b  4ddc <ee_vsprintf+0x64>
    4e30:	01 00 00 00 	nop 
    4e34:	c2 07 bf e8 	ld  [ %fp + -24 ], %g1
    4e38:	82 10 60 04 	or  %g1, 4, %g1
    4e3c:	c2 27 bf e8 	st  %g1, [ %fp + -24 ]
    4e40:	10 bf ff e7 	b  4ddc <ee_vsprintf+0x64>
    4e44:	01 00 00 00 	nop 
    4e48:	c2 07 bf e8 	ld  [ %fp + -24 ], %g1
    4e4c:	82 10 60 08 	or  %g1, 8, %g1
    4e50:	c2 27 bf e8 	st  %g1, [ %fp + -24 ]
    4e54:	10 bf ff e2 	b  4ddc <ee_vsprintf+0x64>
    4e58:	01 00 00 00 	nop 
    4e5c:	c2 07 bf e8 	ld  [ %fp + -24 ], %g1
    4e60:	82 10 60 20 	or  %g1, 0x20, %g1
    4e64:	c2 27 bf e8 	st  %g1, [ %fp + -24 ]
    4e68:	10 bf ff dd 	b  4ddc <ee_vsprintf+0x64>
    4e6c:	01 00 00 00 	nop 
    4e70:	c2 07 bf e8 	ld  [ %fp + -24 ], %g1
    4e74:	82 10 60 01 	or  %g1, 1, %g1
    4e78:	c2 27 bf e8 	st  %g1, [ %fp + -24 ]
    4e7c:	10 bf ff d8 	b  4ddc <ee_vsprintf+0x64>
    4e80:	01 00 00 00 	nop 
    4e84:	82 10 3f ff 	mov  -1, %g1	! ffffffff <upper_digits+0xfffbff6b>
    4e88:	c2 27 bf e4 	st  %g1, [ %fp + -28 ]
    4e8c:	c2 07 a0 48 	ld  [ %fp + 0x48 ], %g1
    4e90:	c2 08 40 00 	ldub  [ %g1 ], %g1
    4e94:	83 28 60 18 	sll  %g1, 0x18, %g1
    4e98:	83 38 60 18 	sra  %g1, 0x18, %g1
    4e9c:	80 a0 60 2f 	cmp  %g1, 0x2f
    4ea0:	04 80 00 10 	ble  4ee0 <ee_vsprintf+0x168>
    4ea4:	01 00 00 00 	nop 
    4ea8:	c2 07 a0 48 	ld  [ %fp + 0x48 ], %g1
    4eac:	c2 08 40 00 	ldub  [ %g1 ], %g1
    4eb0:	83 28 60 18 	sll  %g1, 0x18, %g1
    4eb4:	83 38 60 18 	sra  %g1, 0x18, %g1
    4eb8:	80 a0 60 39 	cmp  %g1, 0x39
    4ebc:	14 80 00 09 	bg  4ee0 <ee_vsprintf+0x168>
    4ec0:	01 00 00 00 	nop 
    4ec4:	82 07 a0 48 	add  %fp, 0x48, %g1
    4ec8:	90 10 00 01 	mov  %g1, %o0
    4ecc:	7f ff fc b7 	call  41a8 <skip_atoi>
    4ed0:	01 00 00 00 	nop 
    4ed4:	d0 27 bf e4 	st  %o0, [ %fp + -28 ]
    4ed8:	10 80 00 1c 	b  4f48 <ee_vsprintf+0x1d0>
    4edc:	01 00 00 00 	nop 
    4ee0:	c2 07 a0 48 	ld  [ %fp + 0x48 ], %g1
    4ee4:	c2 08 40 00 	ldub  [ %g1 ], %g1
    4ee8:	83 28 60 18 	sll  %g1, 0x18, %g1
    4eec:	83 38 60 18 	sra  %g1, 0x18, %g1
    4ef0:	80 a0 60 2a 	cmp  %g1, 0x2a
    4ef4:	12 80 00 15 	bne  4f48 <ee_vsprintf+0x1d0>
    4ef8:	01 00 00 00 	nop 
    4efc:	c2 07 a0 48 	ld  [ %fp + 0x48 ], %g1
    4f00:	82 00 60 01 	inc  %g1
    4f04:	c2 27 a0 48 	st  %g1, [ %fp + 0x48 ]
    4f08:	c2 07 a0 4c 	ld  [ %fp + 0x4c ], %g1
    4f0c:	c2 00 40 00 	ld  [ %g1 ], %g1
    4f10:	c2 27 bf e4 	st  %g1, [ %fp + -28 ]
    4f14:	c2 07 a0 4c 	ld  [ %fp + 0x4c ], %g1
    4f18:	82 00 60 04 	add  %g1, 4, %g1
    4f1c:	c2 27 a0 4c 	st  %g1, [ %fp + 0x4c ]
    4f20:	c2 07 bf e4 	ld  [ %fp + -28 ], %g1
    4f24:	80 a0 60 00 	cmp  %g1, 0
    4f28:	16 80 00 08 	bge  4f48 <ee_vsprintf+0x1d0>
    4f2c:	01 00 00 00 	nop 
    4f30:	c2 07 bf e4 	ld  [ %fp + -28 ], %g1
    4f34:	82 20 00 01 	neg  %g1
    4f38:	c2 27 bf e4 	st  %g1, [ %fp + -28 ]
    4f3c:	c2 07 bf e8 	ld  [ %fp + -24 ], %g1
    4f40:	82 10 60 10 	or  %g1, 0x10, %g1
    4f44:	c2 27 bf e8 	st  %g1, [ %fp + -24 ]
    4f48:	82 10 3f ff 	mov  -1, %g1
    4f4c:	c2 27 bf e0 	st  %g1, [ %fp + -32 ]
    4f50:	c2 07 a0 48 	ld  [ %fp + 0x48 ], %g1
    4f54:	c2 08 40 00 	ldub  [ %g1 ], %g1
    4f58:	83 28 60 18 	sll  %g1, 0x18, %g1
    4f5c:	83 38 60 18 	sra  %g1, 0x18, %g1
    4f60:	80 a0 60 2e 	cmp  %g1, 0x2e
    4f64:	12 80 00 2f 	bne  5020 <ee_vsprintf+0x2a8>
    4f68:	01 00 00 00 	nop 
    4f6c:	c2 07 a0 48 	ld  [ %fp + 0x48 ], %g1
    4f70:	82 00 60 01 	inc  %g1
    4f74:	c2 27 a0 48 	st  %g1, [ %fp + 0x48 ]
    4f78:	c2 07 a0 48 	ld  [ %fp + 0x48 ], %g1
    4f7c:	c2 08 40 00 	ldub  [ %g1 ], %g1
    4f80:	83 28 60 18 	sll  %g1, 0x18, %g1
    4f84:	83 38 60 18 	sra  %g1, 0x18, %g1
    4f88:	80 a0 60 2f 	cmp  %g1, 0x2f
    4f8c:	04 80 00 10 	ble  4fcc <ee_vsprintf+0x254>
    4f90:	01 00 00 00 	nop 
    4f94:	c2 07 a0 48 	ld  [ %fp + 0x48 ], %g1
    4f98:	c2 08 40 00 	ldub  [ %g1 ], %g1
    4f9c:	83 28 60 18 	sll  %g1, 0x18, %g1
    4fa0:	83 38 60 18 	sra  %g1, 0x18, %g1
    4fa4:	80 a0 60 39 	cmp  %g1, 0x39
    4fa8:	14 80 00 09 	bg  4fcc <ee_vsprintf+0x254>
    4fac:	01 00 00 00 	nop 
    4fb0:	82 07 a0 48 	add  %fp, 0x48, %g1
    4fb4:	90 10 00 01 	mov  %g1, %o0
    4fb8:	7f ff fc 7c 	call  41a8 <skip_atoi>
    4fbc:	01 00 00 00 	nop 
    4fc0:	d0 27 bf e0 	st  %o0, [ %fp + -32 ]
    4fc4:	10 80 00 12 	b  500c <ee_vsprintf+0x294>
    4fc8:	01 00 00 00 	nop 
    4fcc:	c2 07 a0 48 	ld  [ %fp + 0x48 ], %g1
    4fd0:	c2 08 40 00 	ldub  [ %g1 ], %g1
    4fd4:	83 28 60 18 	sll  %g1, 0x18, %g1
    4fd8:	83 38 60 18 	sra  %g1, 0x18, %g1
    4fdc:	80 a0 60 2a 	cmp  %g1, 0x2a
    4fe0:	12 80 00 0b 	bne  500c <ee_vsprintf+0x294>
    4fe4:	01 00 00 00 	nop 
    4fe8:	c2 07 a0 48 	ld  [ %fp + 0x48 ], %g1
    4fec:	82 00 60 01 	inc  %g1
    4ff0:	c2 27 a0 48 	st  %g1, [ %fp + 0x48 ]
    4ff4:	c2 07 a0 4c 	ld  [ %fp + 0x4c ], %g1
    4ff8:	c2 00 40 00 	ld  [ %g1 ], %g1
    4ffc:	c2 27 bf e0 	st  %g1, [ %fp + -32 ]
    5000:	c2 07 a0 4c 	ld  [ %fp + 0x4c ], %g1
    5004:	82 00 60 04 	add  %g1, 4, %g1
    5008:	c2 27 a0 4c 	st  %g1, [ %fp + 0x4c ]
    500c:	c2 07 bf e0 	ld  [ %fp + -32 ], %g1
    5010:	80 a0 60 00 	cmp  %g1, 0
    5014:	16 80 00 03 	bge  5020 <ee_vsprintf+0x2a8>
    5018:	01 00 00 00 	nop 
    501c:	c0 27 bf e0 	clr  [ %fp + -32 ]
    5020:	82 10 3f ff 	mov  -1, %g1
    5024:	c2 27 bf dc 	st  %g1, [ %fp + -36 ]
    5028:	c2 07 a0 48 	ld  [ %fp + 0x48 ], %g1
    502c:	c2 08 40 00 	ldub  [ %g1 ], %g1
    5030:	83 28 60 18 	sll  %g1, 0x18, %g1
    5034:	83 38 60 18 	sra  %g1, 0x18, %g1
    5038:	80 a0 60 6c 	cmp  %g1, 0x6c
    503c:	02 80 00 09 	be  5060 <ee_vsprintf+0x2e8>
    5040:	01 00 00 00 	nop 
    5044:	c2 07 a0 48 	ld  [ %fp + 0x48 ], %g1
    5048:	c2 08 40 00 	ldub  [ %g1 ], %g1
    504c:	83 28 60 18 	sll  %g1, 0x18, %g1
    5050:	83 38 60 18 	sra  %g1, 0x18, %g1
    5054:	80 a0 60 4c 	cmp  %g1, 0x4c
    5058:	12 80 00 0a 	bne  5080 <ee_vsprintf+0x308>
    505c:	01 00 00 00 	nop 
    5060:	c2 07 a0 48 	ld  [ %fp + 0x48 ], %g1
    5064:	c2 08 40 00 	ldub  [ %g1 ], %g1
    5068:	83 28 60 18 	sll  %g1, 0x18, %g1
    506c:	83 38 60 18 	sra  %g1, 0x18, %g1
    5070:	c2 27 bf dc 	st  %g1, [ %fp + -36 ]
    5074:	c2 07 a0 48 	ld  [ %fp + 0x48 ], %g1
    5078:	82 00 60 01 	inc  %g1
    507c:	c2 27 a0 48 	st  %g1, [ %fp + 0x48 ]
    5080:	82 10 20 0a 	mov  0xa, %g1
    5084:	c2 27 bf f4 	st  %g1, [ %fp + -12 ]
    5088:	c2 07 a0 48 	ld  [ %fp + 0x48 ], %g1
    508c:	c2 08 40 00 	ldub  [ %g1 ], %g1
    5090:	83 28 60 18 	sll  %g1, 0x18, %g1
    5094:	83 38 60 18 	sra  %g1, 0x18, %g1
    5098:	82 00 7f bf 	add  %g1, -65, %g1
    509c:	80 a0 60 37 	cmp  %g1, 0x37
    50a0:	18 80 00 e2 	bgu  5428 <ee_vsprintf+0x6b0>
    50a4:	01 00 00 00 	nop 
    50a8:	85 28 60 02 	sll  %g1, 2, %g2
    50ac:	03 00 00 0f 	sethi  %hi(0x3c00), %g1
    50b0:	82 10 63 f8 	or  %g1, 0x3f8, %g1	! 3ff8 <SW_trap_0xfe+0x18>
    50b4:	c2 00 80 01 	ld  [ %g2 + %g1 ], %g1
    50b8:	81 c0 40 00 	jmp  %g1
    50bc:	01 00 00 00 	nop 
    50c0:	c2 07 bf e8 	ld  [ %fp + -24 ], %g1
    50c4:	82 08 60 10 	and  %g1, 0x10, %g1
    50c8:	80 a0 60 00 	cmp  %g1, 0
    50cc:	12 80 00 11 	bne  5110 <ee_vsprintf+0x398>
    50d0:	01 00 00 00 	nop 
    50d4:	10 80 00 08 	b  50f4 <ee_vsprintf+0x37c>
    50d8:	01 00 00 00 	nop 
    50dc:	c2 07 bf f0 	ld  [ %fp + -16 ], %g1
    50e0:	84 10 20 20 	mov  0x20, %g2
    50e4:	c4 28 40 00 	stb  %g2, [ %g1 ]
    50e8:	c2 07 bf f0 	ld  [ %fp + -16 ], %g1
    50ec:	82 00 60 01 	inc  %g1
    50f0:	c2 27 bf f0 	st  %g1, [ %fp + -16 ]
    50f4:	c2 07 bf e4 	ld  [ %fp + -28 ], %g1
    50f8:	82 00 7f ff 	add  %g1, -1, %g1
    50fc:	c2 27 bf e4 	st  %g1, [ %fp + -28 ]
    5100:	c2 07 bf e4 	ld  [ %fp + -28 ], %g1
    5104:	80 a0 60 00 	cmp  %g1, 0
    5108:	14 bf ff f5 	bg  50dc <ee_vsprintf+0x364>
    510c:	01 00 00 00 	nop 
    5110:	c2 07 a0 4c 	ld  [ %fp + 0x4c ], %g1
    5114:	c2 00 40 00 	ld  [ %g1 ], %g1
    5118:	84 10 00 01 	mov  %g1, %g2
    511c:	c2 07 bf f0 	ld  [ %fp + -16 ], %g1
    5120:	c4 28 40 00 	stb  %g2, [ %g1 ]
    5124:	c2 07 bf f0 	ld  [ %fp + -16 ], %g1
    5128:	82 00 60 01 	inc  %g1
    512c:	c2 27 bf f0 	st  %g1, [ %fp + -16 ]
    5130:	c2 07 a0 4c 	ld  [ %fp + 0x4c ], %g1
    5134:	82 00 60 04 	add  %g1, 4, %g1
    5138:	c2 27 a0 4c 	st  %g1, [ %fp + 0x4c ]
    513c:	10 80 00 08 	b  515c <ee_vsprintf+0x3e4>
    5140:	01 00 00 00 	nop 
    5144:	c2 07 bf f0 	ld  [ %fp + -16 ], %g1
    5148:	84 10 20 20 	mov  0x20, %g2
    514c:	c4 28 40 00 	stb  %g2, [ %g1 ]
    5150:	c2 07 bf f0 	ld  [ %fp + -16 ], %g1
    5154:	82 00 60 01 	inc  %g1
    5158:	c2 27 bf f0 	st  %g1, [ %fp + -16 ]
    515c:	c2 07 bf e4 	ld  [ %fp + -28 ], %g1
    5160:	82 00 7f ff 	add  %g1, -1, %g1
    5164:	c2 27 bf e4 	st  %g1, [ %fp + -28 ]
    5168:	c2 07 bf e4 	ld  [ %fp + -28 ], %g1
    516c:	80 a0 60 00 	cmp  %g1, 0
    5170:	14 bf ff f5 	bg  5144 <ee_vsprintf+0x3cc>
    5174:	01 00 00 00 	nop 
    5178:	10 80 00 f8 	b  5558 <ee_vsprintf+0x7e0>
    517c:	01 00 00 00 	nop 
    5180:	c2 07 a0 4c 	ld  [ %fp + 0x4c ], %g1
    5184:	c2 00 40 00 	ld  [ %g1 ], %g1
    5188:	c2 27 bf ec 	st  %g1, [ %fp + -20 ]
    518c:	c2 07 a0 4c 	ld  [ %fp + 0x4c ], %g1
    5190:	82 00 60 04 	add  %g1, 4, %g1
    5194:	c2 27 a0 4c 	st  %g1, [ %fp + 0x4c ]
    5198:	c2 07 bf ec 	ld  [ %fp + -20 ], %g1
    519c:	80 a0 60 00 	cmp  %g1, 0
    51a0:	12 80 00 05 	bne  51b4 <ee_vsprintf+0x43c>
    51a4:	01 00 00 00 	nop 
    51a8:	03 00 01 00 	sethi  %hi(0x40000), %g1
    51ac:	82 10 60 50 	or  %g1, 0x50, %g1	! 40050 <__GI_memcpy+0x38cdc>
    51b0:	c2 27 bf ec 	st  %g1, [ %fp + -20 ]
    51b4:	c2 07 bf e0 	ld  [ %fp + -32 ], %g1
    51b8:	d0 07 bf ec 	ld  [ %fp + -20 ], %o0
    51bc:	92 10 00 01 	mov  %g1, %o1
    51c0:	7f ff fb d7 	call  411c <strnlen>
    51c4:	01 00 00 00 	nop 
    51c8:	82 10 00 08 	mov  %o0, %g1
    51cc:	c2 27 bf d8 	st  %g1, [ %fp + -40 ]
    51d0:	c2 07 bf e8 	ld  [ %fp + -24 ], %g1
    51d4:	82 08 60 10 	and  %g1, 0x10, %g1
    51d8:	80 a0 60 00 	cmp  %g1, 0
    51dc:	12 80 00 18 	bne  523c <ee_vsprintf+0x4c4>
    51e0:	01 00 00 00 	nop 
    51e4:	10 80 00 08 	b  5204 <ee_vsprintf+0x48c>
    51e8:	01 00 00 00 	nop 
    51ec:	c2 07 bf f0 	ld  [ %fp + -16 ], %g1
    51f0:	84 10 20 20 	mov  0x20, %g2
    51f4:	c4 28 40 00 	stb  %g2, [ %g1 ]
    51f8:	c2 07 bf f0 	ld  [ %fp + -16 ], %g1
    51fc:	82 00 60 01 	inc  %g1
    5200:	c2 27 bf f0 	st  %g1, [ %fp + -16 ]
    5204:	82 10 20 01 	mov  1, %g1
    5208:	c6 07 bf e4 	ld  [ %fp + -28 ], %g3
    520c:	c4 07 bf d8 	ld  [ %fp + -40 ], %g2
    5210:	80 a0 c0 02 	cmp  %g3, %g2
    5214:	14 80 00 03 	bg  5220 <ee_vsprintf+0x4a8>
    5218:	01 00 00 00 	nop 
    521c:	82 10 20 00 	clr  %g1	! 0 <_start>
    5220:	c4 07 bf e4 	ld  [ %fp + -28 ], %g2
    5224:	84 00 bf ff 	add  %g2, -1, %g2
    5228:	c4 27 bf e4 	st  %g2, [ %fp + -28 ]
    522c:	82 08 60 ff 	and  %g1, 0xff, %g1
    5230:	80 a0 60 00 	cmp  %g1, 0
    5234:	12 bf ff ee 	bne  51ec <ee_vsprintf+0x474>
    5238:	01 00 00 00 	nop 
    523c:	c0 27 bf f8 	clr  [ %fp + -8 ]
    5240:	10 80 00 0f 	b  527c <ee_vsprintf+0x504>
    5244:	01 00 00 00 	nop 
    5248:	c2 07 bf ec 	ld  [ %fp + -20 ], %g1
    524c:	c4 08 40 00 	ldub  [ %g1 ], %g2
    5250:	c2 07 bf f0 	ld  [ %fp + -16 ], %g1
    5254:	c4 28 40 00 	stb  %g2, [ %g1 ]
    5258:	c2 07 bf f0 	ld  [ %fp + -16 ], %g1
    525c:	82 00 60 01 	inc  %g1
    5260:	c2 27 bf f0 	st  %g1, [ %fp + -16 ]
    5264:	c2 07 bf ec 	ld  [ %fp + -20 ], %g1
    5268:	82 00 60 01 	inc  %g1
    526c:	c2 27 bf ec 	st  %g1, [ %fp + -20 ]
    5270:	c2 07 bf f8 	ld  [ %fp + -8 ], %g1
    5274:	82 00 60 01 	inc  %g1
    5278:	c2 27 bf f8 	st  %g1, [ %fp + -8 ]
    527c:	c4 07 bf f8 	ld  [ %fp + -8 ], %g2
    5280:	c2 07 bf d8 	ld  [ %fp + -40 ], %g1
    5284:	80 a0 80 01 	cmp  %g2, %g1
    5288:	06 bf ff f0 	bl  5248 <ee_vsprintf+0x4d0>
    528c:	01 00 00 00 	nop 
    5290:	10 80 00 08 	b  52b0 <ee_vsprintf+0x538>
    5294:	01 00 00 00 	nop 
    5298:	c2 07 bf f0 	ld  [ %fp + -16 ], %g1
    529c:	84 10 20 20 	mov  0x20, %g2
    52a0:	c4 28 40 00 	stb  %g2, [ %g1 ]
    52a4:	c2 07 bf f0 	ld  [ %fp + -16 ], %g1
    52a8:	82 00 60 01 	inc  %g1
    52ac:	c2 27 bf f0 	st  %g1, [ %fp + -16 ]
    52b0:	82 10 20 01 	mov  1, %g1
    52b4:	c6 07 bf e4 	ld  [ %fp + -28 ], %g3
    52b8:	c4 07 bf d8 	ld  [ %fp + -40 ], %g2
    52bc:	80 a0 c0 02 	cmp  %g3, %g2
    52c0:	14 80 00 03 	bg  52cc <ee_vsprintf+0x554>
    52c4:	01 00 00 00 	nop 
    52c8:	82 10 20 00 	clr  %g1	! 0 <_start>
    52cc:	c4 07 bf e4 	ld  [ %fp + -28 ], %g2
    52d0:	84 00 bf ff 	add  %g2, -1, %g2
    52d4:	c4 27 bf e4 	st  %g2, [ %fp + -28 ]
    52d8:	82 08 60 ff 	and  %g1, 0xff, %g1
    52dc:	80 a0 60 00 	cmp  %g1, 0
    52e0:	12 bf ff ee 	bne  5298 <ee_vsprintf+0x520>
    52e4:	01 00 00 00 	nop 
    52e8:	10 80 00 9c 	b  5558 <ee_vsprintf+0x7e0>
    52ec:	01 00 00 00 	nop 
    52f0:	c2 07 bf e4 	ld  [ %fp + -28 ], %g1
    52f4:	80 a0 7f ff 	cmp  %g1, -1
    52f8:	12 80 00 07 	bne  5314 <ee_vsprintf+0x59c>
    52fc:	01 00 00 00 	nop 
    5300:	82 10 20 08 	mov  8, %g1	! 8 <_start+0x8>
    5304:	c2 27 bf e4 	st  %g1, [ %fp + -28 ]
    5308:	c2 07 bf e8 	ld  [ %fp + -24 ], %g1
    530c:	82 10 60 01 	or  %g1, 1, %g1
    5310:	c2 27 bf e8 	st  %g1, [ %fp + -24 ]
    5314:	c2 07 a0 4c 	ld  [ %fp + 0x4c ], %g1
    5318:	c2 00 40 00 	ld  [ %g1 ], %g1
    531c:	c4 07 a0 4c 	ld  [ %fp + 0x4c ], %g2
    5320:	84 00 a0 04 	add  %g2, 4, %g2
    5324:	c4 27 a0 4c 	st  %g2, [ %fp + 0x4c ]
    5328:	d0 07 bf f0 	ld  [ %fp + -16 ], %o0
    532c:	92 10 00 01 	mov  %g1, %o1
    5330:	94 10 20 10 	mov  0x10, %o2
    5334:	d6 07 bf e4 	ld  [ %fp + -28 ], %o3
    5338:	d8 07 bf e0 	ld  [ %fp + -32 ], %o4
    533c:	da 07 bf e8 	ld  [ %fp + -24 ], %o5
    5340:	7f ff fb c3 	call  424c <number>
    5344:	01 00 00 00 	nop 
    5348:	d0 27 bf f0 	st  %o0, [ %fp + -16 ]
    534c:	10 80 00 83 	b  5558 <ee_vsprintf+0x7e0>
    5350:	01 00 00 00 	nop 
    5354:	c2 07 bf e8 	ld  [ %fp + -24 ], %g1
    5358:	82 10 60 40 	or  %g1, 0x40, %g1
    535c:	c2 27 bf e8 	st  %g1, [ %fp + -24 ]
    5360:	c2 07 bf dc 	ld  [ %fp + -36 ], %g1
    5364:	80 a0 60 6c 	cmp  %g1, 0x6c
    5368:	12 80 00 11 	bne  53ac <ee_vsprintf+0x634>
    536c:	01 00 00 00 	nop 
    5370:	c2 07 a0 4c 	ld  [ %fp + 0x4c ], %g1
    5374:	c2 00 40 00 	ld  [ %g1 ], %g1
    5378:	c4 07 a0 4c 	ld  [ %fp + 0x4c ], %g2
    537c:	84 00 a0 04 	add  %g2, 4, %g2
    5380:	c4 27 a0 4c 	st  %g2, [ %fp + 0x4c ]
    5384:	d0 07 bf f0 	ld  [ %fp + -16 ], %o0
    5388:	92 10 00 01 	mov  %g1, %o1
    538c:	d4 07 bf e4 	ld  [ %fp + -28 ], %o2
    5390:	d6 07 bf e0 	ld  [ %fp + -32 ], %o3
    5394:	d8 07 bf e8 	ld  [ %fp + -24 ], %o4
    5398:	7f ff fc fe 	call  4790 <eaddr>
    539c:	01 00 00 00 	nop 
    53a0:	d0 27 bf f0 	st  %o0, [ %fp + -16 ]
    53a4:	10 80 00 6d 	b  5558 <ee_vsprintf+0x7e0>
    53a8:	01 00 00 00 	nop 
    53ac:	c2 07 a0 4c 	ld  [ %fp + 0x4c ], %g1
    53b0:	c2 00 40 00 	ld  [ %g1 ], %g1
    53b4:	c4 07 a0 4c 	ld  [ %fp + 0x4c ], %g2
    53b8:	84 00 a0 04 	add  %g2, 4, %g2
    53bc:	c4 27 a0 4c 	st  %g2, [ %fp + 0x4c ]
    53c0:	d0 07 bf f0 	ld  [ %fp + -16 ], %o0
    53c4:	92 10 00 01 	mov  %g1, %o1
    53c8:	d4 07 bf e4 	ld  [ %fp + -28 ], %o2
    53cc:	d6 07 bf e0 	ld  [ %fp + -32 ], %o3
    53d0:	d8 07 bf e8 	ld  [ %fp + -24 ], %o4
    53d4:	7f ff fd 80 	call  49d4 <iaddr>
    53d8:	01 00 00 00 	nop 
    53dc:	d0 27 bf f0 	st  %o0, [ %fp + -16 ]
    53e0:	10 80 00 5e 	b  5558 <ee_vsprintf+0x7e0>
    53e4:	01 00 00 00 	nop 
    53e8:	82 10 20 08 	mov  8, %g1	! 8 <_start+0x8>
    53ec:	c2 27 bf f4 	st  %g1, [ %fp + -12 ]
    53f0:	10 80 00 31 	b  54b4 <ee_vsprintf+0x73c>
    53f4:	01 00 00 00 	nop 
    53f8:	c2 07 bf e8 	ld  [ %fp + -24 ], %g1
    53fc:	82 10 60 40 	or  %g1, 0x40, %g1
    5400:	c2 27 bf e8 	st  %g1, [ %fp + -24 ]
    5404:	82 10 20 10 	mov  0x10, %g1
    5408:	c2 27 bf f4 	st  %g1, [ %fp + -12 ]
    540c:	10 80 00 2a 	b  54b4 <ee_vsprintf+0x73c>
    5410:	01 00 00 00 	nop 
    5414:	c2 07 bf e8 	ld  [ %fp + -24 ], %g1
    5418:	82 10 60 02 	or  %g1, 2, %g1
    541c:	c2 27 bf e8 	st  %g1, [ %fp + -24 ]
    5420:	10 80 00 24 	b  54b0 <ee_vsprintf+0x738>
    5424:	01 00 00 00 	nop 
    5428:	c2 07 a0 48 	ld  [ %fp + 0x48 ], %g1
    542c:	c2 08 40 00 	ldub  [ %g1 ], %g1
    5430:	83 28 60 18 	sll  %g1, 0x18, %g1
    5434:	83 38 60 18 	sra  %g1, 0x18, %g1
    5438:	80 a0 60 25 	cmp  %g1, 0x25
    543c:	02 80 00 08 	be  545c <ee_vsprintf+0x6e4>
    5440:	01 00 00 00 	nop 
    5444:	c2 07 bf f0 	ld  [ %fp + -16 ], %g1
    5448:	84 10 20 25 	mov  0x25, %g2
    544c:	c4 28 40 00 	stb  %g2, [ %g1 ]
    5450:	c2 07 bf f0 	ld  [ %fp + -16 ], %g1
    5454:	82 00 60 01 	inc  %g1
    5458:	c2 27 bf f0 	st  %g1, [ %fp + -16 ]
    545c:	c2 07 a0 48 	ld  [ %fp + 0x48 ], %g1
    5460:	c2 08 40 00 	ldub  [ %g1 ], %g1
    5464:	83 28 60 18 	sll  %g1, 0x18, %g1
    5468:	83 38 60 18 	sra  %g1, 0x18, %g1
    546c:	80 a0 60 00 	cmp  %g1, 0
    5470:	02 80 00 0b 	be  549c <ee_vsprintf+0x724>
    5474:	01 00 00 00 	nop 
    5478:	c2 07 a0 48 	ld  [ %fp + 0x48 ], %g1
    547c:	c4 08 40 00 	ldub  [ %g1 ], %g2
    5480:	c2 07 bf f0 	ld  [ %fp + -16 ], %g1
    5484:	c4 28 40 00 	stb  %g2, [ %g1 ]
    5488:	c2 07 bf f0 	ld  [ %fp + -16 ], %g1
    548c:	82 00 60 01 	inc  %g1
    5490:	c2 27 bf f0 	st  %g1, [ %fp + -16 ]
    5494:	10 80 00 31 	b  5558 <ee_vsprintf+0x7e0>
    5498:	01 00 00 00 	nop 
    549c:	c2 07 a0 48 	ld  [ %fp + 0x48 ], %g1
    54a0:	82 00 7f ff 	add  %g1, -1, %g1
    54a4:	c2 27 a0 48 	st  %g1, [ %fp + 0x48 ]
    54a8:	10 80 00 2c 	b  5558 <ee_vsprintf+0x7e0>
    54ac:	01 00 00 00 	nop 
    54b0:	01 00 00 00 	nop 
    54b4:	c2 07 bf dc 	ld  [ %fp + -36 ], %g1
    54b8:	80 a0 60 6c 	cmp  %g1, 0x6c
    54bc:	12 80 00 0a 	bne  54e4 <ee_vsprintf+0x76c>
    54c0:	01 00 00 00 	nop 
    54c4:	c2 07 a0 4c 	ld  [ %fp + 0x4c ], %g1
    54c8:	c2 00 40 00 	ld  [ %g1 ], %g1
    54cc:	c2 27 bf fc 	st  %g1, [ %fp + -4 ]
    54d0:	c2 07 a0 4c 	ld  [ %fp + 0x4c ], %g1
    54d4:	82 00 60 04 	add  %g1, 4, %g1
    54d8:	c2 27 a0 4c 	st  %g1, [ %fp + 0x4c ]
    54dc:	10 80 00 15 	b  5530 <ee_vsprintf+0x7b8>
    54e0:	01 00 00 00 	nop 
    54e4:	c2 07 bf e8 	ld  [ %fp + -24 ], %g1
    54e8:	82 08 60 02 	and  %g1, 2, %g1
    54ec:	80 a0 60 00 	cmp  %g1, 0
    54f0:	02 80 00 0a 	be  5518 <ee_vsprintf+0x7a0>
    54f4:	01 00 00 00 	nop 
    54f8:	c2 07 a0 4c 	ld  [ %fp + 0x4c ], %g1
    54fc:	c2 00 40 00 	ld  [ %g1 ], %g1
    5500:	c2 27 bf fc 	st  %g1, [ %fp + -4 ]
    5504:	c2 07 a0 4c 	ld  [ %fp + 0x4c ], %g1
    5508:	82 00 60 04 	add  %g1, 4, %g1
    550c:	c2 27 a0 4c 	st  %g1, [ %fp + 0x4c ]
    5510:	10 80 00 08 	b  5530 <ee_vsprintf+0x7b8>
    5514:	01 00 00 00 	nop 
    5518:	c2 07 a0 4c 	ld  [ %fp + 0x4c ], %g1
    551c:	c2 00 40 00 	ld  [ %g1 ], %g1
    5520:	c2 27 bf fc 	st  %g1, [ %fp + -4 ]
    5524:	c2 07 a0 4c 	ld  [ %fp + 0x4c ], %g1
    5528:	82 00 60 04 	add  %g1, 4, %g1
    552c:	c2 27 a0 4c 	st  %g1, [ %fp + 0x4c ]
    5530:	c2 07 bf fc 	ld  [ %fp + -4 ], %g1
    5534:	d0 07 bf f0 	ld  [ %fp + -16 ], %o0
    5538:	92 10 00 01 	mov  %g1, %o1
    553c:	d4 07 bf f4 	ld  [ %fp + -12 ], %o2
    5540:	d6 07 bf e4 	ld  [ %fp + -28 ], %o3
    5544:	d8 07 bf e0 	ld  [ %fp + -32 ], %o4
    5548:	da 07 bf e8 	ld  [ %fp + -24 ], %o5
    554c:	7f ff fb 40 	call  424c <number>
    5550:	01 00 00 00 	nop 
    5554:	d0 27 bf f0 	st  %o0, [ %fp + -16 ]
    5558:	c2 07 a0 48 	ld  [ %fp + 0x48 ], %g1
    555c:	82 00 60 01 	inc  %g1
    5560:	c2 27 a0 48 	st  %g1, [ %fp + 0x48 ]
    5564:	c2 07 a0 48 	ld  [ %fp + 0x48 ], %g1
    5568:	c2 08 40 00 	ldub  [ %g1 ], %g1
    556c:	83 28 60 18 	sll  %g1, 0x18, %g1
    5570:	83 38 60 18 	sra  %g1, 0x18, %g1
    5574:	80 a0 60 00 	cmp  %g1, 0
    5578:	12 bf fe 08 	bne  4d98 <ee_vsprintf+0x20>
    557c:	01 00 00 00 	nop 
    5580:	c2 07 bf f0 	ld  [ %fp + -16 ], %g1
    5584:	c0 28 40 00 	clrb  [ %g1 ]
    5588:	c4 07 bf f0 	ld  [ %fp + -16 ], %g2
    558c:	c2 07 a0 44 	ld  [ %fp + 0x44 ], %g1
    5590:	82 20 80 01 	sub  %g2, %g1, %g1
    5594:	b0 10 00 01 	mov  %g1, %i0
    5598:	81 e8 00 00 	restore 
    559c:	81 c3 e0 08 	retl 
    55a0:	01 00 00 00 	nop 

000055a4 <uart_send_char>:
    55a4:	9d e3 bf 98 	save  %sp, -104, %sp
    55a8:	82 10 00 18 	mov  %i0, %g1
    55ac:	c2 2f a0 44 	stb  %g1, [ %fp + 0x44 ]
    55b0:	10 80 00 03 	b  55bc <uart_send_char+0x18>
    55b4:	01 00 00 00 	nop 
    55b8:	01 00 00 00 	nop 
    55bc:	c2 0f a0 44 	ldub  [ %fp + 0x44 ], %g1
    55c0:	83 28 60 18 	sll  %g1, 0x18, %g1
    55c4:	83 38 60 18 	sra  %g1, 0x18, %g1
    55c8:	90 10 00 01 	mov  %g1, %o0
    55cc:	40 00 02 66 	call  5f64 <__ajit_serial_putchar__>
    55d0:	01 00 00 00 	nop 
    55d4:	d0 27 bf fc 	st  %o0, [ %fp + -4 ]
    55d8:	c2 07 bf fc 	ld  [ %fp + -4 ], %g1
    55dc:	80 a0 60 00 	cmp  %g1, 0
    55e0:	02 bf ff f6 	be  55b8 <uart_send_char+0x14>
    55e4:	01 00 00 00 	nop 
    55e8:	01 00 00 00 	nop 
    55ec:	10 80 00 03 	b  55f8 <uart_send_char+0x54>
    55f0:	01 00 00 00 	nop 
    55f4:	01 00 00 00 	nop 
    55f8:	c0 27 bf f8 	clr  [ %fp + -8 ]
    55fc:	03 3f ff cc 	sethi  %hi(0xffff3000), %g1
    5600:	82 10 62 00 	or  %g1, 0x200, %g1	! ffff3200 <upper_digits+0xfffb316c>
    5604:	fa 80 44 00 	lda  [ %g1 ] #ASI_SCRATCHPAD, %i5
    5608:	fa 27 bf f8 	st  %i5, [ %fp + -8 ]
    560c:	c2 07 bf f8 	ld  [ %fp + -8 ], %g1
    5610:	82 08 60 08 	and  %g1, 8, %g1
    5614:	80 a0 60 00 	cmp  %g1, 0
    5618:	02 80 00 07 	be  5634 <uart_send_char+0x90>
    561c:	01 00 00 00 	nop 
    5620:	c2 07 bf f8 	ld  [ %fp + -8 ], %g1
    5624:	82 08 60 01 	and  %g1, 1, %g1
    5628:	80 a0 60 00 	cmp  %g1, 0
    562c:	12 bf ff f2 	bne  55f4 <uart_send_char+0x50>
    5630:	01 00 00 00 	nop 
    5634:	81 e8 00 00 	restore 
    5638:	81 c3 e0 08 	retl 
    563c:	01 00 00 00 	nop 

00005640 <ee_printf>:
    5640:	9d e3 bb 90 	save  %sp, -1136, %sp
    5644:	f2 27 a0 48 	st  %i1, [ %fp + 0x48 ]
    5648:	f4 27 a0 4c 	st  %i2, [ %fp + 0x4c ]
    564c:	f6 27 a0 50 	st  %i3, [ %fp + 0x50 ]
    5650:	f8 27 a0 54 	st  %i4, [ %fp + 0x54 ]
    5654:	fa 27 a0 58 	st  %i5, [ %fp + 0x58 ]
    5658:	f0 27 a0 44 	st  %i0, [ %fp + 0x44 ]
    565c:	c0 27 bf f8 	clr  [ %fp + -8 ]
    5660:	82 07 a0 48 	add  %fp, 0x48, %g1
    5664:	c2 27 bb f4 	st  %g1, [ %fp + -1036 ]
    5668:	c2 07 bb f4 	ld  [ %fp + -1036 ], %g1
    566c:	84 07 bb f8 	add  %fp, -1032, %g2
    5670:	90 10 00 02 	mov  %g2, %o0
    5674:	d2 07 a0 44 	ld  [ %fp + 0x44 ], %o1
    5678:	94 10 00 01 	mov  %g1, %o2
    567c:	7f ff fd bf 	call  4d78 <ee_vsprintf>
    5680:	01 00 00 00 	nop 
    5684:	82 07 bb f8 	add  %fp, -1032, %g1
    5688:	c2 27 bf fc 	st  %g1, [ %fp + -4 ]
    568c:	10 80 00 0f 	b  56c8 <ee_printf+0x88>
    5690:	01 00 00 00 	nop 
    5694:	c2 07 bf fc 	ld  [ %fp + -4 ], %g1
    5698:	c2 08 40 00 	ldub  [ %g1 ], %g1
    569c:	83 28 60 18 	sll  %g1, 0x18, %g1
    56a0:	83 38 60 18 	sra  %g1, 0x18, %g1
    56a4:	90 10 00 01 	mov  %g1, %o0
    56a8:	7f ff ff bf 	call  55a4 <uart_send_char>
    56ac:	01 00 00 00 	nop 
    56b0:	c2 07 bf f8 	ld  [ %fp + -8 ], %g1
    56b4:	82 00 60 01 	inc  %g1
    56b8:	c2 27 bf f8 	st  %g1, [ %fp + -8 ]
    56bc:	c2 07 bf fc 	ld  [ %fp + -4 ], %g1
    56c0:	82 00 60 01 	inc  %g1
    56c4:	c2 27 bf fc 	st  %g1, [ %fp + -4 ]
    56c8:	c2 07 bf fc 	ld  [ %fp + -4 ], %g1
    56cc:	c2 08 40 00 	ldub  [ %g1 ], %g1
    56d0:	83 28 60 18 	sll  %g1, 0x18, %g1
    56d4:	83 38 60 18 	sra  %g1, 0x18, %g1
    56d8:	80 a0 60 00 	cmp  %g1, 0
    56dc:	12 bf ff ee 	bne  5694 <ee_printf+0x54>
    56e0:	01 00 00 00 	nop 
    56e4:	c2 07 bf f8 	ld  [ %fp + -8 ], %g1
    56e8:	b0 10 00 01 	mov  %g1, %i0
    56ec:	81 e8 00 00 	restore 
    56f0:	81 c3 e0 08 	retl 
    56f4:	01 00 00 00 	nop 

000056f8 <__ajit_clear_all_gp_registers__>:
    56f8:	9d e3 bf 98 	save  %sp, -104, %sp
    56fc:	82 10 00 00 	mov  %g0, %g1
    5700:	84 10 00 00 	mov  %g0, %g2
    5704:	86 10 00 00 	mov  %g0, %g3
    5708:	88 10 00 00 	mov  %g0, %g4
    570c:	8a 10 00 00 	mov  %g0, %g5
    5710:	8c 10 00 00 	mov  %g0, %g6
    5714:	8e 10 00 00 	mov  %g0, %g7
    5718:	b0 10 00 00 	mov  %g0, %i0
    571c:	b2 10 00 00 	mov  %g0, %i1
    5720:	b4 10 00 00 	mov  %g0, %i2
    5724:	b6 10 00 00 	mov  %g0, %i3
    5728:	b8 10 00 00 	mov  %g0, %i4
    572c:	ba 10 00 00 	mov  %g0, %i5
    5730:	bc 10 00 00 	mov  %g0, %fp
    5734:	be 10 00 00 	mov  %g0, %i7
    5738:	a0 10 00 00 	mov  %g0, %l0
    573c:	a2 10 00 00 	mov  %g0, %l1
    5740:	a4 10 00 00 	mov  %g0, %l2
    5744:	a6 10 00 00 	mov  %g0, %l3
    5748:	a8 10 00 00 	mov  %g0, %l4
    574c:	aa 10 00 00 	mov  %g0, %l5
    5750:	ac 10 00 00 	mov  %g0, %l6
    5754:	ae 10 00 00 	mov  %g0, %l7
    5758:	90 10 00 00 	mov  %g0, %o0
    575c:	92 10 00 00 	mov  %g0, %o1
    5760:	94 10 00 00 	mov  %g0, %o2
    5764:	96 10 00 00 	mov  %g0, %o3
    5768:	98 10 00 00 	mov  %g0, %o4
    576c:	9a 10 00 00 	mov  %g0, %o5
    5770:	9c 10 00 00 	mov  %g0, %sp
    5774:	9e 10 00 00 	mov  %g0, %o7
    5778:	c0 27 bf fc 	clr  [ %fp + -4 ]
    577c:	c0 27 bf fc 	clr  [ %fp + -4 ]
    5780:	10 80 00 16 	b  57d8 <__ajit_clear_all_gp_registers__+0xe0>
    5784:	01 00 00 00 	nop 
    5788:	81 e0 00 00 	save 
    578c:	a0 10 00 00 	mov  %g0, %l0
    5790:	a2 10 00 00 	mov  %g0, %l1
    5794:	a4 10 00 00 	mov  %g0, %l2
    5798:	a6 10 00 00 	mov  %g0, %l3
    579c:	a8 10 00 00 	mov  %g0, %l4
    57a0:	aa 10 00 00 	mov  %g0, %l5
    57a4:	ac 10 00 00 	mov  %g0, %l6
    57a8:	ae 10 00 00 	mov  %g0, %l7
    57ac:	90 10 00 00 	mov  %g0, %o0
    57b0:	92 10 00 00 	mov  %g0, %o1
    57b4:	94 10 00 00 	mov  %g0, %o2
    57b8:	96 10 00 00 	mov  %g0, %o3
    57bc:	98 10 00 00 	mov  %g0, %o4
    57c0:	9a 10 00 00 	mov  %g0, %o5
    57c4:	9c 10 00 00 	mov  %g0, %sp
    57c8:	9e 10 00 00 	mov  %g0, %o7
    57cc:	c2 07 bf fc 	ld  [ %fp + -4 ], %g1
    57d0:	82 00 60 01 	inc  %g1
    57d4:	c2 27 bf fc 	st  %g1, [ %fp + -4 ]
    57d8:	c2 07 bf fc 	ld  [ %fp + -4 ], %g1
    57dc:	80 a0 60 06 	cmp  %g1, 6
    57e0:	04 bf ff ea 	ble  5788 <__ajit_clear_all_gp_registers__+0x90>
    57e4:	01 00 00 00 	nop 
    57e8:	c0 27 bf fc 	clr  [ %fp + -4 ]
    57ec:	10 80 00 06 	b  5804 <__ajit_clear_all_gp_registers__+0x10c>
    57f0:	01 00 00 00 	nop 
    57f4:	81 e8 00 00 	restore 
    57f8:	c2 07 bf fc 	ld  [ %fp + -4 ], %g1
    57fc:	82 00 60 01 	inc  %g1
    5800:	c2 27 bf fc 	st  %g1, [ %fp + -4 ]
    5804:	c2 07 bf fc 	ld  [ %fp + -4 ], %g1
    5808:	80 a0 60 06 	cmp  %g1, 6
    580c:	04 bf ff fa 	ble  57f4 <__ajit_clear_all_gp_registers__+0xfc>
    5810:	01 00 00 00 	nop 
    5814:	81 e8 00 00 	restore 
    5818:	81 c3 e0 08 	retl 
    581c:	01 00 00 00 	nop 

00005820 <__ajit_read_core_thread_id_word__>:
    5820:	9d e3 bf 98 	save  %sp, -104, %sp
    5824:	bb 47 40 00 	rd  %asr29, %i5
    5828:	fa 27 bf fc 	st  %i5, [ %fp + -4 ]
    582c:	c2 07 bf fc 	ld  [ %fp + -4 ], %g1
    5830:	b0 10 00 01 	mov  %g1, %i0
    5834:	81 e8 00 00 	restore 
    5838:	81 c3 e0 08 	retl 
    583c:	01 00 00 00 	nop 

00005840 <ajit_get_core_and_thread_id>:
    5840:	9d e3 bf 98 	save  %sp, -104, %sp
    5844:	f0 27 a0 44 	st  %i0, [ %fp + 0x44 ]
    5848:	f2 27 a0 48 	st  %i1, [ %fp + 0x48 ]
    584c:	7f ff ff f5 	call  5820 <__ajit_read_core_thread_id_word__>
    5850:	01 00 00 00 	nop 
    5854:	d0 27 bf fc 	st  %o0, [ %fp + -4 ]
    5858:	c2 07 bf fc 	ld  [ %fp + -4 ], %g1
    585c:	83 30 60 08 	srl  %g1, 8, %g1
    5860:	84 10 00 01 	mov  %g1, %g2
    5864:	c2 07 a0 44 	ld  [ %fp + 0x44 ], %g1
    5868:	c4 28 40 00 	stb  %g2, [ %g1 ]
    586c:	c2 07 bf fc 	ld  [ %fp + -4 ], %g1
    5870:	84 10 00 01 	mov  %g1, %g2
    5874:	c2 07 a0 48 	ld  [ %fp + 0x48 ], %g1
    5878:	c4 28 40 00 	stb  %g2, [ %g1 ]
    587c:	81 e8 00 00 	restore 
    5880:	81 c3 e0 08 	retl 
    5884:	01 00 00 00 	nop 

00005888 <__ajit_read_cycle_count_register_high__>:
    5888:	9d e3 bf 98 	save  %sp, -104, %sp
    588c:	bb 47 80 00 	rd  %asr30, %i5
    5890:	fa 27 bf fc 	st  %i5, [ %fp + -4 ]
    5894:	c2 07 bf fc 	ld  [ %fp + -4 ], %g1
    5898:	b0 10 00 01 	mov  %g1, %i0
    589c:	81 e8 00 00 	restore 
    58a0:	81 c3 e0 08 	retl 
    58a4:	01 00 00 00 	nop 

000058a8 <__ajit_read_cycle_count_register_low__>:
    58a8:	9d e3 bf 98 	save  %sp, -104, %sp
    58ac:	bb 47 c0 00 	rd  %asr31, %i5
    58b0:	fa 27 bf fc 	st  %i5, [ %fp + -4 ]
    58b4:	c2 07 bf fc 	ld  [ %fp + -4 ], %g1
    58b8:	b0 10 00 01 	mov  %g1, %i0
    58bc:	81 e8 00 00 	restore 
    58c0:	81 c3 e0 08 	retl 
    58c4:	01 00 00 00 	nop 

000058c8 <__ajit_get_clock_time>:
    58c8:	9d e3 bf 90 	save  %sp, -112, %sp
    58cc:	7f ff ff f7 	call  58a8 <__ajit_read_cycle_count_register_low__>
    58d0:	01 00 00 00 	nop 
    58d4:	d0 27 bf fc 	st  %o0, [ %fp + -4 ]
    58d8:	7f ff ff ec 	call  5888 <__ajit_read_cycle_count_register_high__>
    58dc:	01 00 00 00 	nop 
    58e0:	d0 27 bf f8 	st  %o0, [ %fp + -8 ]
    58e4:	c2 07 bf f8 	ld  [ %fp + -8 ], %g1
    58e8:	84 10 20 00 	clr  %g2
    58ec:	86 10 00 01 	mov  %g1, %g3
    58f0:	c4 3f bf f0 	std  %g2, [ %fp + -16 ]
    58f4:	c2 07 bf f4 	ld  [ %fp + -12 ], %g1
    58f8:	83 28 60 00 	sll  %g1, 0, %g1
    58fc:	c2 27 bf f0 	st  %g1, [ %fp + -16 ]
    5900:	c0 27 bf f4 	clr  [ %fp + -12 ]
    5904:	c2 07 bf fc 	ld  [ %fp + -4 ], %g1
    5908:	84 10 20 00 	clr  %g2
    590c:	86 10 00 01 	mov  %g1, %g3
    5910:	f8 1f bf f0 	ldd  [ %fp + -16 ], %i4
    5914:	84 17 00 02 	or  %i4, %g2, %g2
    5918:	86 17 40 03 	or  %i5, %g3, %g3
    591c:	c4 3f bf f0 	std  %g2, [ %fp + -16 ]
    5920:	c4 1f bf f0 	ldd  [ %fp + -16 ], %g2
    5924:	b0 10 00 02 	mov  %g2, %i0
    5928:	b2 10 00 03 	mov  %g3, %i1
    592c:	81 e8 00 00 	restore 
    5930:	81 c3 e0 08 	retl 
    5934:	01 00 00 00 	nop 

00005938 <__ajit_sleep__>:
    5938:	9d e3 bf 90 	save  %sp, -112, %sp
    593c:	f0 27 a0 44 	st  %i0, [ %fp + 0x44 ]
    5940:	7f ff ff e2 	call  58c8 <__ajit_get_clock_time>
    5944:	01 00 00 00 	nop 
    5948:	d0 3f bf f8 	std  %o0, [ %fp + -8 ]
    594c:	c2 07 a0 44 	ld  [ %fp + 0x44 ], %g1
    5950:	b4 10 20 00 	clr  %i2
    5954:	b6 10 00 01 	mov  %g1, %i3
    5958:	f8 1f bf f8 	ldd  [ %fp + -8 ], %i4
    595c:	86 86 c0 1d 	addcc  %i3, %i5, %g3
    5960:	84 46 80 1c 	addx  %i2, %i4, %g2
    5964:	c4 3f bf f0 	std  %g2, [ %fp + -16 ]
    5968:	10 80 00 05 	b  597c <__ajit_sleep__+0x44>
    596c:	01 00 00 00 	nop 
    5970:	7f ff ff d6 	call  58c8 <__ajit_get_clock_time>
    5974:	01 00 00 00 	nop 
    5978:	d0 3f bf f8 	std  %o0, [ %fp + -8 ]
    597c:	c4 07 bf f0 	ld  [ %fp + -16 ], %g2
    5980:	c2 07 bf f8 	ld  [ %fp + -8 ], %g1
    5984:	80 a0 80 01 	cmp  %g2, %g1
    5988:	18 bf ff fa 	bgu  5970 <__ajit_sleep__+0x38>
    598c:	01 00 00 00 	nop 
    5990:	c4 07 bf f0 	ld  [ %fp + -16 ], %g2
    5994:	c2 07 bf f8 	ld  [ %fp + -8 ], %g1
    5998:	80 a0 80 01 	cmp  %g2, %g1
    599c:	12 80 00 07 	bne  59b8 <__ajit_sleep__+0x80>
    59a0:	01 00 00 00 	nop 
    59a4:	c4 07 bf f4 	ld  [ %fp + -12 ], %g2
    59a8:	c2 07 bf fc 	ld  [ %fp + -4 ], %g1
    59ac:	80 a0 80 01 	cmp  %g2, %g1
    59b0:	18 bf ff f0 	bgu  5970 <__ajit_sleep__+0x38>
    59b4:	01 00 00 00 	nop 
    59b8:	01 00 00 00 	nop 
    59bc:	81 e8 00 00 	restore 
    59c0:	81 c3 e0 08 	retl 
    59c4:	01 00 00 00 	nop 

000059c8 <__ajit_set_mmu_default_cacheable_bit__>:
    59c8:	9d e3 bf 98 	save  %sp, -104, %sp
    59cc:	82 10 00 18 	mov  %i0, %g1
    59d0:	c2 2f a0 44 	stb  %g1, [ %fp + 0x44 ]
    59d4:	c2 0f a0 44 	ldub  [ %fp + 0x44 ], %g1
    59d8:	82 08 60 ff 	and  %g1, 0xff, %g1
    59dc:	80 a0 60 00 	cmp  %g1, 0
    59e0:	02 80 00 05 	be  59f4 <__ajit_set_mmu_default_cacheable_bit__+0x2c>
    59e4:	01 00 00 00 	nop 
    59e8:	82 10 21 00 	mov  0x100, %g1	! 100 <instr_section+0xa8>
    59ec:	10 80 00 03 	b  59f8 <__ajit_set_mmu_default_cacheable_bit__+0x30>
    59f0:	01 00 00 00 	nop 
    59f4:	82 10 20 00 	clr  %g1	! 0 <_start>
    59f8:	c2 27 bf fc 	st  %g1, [ %fp + -4 ]
    59fc:	c0 27 bf f8 	clr  [ %fp + -8 ]
    5a00:	c2 07 bf fc 	ld  [ %fp + -4 ], %g1
    5a04:	c4 07 bf f8 	ld  [ %fp + -8 ], %g2
    5a08:	c2 a0 80 80 	sta  %g1, [ %g2 ] #ASI_N
    5a0c:	81 e8 00 00 	restore 
    5a10:	81 c3 e0 08 	retl 
    5a14:	01 00 00 00 	nop 

00005a18 <__ajit_store_word_mmu_reg__>:
    5a18:	9d e3 bf a0 	save  %sp, -96, %sp
    5a1c:	f0 27 a0 44 	st  %i0, [ %fp + 0x44 ]
    5a20:	f2 27 a0 48 	st  %i1, [ %fp + 0x48 ]
    5a24:	c2 07 a0 44 	ld  [ %fp + 0x44 ], %g1
    5a28:	c4 07 a0 48 	ld  [ %fp + 0x48 ], %g2
    5a2c:	c2 a0 80 80 	sta  %g1, [ %g2 ] #ASI_N
    5a30:	81 e8 00 00 	restore 
    5a34:	81 c3 e0 08 	retl 
    5a38:	01 00 00 00 	nop 

00005a3c <__ajit_store_word_mmu_bypass__>:
    5a3c:	9d e3 bf a0 	save  %sp, -96, %sp
    5a40:	f0 27 a0 44 	st  %i0, [ %fp + 0x44 ]
    5a44:	f2 27 a0 48 	st  %i1, [ %fp + 0x48 ]
    5a48:	c2 07 a0 44 	ld  [ %fp + 0x44 ], %g1
    5a4c:	c4 07 a0 48 	ld  [ %fp + 0x48 ], %g2
    5a50:	c2 a0 84 00 	sta  %g1, [ %g2 ] #ASI_SCRATCHPAD
    5a54:	81 e8 00 00 	restore 
    5a58:	81 c3 e0 08 	retl 
    5a5c:	01 00 00 00 	nop 

00005a60 <__ajit_load_word_mmu_reg__>:
    5a60:	9d e3 bf 98 	save  %sp, -104, %sp
    5a64:	f0 27 a0 44 	st  %i0, [ %fp + 0x44 ]
    5a68:	c2 07 a0 44 	ld  [ %fp + 0x44 ], %g1
    5a6c:	fa 80 40 80 	lda  [ %g1 ] #ASI_N, %i5
    5a70:	fa 27 bf fc 	st  %i5, [ %fp + -4 ]
    5a74:	c2 07 bf fc 	ld  [ %fp + -4 ], %g1
    5a78:	b0 10 00 01 	mov  %g1, %i0
    5a7c:	81 e8 00 00 	restore 
    5a80:	81 c3 e0 08 	retl 
    5a84:	01 00 00 00 	nop 

00005a88 <__ajit_load_word_mmu_bypass__>:
    5a88:	9d e3 bf 98 	save  %sp, -104, %sp
    5a8c:	f0 27 a0 44 	st  %i0, [ %fp + 0x44 ]
    5a90:	c2 07 a0 44 	ld  [ %fp + 0x44 ], %g1
    5a94:	fa 80 44 00 	lda  [ %g1 ] #ASI_SCRATCHPAD, %i5
    5a98:	fa 27 bf fc 	st  %i5, [ %fp + -4 ]
    5a9c:	c2 07 bf fc 	ld  [ %fp + -4 ], %g1
    5aa0:	b0 10 00 01 	mov  %g1, %i0
    5aa4:	81 e8 00 00 	restore 
    5aa8:	81 c3 e0 08 	retl 
    5aac:	01 00 00 00 	nop 

00005ab0 <__ajit_flush_icache__>:
    5ab0:	9d e3 bf a0 	save  %sp, -96, %sp
    5ab4:	81 d8 20 00 	flush  %g0
    5ab8:	81 e8 00 00 	restore 
    5abc:	81 c3 e0 08 	retl 
    5ac0:	01 00 00 00 	nop 

00005ac4 <__ajit_flush_dcache__>:
    5ac4:	9d e3 bf a0 	save  %sp, -96, %sp
    5ac8:	c0 a0 02 60 	sta  %g0, [ %g0 ] (19)
    5acc:	81 e8 00 00 	restore 
    5ad0:	81 c3 e0 08 	retl 
    5ad4:	01 00 00 00 	nop 

00005ad8 <__ajit_write_timer_control_register__>:
    5ad8:	9d e3 bf 98 	save  %sp, -104, %sp
    5adc:	f0 27 a0 44 	st  %i0, [ %fp + 0x44 ]
    5ae0:	03 3f ff cc 	sethi  %hi(0xffff3000), %g1
    5ae4:	82 10 61 00 	or  %g1, 0x100, %g1	! ffff3100 <upper_digits+0xfffb306c>
    5ae8:	c2 27 bf fc 	st  %g1, [ %fp + -4 ]
    5aec:	d0 07 a0 44 	ld  [ %fp + 0x44 ], %o0
    5af0:	d2 07 bf fc 	ld  [ %fp + -4 ], %o1
    5af4:	7f ff ff d2 	call  5a3c <__ajit_store_word_mmu_bypass__>
    5af8:	01 00 00 00 	nop 
    5afc:	81 e8 00 00 	restore 
    5b00:	81 c3 e0 08 	retl 
    5b04:	01 00 00 00 	nop 

00005b08 <__ajit_read_timer_control_register__>:
    5b08:	9d e3 bf 98 	save  %sp, -104, %sp
    5b0c:	03 3f ff cc 	sethi  %hi(0xffff3000), %g1
    5b10:	90 10 61 00 	or  %g1, 0x100, %o0	! ffff3100 <upper_digits+0xfffb306c>
    5b14:	7f ff ff dd 	call  5a88 <__ajit_load_word_mmu_bypass__>
    5b18:	01 00 00 00 	nop 
    5b1c:	d0 27 bf fc 	st  %o0, [ %fp + -4 ]
    5b20:	c2 07 bf fc 	ld  [ %fp + -4 ], %g1
    5b24:	b0 10 00 01 	mov  %g1, %i0
    5b28:	81 e8 00 00 	restore 
    5b2c:	81 c3 e0 08 	retl 
    5b30:	01 00 00 00 	nop 

00005b34 <__ajit_write_timer_control_register_via_vmap__>:
    5b34:	9d e3 bf a0 	save  %sp, -96, %sp
    5b38:	f0 27 a0 44 	st  %i0, [ %fp + 0x44 ]
    5b3c:	03 3f ff cc 	sethi  %hi(0xffff3000), %g1
    5b40:	82 10 61 00 	or  %g1, 0x100, %g1	! ffff3100 <upper_digits+0xfffb306c>
    5b44:	c4 07 a0 44 	ld  [ %fp + 0x44 ], %g2
    5b48:	c4 20 40 00 	st  %g2, [ %g1 ]
    5b4c:	81 e8 00 00 	restore 
    5b50:	81 c3 e0 08 	retl 
    5b54:	01 00 00 00 	nop 

00005b58 <__ajit_read_timer_control_register_via_vmap__>:
    5b58:	9d e3 bf 98 	save  %sp, -104, %sp
    5b5c:	03 3f ff cc 	sethi  %hi(0xffff3000), %g1
    5b60:	82 10 61 00 	or  %g1, 0x100, %g1	! ffff3100 <upper_digits+0xfffb306c>
    5b64:	c2 00 40 00 	ld  [ %g1 ], %g1
    5b68:	c2 27 bf fc 	st  %g1, [ %fp + -4 ]
    5b6c:	c2 07 bf fc 	ld  [ %fp + -4 ], %g1
    5b70:	b0 10 00 01 	mov  %g1, %i0
    5b74:	81 e8 00 00 	restore 
    5b78:	81 c3 e0 08 	retl 
    5b7c:	01 00 00 00 	nop 

00005b80 <__ajit_write_serial_control_register__>:
    5b80:	9d e3 bf 98 	save  %sp, -104, %sp
    5b84:	f0 27 a0 44 	st  %i0, [ %fp + 0x44 ]
    5b88:	03 3f ff cc 	sethi  %hi(0xffff3000), %g1
    5b8c:	82 10 62 00 	or  %g1, 0x200, %g1	! ffff3200 <upper_digits+0xfffb316c>
    5b90:	c2 27 bf fc 	st  %g1, [ %fp + -4 ]
    5b94:	c2 07 a0 44 	ld  [ %fp + 0x44 ], %g1
    5b98:	c4 07 bf fc 	ld  [ %fp + -4 ], %g2
    5b9c:	c2 a0 84 00 	sta  %g1, [ %g2 ] #ASI_SCRATCHPAD
    5ba0:	81 e8 00 00 	restore 
    5ba4:	81 c3 e0 08 	retl 
    5ba8:	01 00 00 00 	nop 

00005bac <__ajit_serial_configure__>:
    5bac:	9d e3 bf 98 	save  %sp, -104, %sp
    5bb0:	86 10 00 18 	mov  %i0, %g3
    5bb4:	84 10 00 19 	mov  %i1, %g2
    5bb8:	82 10 00 1a 	mov  %i2, %g1
    5bbc:	c6 2f a0 44 	stb  %g3, [ %fp + 0x44 ]
    5bc0:	c4 2f a0 48 	stb  %g2, [ %fp + 0x48 ]
    5bc4:	c2 2f a0 4c 	stb  %g1, [ %fp + 0x4c ]
    5bc8:	c0 27 bf fc 	clr  [ %fp + -4 ]
    5bcc:	03 3f ff cc 	sethi  %hi(0xffff3000), %g1
    5bd0:	82 10 62 00 	or  %g1, 0x200, %g1	! ffff3200 <upper_digits+0xfffb316c>
    5bd4:	fa 80 44 00 	lda  [ %g1 ] #ASI_SCRATCHPAD, %i5
    5bd8:	fa 27 bf fc 	st  %i5, [ %fp + -4 ]
    5bdc:	c2 0f a0 44 	ldub  [ %fp + 0x44 ], %g1
    5be0:	82 08 60 ff 	and  %g1, 0xff, %g1
    5be4:	80 a0 60 00 	cmp  %g1, 0
    5be8:	02 80 00 07 	be  5c04 <__ajit_serial_configure__+0x58>
    5bec:	01 00 00 00 	nop 
    5bf0:	c2 07 bf fc 	ld  [ %fp + -4 ], %g1
    5bf4:	82 10 60 01 	or  %g1, 1, %g1
    5bf8:	c2 27 bf fc 	st  %g1, [ %fp + -4 ]
    5bfc:	10 80 00 05 	b  5c10 <__ajit_serial_configure__+0x64>
    5c00:	01 00 00 00 	nop 
    5c04:	c2 07 bf fc 	ld  [ %fp + -4 ], %g1
    5c08:	82 08 7f fe 	and  %g1, -2, %g1
    5c0c:	c2 27 bf fc 	st  %g1, [ %fp + -4 ]
    5c10:	c2 0f a0 48 	ldub  [ %fp + 0x48 ], %g1
    5c14:	82 08 60 ff 	and  %g1, 0xff, %g1
    5c18:	80 a0 60 00 	cmp  %g1, 0
    5c1c:	02 80 00 07 	be  5c38 <__ajit_serial_configure__+0x8c>
    5c20:	01 00 00 00 	nop 
    5c24:	c2 07 bf fc 	ld  [ %fp + -4 ], %g1
    5c28:	82 10 60 02 	or  %g1, 2, %g1
    5c2c:	c2 27 bf fc 	st  %g1, [ %fp + -4 ]
    5c30:	10 80 00 05 	b  5c44 <__ajit_serial_configure__+0x98>
    5c34:	01 00 00 00 	nop 
    5c38:	c2 07 bf fc 	ld  [ %fp + -4 ], %g1
    5c3c:	82 08 7f fd 	and  %g1, -3, %g1
    5c40:	c2 27 bf fc 	st  %g1, [ %fp + -4 ]
    5c44:	c2 0f a0 4c 	ldub  [ %fp + 0x4c ], %g1
    5c48:	82 08 60 ff 	and  %g1, 0xff, %g1
    5c4c:	80 a0 60 00 	cmp  %g1, 0
    5c50:	02 80 00 07 	be  5c6c <__ajit_serial_configure__+0xc0>
    5c54:	01 00 00 00 	nop 
    5c58:	c2 07 bf fc 	ld  [ %fp + -4 ], %g1
    5c5c:	82 10 60 04 	or  %g1, 4, %g1
    5c60:	c2 27 bf fc 	st  %g1, [ %fp + -4 ]
    5c64:	10 80 00 05 	b  5c78 <__ajit_serial_configure__+0xcc>
    5c68:	01 00 00 00 	nop 
    5c6c:	c2 07 bf fc 	ld  [ %fp + -4 ], %g1
    5c70:	82 08 7f fb 	and  %g1, -5, %g1
    5c74:	c2 27 bf fc 	st  %g1, [ %fp + -4 ]
    5c78:	c2 07 bf fc 	ld  [ %fp + -4 ], %g1
    5c7c:	05 3f ff cc 	sethi  %hi(0xffff3000), %g2
    5c80:	84 10 a2 00 	or  %g2, 0x200, %g2	! ffff3200 <upper_digits+0xfffb316c>
    5c84:	c2 a0 84 00 	sta  %g1, [ %g2 ] #ASI_SCRATCHPAD
    5c88:	81 e8 00 00 	restore 
    5c8c:	81 c3 e0 08 	retl 
    5c90:	01 00 00 00 	nop 

00005c94 <__ajit_serial_uart_reset__>:
    5c94:	9d e3 bf a0 	save  %sp, -96, %sp
    5c98:	90 10 20 00 	clr  %o0
    5c9c:	40 00 02 22 	call  6524 <__ajit_serial_uart_reset_inner__>
    5ca0:	01 00 00 00 	nop 
    5ca4:	81 e8 00 00 	restore 
    5ca8:	81 c3 e0 08 	retl 
    5cac:	01 00 00 00 	nop 

00005cb0 <__ajit_serial_set_baudrate__>:
    5cb0:	9d e3 bf a0 	save  %sp, -96, %sp
    5cb4:	f0 27 a0 44 	st  %i0, [ %fp + 0x44 ]
    5cb8:	f2 27 a0 48 	st  %i1, [ %fp + 0x48 ]
    5cbc:	90 10 20 00 	clr  %o0
    5cc0:	d2 07 a0 44 	ld  [ %fp + 0x44 ], %o1
    5cc4:	d4 07 a0 48 	ld  [ %fp + 0x48 ], %o2
    5cc8:	40 00 00 54 	call  5e18 <__ajit_serial_set_baudrate_inner__>
    5ccc:	01 00 00 00 	nop 
    5cd0:	81 e8 00 00 	restore 
    5cd4:	81 c3 e0 08 	retl 
    5cd8:	01 00 00 00 	nop 

00005cdc <__ajit_serial_set_baudrate_via_vmap__>:
    5cdc:	9d e3 bf a0 	save  %sp, -96, %sp
    5ce0:	f0 27 a0 44 	st  %i0, [ %fp + 0x44 ]
    5ce4:	f2 27 a0 48 	st  %i1, [ %fp + 0x48 ]
    5ce8:	90 10 20 01 	mov  1, %o0
    5cec:	d2 07 a0 44 	ld  [ %fp + 0x44 ], %o1
    5cf0:	d4 07 a0 48 	ld  [ %fp + 0x48 ], %o2
    5cf4:	40 00 00 49 	call  5e18 <__ajit_serial_set_baudrate_inner__>
    5cf8:	01 00 00 00 	nop 
    5cfc:	81 e8 00 00 	restore 
    5d00:	81 c3 e0 08 	retl 
    5d04:	01 00 00 00 	nop 

00005d08 <calculate_baud_control_word_for_uart>:
    5d08:	9d e3 bf 88 	save  %sp, -120, %sp
    5d0c:	f0 27 a0 44 	st  %i0, [ %fp + 0x44 ]
    5d10:	f2 27 a0 48 	st  %i1, [ %fp + 0x48 ]
    5d14:	c0 27 bf fc 	clr  [ %fp + -4 ]
    5d18:	c2 07 a0 44 	ld  [ %fp + 0x44 ], %g1
    5d1c:	83 28 60 04 	sll  %g1, 4, %g1
    5d20:	c2 27 bf f8 	st  %g1, [ %fp + -8 ]
    5d24:	c2 07 a0 48 	ld  [ %fp + 0x48 ], %g1
    5d28:	c2 27 bf f4 	st  %g1, [ %fp + -12 ]
    5d2c:	c2 07 bf f8 	ld  [ %fp + -8 ], %g1
    5d30:	80 a0 60 00 	cmp  %g1, 0
    5d34:	02 80 00 34 	be  5e04 <calculate_baud_control_word_for_uart+0xfc>
    5d38:	01 00 00 00 	nop 
    5d3c:	c4 07 bf f8 	ld  [ %fp + -8 ], %g2
    5d40:	c2 07 bf f4 	ld  [ %fp + -12 ], %g1
    5d44:	80 a0 80 01 	cmp  %g2, %g1
    5d48:	1a 80 00 2f 	bcc  5e04 <calculate_baud_control_word_for_uart+0xfc>
    5d4c:	01 00 00 00 	nop 
    5d50:	10 80 00 03 	b  5d5c <calculate_baud_control_word_for_uart+0x54>
    5d54:	01 00 00 00 	nop 
    5d58:	01 00 00 00 	nop 
    5d5c:	c2 07 bf f4 	ld  [ %fp + -12 ], %g1
    5d60:	81 80 20 00 	mov  %g0, %y
    5d64:	c6 07 bf f8 	ld  [ %fp + -8 ], %g3
    5d68:	01 00 00 00 	nop 
    5d6c:	01 00 00 00 	nop 
    5d70:	86 70 40 03 	udiv  %g1, %g3, %g3
    5d74:	c4 07 bf f8 	ld  [ %fp + -8 ], %g2
    5d78:	84 58 c0 02 	smul  %g3, %g2, %g2
    5d7c:	82 20 40 02 	sub  %g1, %g2, %g1
    5d80:	c2 27 bf f0 	st  %g1, [ %fp + -16 ]
    5d84:	c2 07 bf f8 	ld  [ %fp + -8 ], %g1
    5d88:	c2 27 bf f4 	st  %g1, [ %fp + -12 ]
    5d8c:	c2 07 bf f0 	ld  [ %fp + -16 ], %g1
    5d90:	c2 27 bf f8 	st  %g1, [ %fp + -8 ]
    5d94:	c2 07 bf f0 	ld  [ %fp + -16 ], %g1
    5d98:	80 a0 60 00 	cmp  %g1, 0
    5d9c:	12 bf ff ef 	bne  5d58 <calculate_baud_control_word_for_uart+0x50>
    5da0:	01 00 00 00 	nop 
    5da4:	01 00 00 00 	nop 
    5da8:	c2 07 a0 44 	ld  [ %fp + 0x44 ], %g1
    5dac:	85 28 60 04 	sll  %g1, 4, %g2
    5db0:	81 80 20 00 	mov  %g0, %y
    5db4:	c2 07 bf f4 	ld  [ %fp + -12 ], %g1
    5db8:	01 00 00 00 	nop 
    5dbc:	01 00 00 00 	nop 
    5dc0:	82 70 80 01 	udiv  %g2, %g1, %g1
    5dc4:	c2 27 bf ec 	st  %g1, [ %fp + -20 ]
    5dc8:	c2 07 a0 48 	ld  [ %fp + 0x48 ], %g1
    5dcc:	81 80 20 00 	mov  %g0, %y
    5dd0:	c4 07 bf f4 	ld  [ %fp + -12 ], %g2
    5dd4:	01 00 00 00 	nop 
    5dd8:	01 00 00 00 	nop 
    5ddc:	84 70 40 02 	udiv  %g1, %g2, %g2
    5de0:	c2 07 bf ec 	ld  [ %fp + -20 ], %g1
    5de4:	82 20 80 01 	sub  %g2, %g1, %g1
    5de8:	c2 27 bf e8 	st  %g1, [ %fp + -24 ]
    5dec:	c2 07 bf e8 	ld  [ %fp + -24 ], %g1
    5df0:	85 28 60 10 	sll  %g1, 0x10, %g2
    5df4:	c2 07 bf ec 	ld  [ %fp + -20 ], %g1
    5df8:	82 08 6f ff 	and  %g1, 0xfff, %g1
    5dfc:	82 10 80 01 	or  %g2, %g1, %g1
    5e00:	c2 27 bf fc 	st  %g1, [ %fp + -4 ]
    5e04:	c2 07 bf fc 	ld  [ %fp + -4 ], %g1
    5e08:	b0 10 00 01 	mov  %g1, %i0
    5e0c:	81 e8 00 00 	restore 
    5e10:	81 c3 e0 08 	retl 
    5e14:	01 00 00 00 	nop 

00005e18 <__ajit_serial_set_baudrate_inner__>:
    5e18:	9d e3 bf 98 	save  %sp, -104, %sp
    5e1c:	82 10 00 18 	mov  %i0, %g1
    5e20:	f2 27 a0 48 	st  %i1, [ %fp + 0x48 ]
    5e24:	f4 27 a0 4c 	st  %i2, [ %fp + 0x4c ]
    5e28:	c2 2f a0 44 	stb  %g1, [ %fp + 0x44 ]
    5e2c:	03 3f ff cd 	sethi  %hi(0xffff3400), %g1
    5e30:	82 10 60 08 	or  %g1, 8, %g1	! ffff3408 <upper_digits+0xfffb3374>
    5e34:	c2 27 bf fc 	st  %g1, [ %fp + -4 ]
    5e38:	d0 07 a0 48 	ld  [ %fp + 0x48 ], %o0
    5e3c:	d2 07 a0 4c 	ld  [ %fp + 0x4c ], %o1
    5e40:	7f ff ff b2 	call  5d08 <calculate_baud_control_word_for_uart>
    5e44:	01 00 00 00 	nop 
    5e48:	d0 27 bf f8 	st  %o0, [ %fp + -8 ]
    5e4c:	c2 0f a0 44 	ldub  [ %fp + 0x44 ], %g1
    5e50:	82 08 60 ff 	and  %g1, 0xff, %g1
    5e54:	80 a0 60 00 	cmp  %g1, 0
    5e58:	02 80 00 07 	be  5e74 <__ajit_serial_set_baudrate_inner__+0x5c>
    5e5c:	01 00 00 00 	nop 
    5e60:	c2 07 bf fc 	ld  [ %fp + -4 ], %g1
    5e64:	c4 07 bf f8 	ld  [ %fp + -8 ], %g2
    5e68:	c4 20 40 00 	st  %g2, [ %g1 ]
    5e6c:	10 80 00 06 	b  5e84 <__ajit_serial_set_baudrate_inner__+0x6c>
    5e70:	01 00 00 00 	nop 
    5e74:	d0 07 bf f8 	ld  [ %fp + -8 ], %o0
    5e78:	d2 07 bf fc 	ld  [ %fp + -4 ], %o1
    5e7c:	7f ff fe f0 	call  5a3c <__ajit_store_word_mmu_bypass__>
    5e80:	01 00 00 00 	nop 
    5e84:	81 e8 00 00 	restore 
    5e88:	81 c3 e0 08 	retl 
    5e8c:	01 00 00 00 	nop 

00005e90 <__ajit_read_serial_control_register__>:
    5e90:	9d e3 bf 98 	save  %sp, -104, %sp
    5e94:	03 3f ff cc 	sethi  %hi(0xffff3000), %g1
    5e98:	82 10 62 00 	or  %g1, 0x200, %g1	! ffff3200 <upper_digits+0xfffb316c>
    5e9c:	c2 27 bf fc 	st  %g1, [ %fp + -4 ]
    5ea0:	c0 27 bf f8 	clr  [ %fp + -8 ]
    5ea4:	c2 07 bf fc 	ld  [ %fp + -4 ], %g1
    5ea8:	fa 80 44 00 	lda  [ %g1 ] #ASI_SCRATCHPAD, %i5
    5eac:	fa 27 bf f8 	st  %i5, [ %fp + -8 ]
    5eb0:	c2 07 bf f8 	ld  [ %fp + -8 ], %g1
    5eb4:	b0 10 00 01 	mov  %g1, %i0
    5eb8:	81 e8 00 00 	restore 
    5ebc:	81 c3 e0 08 	retl 
    5ec0:	01 00 00 00 	nop 

00005ec4 <__ajit_write_serial_tx_register__>:
    5ec4:	9d e3 bf 98 	save  %sp, -104, %sp
    5ec8:	82 10 00 18 	mov  %i0, %g1
    5ecc:	c2 2f a0 44 	stb  %g1, [ %fp + 0x44 ]
    5ed0:	03 3f ff cc 	sethi  %hi(0xffff3000), %g1
    5ed4:	82 10 62 04 	or  %g1, 0x204, %g1	! ffff3204 <upper_digits+0xfffb3170>
    5ed8:	c2 27 bf fc 	st  %g1, [ %fp + -4 ]
    5edc:	c2 0f a0 44 	ldub  [ %fp + 0x44 ], %g1
    5ee0:	c4 07 bf fc 	ld  [ %fp + -4 ], %g2
    5ee4:	c2 a8 84 00 	stba  %g1, [ %g2 ] #ASI_SCRATCHPAD
    5ee8:	81 e8 00 00 	restore 
    5eec:	81 c3 e0 08 	retl 
    5ef0:	01 00 00 00 	nop 

00005ef4 <__ajit_read_serial_tx_register__>:
    5ef4:	9d e3 bf 98 	save  %sp, -104, %sp
    5ef8:	03 3f ff cc 	sethi  %hi(0xffff3000), %g1
    5efc:	82 10 62 04 	or  %g1, 0x204, %g1	! ffff3204 <upper_digits+0xfffb3170>
    5f00:	c2 27 bf fc 	st  %g1, [ %fp + -4 ]
    5f04:	c0 2f bf fb 	clrb  [ %fp + -5 ]
    5f08:	c2 07 bf fc 	ld  [ %fp + -4 ], %g1
    5f0c:	fa 88 44 00 	lduba  [ %g1 ] #ASI_SCRATCHPAD, %i5
    5f10:	fa 2f bf fb 	stb  %i5, [ %fp + -5 ]
    5f14:	c2 0f bf fb 	ldub  [ %fp + -5 ], %g1
    5f18:	82 08 60 ff 	and  %g1, 0xff, %g1
    5f1c:	b0 10 00 01 	mov  %g1, %i0
    5f20:	81 e8 00 00 	restore 
    5f24:	81 c3 e0 08 	retl 
    5f28:	01 00 00 00 	nop 

00005f2c <__ajit_read_serial_rx_register__>:
    5f2c:	9d e3 bf 98 	save  %sp, -104, %sp
    5f30:	03 3f ff cc 	sethi  %hi(0xffff3000), %g1
    5f34:	82 10 62 08 	or  %g1, 0x208, %g1	! ffff3208 <upper_digits+0xfffb3174>
    5f38:	c2 27 bf fc 	st  %g1, [ %fp + -4 ]
    5f3c:	c0 2f bf fb 	clrb  [ %fp + -5 ]
    5f40:	c2 07 bf fc 	ld  [ %fp + -4 ], %g1
    5f44:	fa 88 44 00 	lduba  [ %g1 ] #ASI_SCRATCHPAD, %i5
    5f48:	fa 2f bf fb 	stb  %i5, [ %fp + -5 ]
    5f4c:	c2 0f bf fb 	ldub  [ %fp + -5 ], %g1
    5f50:	82 08 60 ff 	and  %g1, 0xff, %g1
    5f54:	b0 10 00 01 	mov  %g1, %i0
    5f58:	81 e8 00 00 	restore 
    5f5c:	81 c3 e0 08 	retl 
    5f60:	01 00 00 00 	nop 

00005f64 <__ajit_serial_putchar__>:
    5f64:	9d e3 bf 98 	save  %sp, -104, %sp
    5f68:	82 10 00 18 	mov  %i0, %g1
    5f6c:	c2 2f a0 44 	stb  %g1, [ %fp + 0x44 ]
    5f70:	c0 27 bf f8 	clr  [ %fp + -8 ]
    5f74:	03 3f ff cc 	sethi  %hi(0xffff3000), %g1
    5f78:	82 10 62 00 	or  %g1, 0x200, %g1	! ffff3200 <upper_digits+0xfffb316c>
    5f7c:	fa 80 44 00 	lda  [ %g1 ] #ASI_SCRATCHPAD, %i5
    5f80:	fa 27 bf f8 	st  %i5, [ %fp + -8 ]
    5f84:	c0 27 bf fc 	clr  [ %fp + -4 ]
    5f88:	c2 07 bf f8 	ld  [ %fp + -8 ], %g1
    5f8c:	82 08 60 01 	and  %g1, 1, %g1
    5f90:	80 a0 60 00 	cmp  %g1, 0
    5f94:	02 80 00 0f 	be  5fd0 <__ajit_serial_putchar__+0x6c>
    5f98:	01 00 00 00 	nop 
    5f9c:	c2 07 bf f8 	ld  [ %fp + -8 ], %g1
    5fa0:	82 08 60 08 	and  %g1, 8, %g1
    5fa4:	80 a0 60 00 	cmp  %g1, 0
    5fa8:	12 80 00 0a 	bne  5fd0 <__ajit_serial_putchar__+0x6c>
    5fac:	01 00 00 00 	nop 
    5fb0:	c2 0f a0 44 	ldub  [ %fp + 0x44 ], %g1
    5fb4:	05 3f ff cc 	sethi  %hi(0xffff3000), %g2
    5fb8:	84 10 a2 04 	or  %g2, 0x204, %g2	! ffff3204 <upper_digits+0xfffb3170>
    5fbc:	c2 a8 84 00 	stba  %g1, [ %g2 ] #ASI_SCRATCHPAD
    5fc0:	c2 0f a0 44 	ldub  [ %fp + 0x44 ], %g1
    5fc4:	83 28 60 18 	sll  %g1, 0x18, %g1
    5fc8:	83 38 60 18 	sra  %g1, 0x18, %g1
    5fcc:	c2 27 bf fc 	st  %g1, [ %fp + -4 ]
    5fd0:	c2 07 bf fc 	ld  [ %fp + -4 ], %g1
    5fd4:	b0 10 00 01 	mov  %g1, %i0
    5fd8:	81 e8 00 00 	restore 
    5fdc:	81 c3 e0 08 	retl 
    5fe0:	01 00 00 00 	nop 

00005fe4 <__ajit_serial_getchar__>:
    5fe4:	9d e3 bf 90 	save  %sp, -112, %sp
    5fe8:	c0 27 bf fc 	clr  [ %fp + -4 ]
    5fec:	7f ff ff a9 	call  5e90 <__ajit_read_serial_control_register__>
    5ff0:	01 00 00 00 	nop 
    5ff4:	d0 27 bf f8 	st  %o0, [ %fp + -8 ]
    5ff8:	c2 07 bf f8 	ld  [ %fp + -8 ], %g1
    5ffc:	82 08 60 02 	and  %g1, 2, %g1
    6000:	80 a0 60 00 	cmp  %g1, 0
    6004:	02 80 00 0e 	be  603c <__ajit_serial_getchar__+0x58>
    6008:	01 00 00 00 	nop 
    600c:	c2 07 bf f8 	ld  [ %fp + -8 ], %g1
    6010:	82 08 60 10 	and  %g1, 0x10, %g1
    6014:	80 a0 60 00 	cmp  %g1, 0
    6018:	02 80 00 09 	be  603c <__ajit_serial_getchar__+0x58>
    601c:	01 00 00 00 	nop 
    6020:	c0 27 bf f4 	clr  [ %fp + -12 ]
    6024:	03 3f ff cc 	sethi  %hi(0xffff3000), %g1
    6028:	82 10 62 08 	or  %g1, 0x208, %g1	! ffff3208 <upper_digits+0xfffb3174>
    602c:	fa 88 44 00 	lduba  [ %g1 ] #ASI_SCRATCHPAD, %i5
    6030:	fa 27 bf f4 	st  %i5, [ %fp + -12 ]
    6034:	c2 07 bf f4 	ld  [ %fp + -12 ], %g1
    6038:	c2 27 bf fc 	st  %g1, [ %fp + -4 ]
    603c:	c2 07 bf fc 	ld  [ %fp + -4 ], %g1
    6040:	b0 10 00 01 	mov  %g1, %i0
    6044:	81 e8 00 00 	restore 
    6048:	81 c3 e0 08 	retl 
    604c:	01 00 00 00 	nop 

00006050 <__ajit_serial_puts__>:
    6050:	9d e3 bf 98 	save  %sp, -104, %sp
    6054:	f0 27 a0 44 	st  %i0, [ %fp + 0x44 ]
    6058:	f2 27 a0 48 	st  %i1, [ %fp + 0x48 ]
    605c:	c0 27 bf fc 	clr  [ %fp + -4 ]
    6060:	10 80 00 16 	b  60b8 <__ajit_serial_puts__+0x68>
    6064:	01 00 00 00 	nop 
    6068:	c0 27 bf f8 	clr  [ %fp + -8 ]
    606c:	10 80 00 0c 	b  609c <__ajit_serial_puts__+0x4c>
    6070:	01 00 00 00 	nop 
    6074:	c2 07 bf fc 	ld  [ %fp + -4 ], %g1
    6078:	c4 07 a0 44 	ld  [ %fp + 0x44 ], %g2
    607c:	82 00 80 01 	add  %g2, %g1, %g1
    6080:	c2 08 40 00 	ldub  [ %g1 ], %g1
    6084:	83 28 60 18 	sll  %g1, 0x18, %g1
    6088:	83 38 60 18 	sra  %g1, 0x18, %g1
    608c:	90 10 00 01 	mov  %g1, %o0
    6090:	7f ff ff b5 	call  5f64 <__ajit_serial_putchar__>
    6094:	01 00 00 00 	nop 
    6098:	d0 27 bf f8 	st  %o0, [ %fp + -8 ]
    609c:	c2 07 bf f8 	ld  [ %fp + -8 ], %g1
    60a0:	80 a0 60 00 	cmp  %g1, 0
    60a4:	02 bf ff f4 	be  6074 <__ajit_serial_puts__+0x24>
    60a8:	01 00 00 00 	nop 
    60ac:	c2 07 bf fc 	ld  [ %fp + -4 ], %g1
    60b0:	82 00 60 01 	inc  %g1
    60b4:	c2 27 bf fc 	st  %g1, [ %fp + -4 ]
    60b8:	c4 07 bf fc 	ld  [ %fp + -4 ], %g2
    60bc:	c2 07 a0 48 	ld  [ %fp + 0x48 ], %g1
    60c0:	80 a0 80 01 	cmp  %g2, %g1
    60c4:	0a bf ff e9 	bcs  6068 <__ajit_serial_puts__+0x18>
    60c8:	01 00 00 00 	nop 
    60cc:	81 e8 00 00 	restore 
    60d0:	81 c3 e0 08 	retl 
    60d4:	01 00 00 00 	nop 

000060d8 <__ajit_serial_gets__>:
    60d8:	9d e3 bf 98 	save  %sp, -104, %sp
    60dc:	f0 27 a0 44 	st  %i0, [ %fp + 0x44 ]
    60e0:	f2 27 a0 48 	st  %i1, [ %fp + 0x48 ]
    60e4:	c0 27 bf fc 	clr  [ %fp + -4 ]
    60e8:	10 80 00 14 	b  6138 <__ajit_serial_gets__+0x60>
    60ec:	01 00 00 00 	nop 
    60f0:	c0 27 bf f8 	clr  [ %fp + -8 ]
    60f4:	10 80 00 05 	b  6108 <__ajit_serial_gets__+0x30>
    60f8:	01 00 00 00 	nop 
    60fc:	7f ff ff ba 	call  5fe4 <__ajit_serial_getchar__>
    6100:	01 00 00 00 	nop 
    6104:	d0 27 bf f8 	st  %o0, [ %fp + -8 ]
    6108:	c2 07 bf f8 	ld  [ %fp + -8 ], %g1
    610c:	80 a0 60 00 	cmp  %g1, 0
    6110:	02 bf ff fb 	be  60fc <__ajit_serial_gets__+0x24>
    6114:	01 00 00 00 	nop 
    6118:	c2 07 bf fc 	ld  [ %fp + -4 ], %g1
    611c:	c4 07 a0 44 	ld  [ %fp + 0x44 ], %g2
    6120:	82 00 80 01 	add  %g2, %g1, %g1
    6124:	c4 07 bf f8 	ld  [ %fp + -8 ], %g2
    6128:	c4 28 40 00 	stb  %g2, [ %g1 ]
    612c:	c2 07 bf fc 	ld  [ %fp + -4 ], %g1
    6130:	82 00 60 01 	inc  %g1
    6134:	c2 27 bf fc 	st  %g1, [ %fp + -4 ]
    6138:	c4 07 bf fc 	ld  [ %fp + -4 ], %g2
    613c:	c2 07 a0 48 	ld  [ %fp + 0x48 ], %g1
    6140:	80 a0 80 01 	cmp  %g2, %g1
    6144:	0a bf ff eb 	bcs  60f0 <__ajit_serial_gets__+0x18>
    6148:	01 00 00 00 	nop 
    614c:	81 e8 00 00 	restore 
    6150:	81 c3 e0 08 	retl 
    6154:	01 00 00 00 	nop 

00006158 <__ajit_write_serial_control_register_via_vmap__>:
    6158:	9d e3 bf a0 	save  %sp, -96, %sp
    615c:	f0 27 a0 44 	st  %i0, [ %fp + 0x44 ]
    6160:	03 3f ff cc 	sethi  %hi(0xffff3000), %g1
    6164:	82 10 62 00 	or  %g1, 0x200, %g1	! ffff3200 <upper_digits+0xfffb316c>
    6168:	c4 07 a0 44 	ld  [ %fp + 0x44 ], %g2
    616c:	c4 20 40 00 	st  %g2, [ %g1 ]
    6170:	81 e8 00 00 	restore 
    6174:	81 c3 e0 08 	retl 
    6178:	01 00 00 00 	nop 

0000617c <__ajit_read_serial_control_register_via_vmap__>:
    617c:	9d e3 bf 98 	save  %sp, -104, %sp
    6180:	03 3f ff cc 	sethi  %hi(0xffff3000), %g1
    6184:	82 10 62 00 	or  %g1, 0x200, %g1	! ffff3200 <upper_digits+0xfffb316c>
    6188:	c2 08 40 00 	ldub  [ %g1 ], %g1
    618c:	82 08 60 ff 	and  %g1, 0xff, %g1
    6190:	c2 27 bf fc 	st  %g1, [ %fp + -4 ]
    6194:	c2 07 bf fc 	ld  [ %fp + -4 ], %g1
    6198:	b0 10 00 01 	mov  %g1, %i0
    619c:	81 e8 00 00 	restore 
    61a0:	81 c3 e0 08 	retl 
    61a4:	01 00 00 00 	nop 

000061a8 <__ajit_write_serial_tx_register_via_vmap__>:
    61a8:	9d e3 bf a0 	save  %sp, -96, %sp
    61ac:	82 10 00 18 	mov  %i0, %g1
    61b0:	c2 2f a0 44 	stb  %g1, [ %fp + 0x44 ]
    61b4:	03 3f ff cc 	sethi  %hi(0xffff3000), %g1
    61b8:	82 10 62 04 	or  %g1, 0x204, %g1	! ffff3204 <upper_digits+0xfffb3170>
    61bc:	c4 0f a0 44 	ldub  [ %fp + 0x44 ], %g2
    61c0:	c4 28 40 00 	stb  %g2, [ %g1 ]
    61c4:	81 e8 00 00 	restore 
    61c8:	81 c3 e0 08 	retl 
    61cc:	01 00 00 00 	nop 

000061d0 <__ajit_read_serial_tx_register_via_vmap__>:
    61d0:	9d e3 bf 98 	save  %sp, -104, %sp
    61d4:	03 3f ff cc 	sethi  %hi(0xffff3000), %g1
    61d8:	82 10 62 04 	or  %g1, 0x204, %g1	! ffff3204 <upper_digits+0xfffb3170>
    61dc:	c2 08 40 00 	ldub  [ %g1 ], %g1
    61e0:	c2 2f bf ff 	stb  %g1, [ %fp + -1 ]
    61e4:	c2 0f bf ff 	ldub  [ %fp + -1 ], %g1
    61e8:	82 08 60 ff 	and  %g1, 0xff, %g1
    61ec:	b0 10 00 01 	mov  %g1, %i0
    61f0:	81 e8 00 00 	restore 
    61f4:	81 c3 e0 08 	retl 
    61f8:	01 00 00 00 	nop 

000061fc <__ajit_read_serial_rx_register_via_vmap__>:
    61fc:	9d e3 bf 98 	save  %sp, -104, %sp
    6200:	03 3f ff cc 	sethi  %hi(0xffff3000), %g1
    6204:	82 10 62 08 	or  %g1, 0x208, %g1	! ffff3208 <upper_digits+0xfffb3174>
    6208:	c2 08 40 00 	ldub  [ %g1 ], %g1
    620c:	c2 2f bf ff 	stb  %g1, [ %fp + -1 ]
    6210:	c2 0f bf ff 	ldub  [ %fp + -1 ], %g1
    6214:	82 08 60 ff 	and  %g1, 0xff, %g1
    6218:	b0 10 00 01 	mov  %g1, %i0
    621c:	81 e8 00 00 	restore 
    6220:	81 c3 e0 08 	retl 
    6224:	01 00 00 00 	nop 

00006228 <__ajit_serial_putchar_via_vmap__>:
    6228:	9d e3 bf 98 	save  %sp, -104, %sp
    622c:	82 10 00 18 	mov  %i0, %g1
    6230:	c2 2f a0 44 	stb  %g1, [ %fp + 0x44 ]
    6234:	c0 27 bf f8 	clr  [ %fp + -8 ]
    6238:	03 3f ff cc 	sethi  %hi(0xffff3000), %g1
    623c:	82 10 62 00 	or  %g1, 0x200, %g1	! ffff3200 <upper_digits+0xfffb316c>
    6240:	c2 00 40 00 	ld  [ %g1 ], %g1
    6244:	c2 27 bf f8 	st  %g1, [ %fp + -8 ]
    6248:	c0 27 bf fc 	clr  [ %fp + -4 ]
    624c:	c2 07 bf f8 	ld  [ %fp + -8 ], %g1
    6250:	82 08 60 01 	and  %g1, 1, %g1
    6254:	80 a0 60 00 	cmp  %g1, 0
    6258:	02 80 00 0f 	be  6294 <__ajit_serial_putchar_via_vmap__+0x6c>
    625c:	01 00 00 00 	nop 
    6260:	c2 07 bf f8 	ld  [ %fp + -8 ], %g1
    6264:	82 08 60 08 	and  %g1, 8, %g1
    6268:	80 a0 60 00 	cmp  %g1, 0
    626c:	12 80 00 0a 	bne  6294 <__ajit_serial_putchar_via_vmap__+0x6c>
    6270:	01 00 00 00 	nop 
    6274:	03 3f ff cc 	sethi  %hi(0xffff3000), %g1
    6278:	82 10 62 04 	or  %g1, 0x204, %g1	! ffff3204 <upper_digits+0xfffb3170>
    627c:	c4 0f a0 44 	ldub  [ %fp + 0x44 ], %g2
    6280:	c4 28 40 00 	stb  %g2, [ %g1 ]
    6284:	c2 0f a0 44 	ldub  [ %fp + 0x44 ], %g1
    6288:	83 28 60 18 	sll  %g1, 0x18, %g1
    628c:	83 38 60 18 	sra  %g1, 0x18, %g1
    6290:	c2 27 bf fc 	st  %g1, [ %fp + -4 ]
    6294:	c2 07 bf fc 	ld  [ %fp + -4 ], %g1
    6298:	b0 10 00 01 	mov  %g1, %i0
    629c:	81 e8 00 00 	restore 
    62a0:	81 c3 e0 08 	retl 
    62a4:	01 00 00 00 	nop 

000062a8 <__ajit_serial_getchar_via_vmap__>:
    62a8:	9d e3 bf 90 	save  %sp, -112, %sp
    62ac:	c0 27 bf fc 	clr  [ %fp + -4 ]
    62b0:	03 3f ff cc 	sethi  %hi(0xffff3000), %g1
    62b4:	82 10 62 00 	or  %g1, 0x200, %g1	! ffff3200 <upper_digits+0xfffb316c>
    62b8:	c2 00 40 00 	ld  [ %g1 ], %g1
    62bc:	c2 27 bf f8 	st  %g1, [ %fp + -8 ]
    62c0:	c2 07 bf f8 	ld  [ %fp + -8 ], %g1
    62c4:	82 08 60 02 	and  %g1, 2, %g1
    62c8:	80 a0 60 00 	cmp  %g1, 0
    62cc:	02 80 00 0f 	be  6308 <__ajit_serial_getchar_via_vmap__+0x60>
    62d0:	01 00 00 00 	nop 
    62d4:	c2 07 bf f8 	ld  [ %fp + -8 ], %g1
    62d8:	82 08 60 10 	and  %g1, 0x10, %g1
    62dc:	80 a0 60 00 	cmp  %g1, 0
    62e0:	02 80 00 0a 	be  6308 <__ajit_serial_getchar_via_vmap__+0x60>
    62e4:	01 00 00 00 	nop 
    62e8:	c0 27 bf f4 	clr  [ %fp + -12 ]
    62ec:	03 3f ff cc 	sethi  %hi(0xffff3000), %g1
    62f0:	82 10 62 08 	or  %g1, 0x208, %g1	! ffff3208 <upper_digits+0xfffb3174>
    62f4:	c2 08 40 00 	ldub  [ %g1 ], %g1
    62f8:	82 08 60 ff 	and  %g1, 0xff, %g1
    62fc:	c2 27 bf f4 	st  %g1, [ %fp + -12 ]
    6300:	c2 07 bf f4 	ld  [ %fp + -12 ], %g1
    6304:	c2 27 bf fc 	st  %g1, [ %fp + -4 ]
    6308:	c2 07 bf fc 	ld  [ %fp + -4 ], %g1
    630c:	b0 10 00 01 	mov  %g1, %i0
    6310:	81 e8 00 00 	restore 
    6314:	81 c3 e0 08 	retl 
    6318:	01 00 00 00 	nop 

0000631c <__ajit_serial_puts_via_vmap__>:
    631c:	9d e3 bf 98 	save  %sp, -104, %sp
    6320:	f0 27 a0 44 	st  %i0, [ %fp + 0x44 ]
    6324:	f2 27 a0 48 	st  %i1, [ %fp + 0x48 ]
    6328:	c0 27 bf fc 	clr  [ %fp + -4 ]
    632c:	10 80 00 16 	b  6384 <__ajit_serial_puts_via_vmap__+0x68>
    6330:	01 00 00 00 	nop 
    6334:	c0 27 bf f8 	clr  [ %fp + -8 ]
    6338:	10 80 00 0c 	b  6368 <__ajit_serial_puts_via_vmap__+0x4c>
    633c:	01 00 00 00 	nop 
    6340:	c2 07 bf fc 	ld  [ %fp + -4 ], %g1
    6344:	c4 07 a0 44 	ld  [ %fp + 0x44 ], %g2
    6348:	82 00 80 01 	add  %g2, %g1, %g1
    634c:	c2 08 40 00 	ldub  [ %g1 ], %g1
    6350:	83 28 60 18 	sll  %g1, 0x18, %g1
    6354:	83 38 60 18 	sra  %g1, 0x18, %g1
    6358:	90 10 00 01 	mov  %g1, %o0
    635c:	7f ff ff b3 	call  6228 <__ajit_serial_putchar_via_vmap__>
    6360:	01 00 00 00 	nop 
    6364:	d0 27 bf f8 	st  %o0, [ %fp + -8 ]
    6368:	c2 07 bf f8 	ld  [ %fp + -8 ], %g1
    636c:	80 a0 60 00 	cmp  %g1, 0
    6370:	02 bf ff f4 	be  6340 <__ajit_serial_puts_via_vmap__+0x24>
    6374:	01 00 00 00 	nop 
    6378:	c2 07 bf fc 	ld  [ %fp + -4 ], %g1
    637c:	82 00 60 01 	inc  %g1
    6380:	c2 27 bf fc 	st  %g1, [ %fp + -4 ]
    6384:	c4 07 bf fc 	ld  [ %fp + -4 ], %g2
    6388:	c2 07 a0 48 	ld  [ %fp + 0x48 ], %g1
    638c:	80 a0 80 01 	cmp  %g2, %g1
    6390:	0a bf ff e9 	bcs  6334 <__ajit_serial_puts_via_vmap__+0x18>
    6394:	01 00 00 00 	nop 
    6398:	81 e8 00 00 	restore 
    639c:	81 c3 e0 08 	retl 
    63a0:	01 00 00 00 	nop 

000063a4 <__ajit_serial_gets_via_vmap__>:
    63a4:	9d e3 bf 98 	save  %sp, -104, %sp
    63a8:	f0 27 a0 44 	st  %i0, [ %fp + 0x44 ]
    63ac:	f2 27 a0 48 	st  %i1, [ %fp + 0x48 ]
    63b0:	c0 27 bf fc 	clr  [ %fp + -4 ]
    63b4:	10 80 00 14 	b  6404 <__ajit_serial_gets_via_vmap__+0x60>
    63b8:	01 00 00 00 	nop 
    63bc:	c0 27 bf f8 	clr  [ %fp + -8 ]
    63c0:	10 80 00 05 	b  63d4 <__ajit_serial_gets_via_vmap__+0x30>
    63c4:	01 00 00 00 	nop 
    63c8:	7f ff ff b8 	call  62a8 <__ajit_serial_getchar_via_vmap__>
    63cc:	01 00 00 00 	nop 
    63d0:	d0 27 bf f8 	st  %o0, [ %fp + -8 ]
    63d4:	c2 07 bf f8 	ld  [ %fp + -8 ], %g1
    63d8:	80 a0 60 00 	cmp  %g1, 0
    63dc:	02 bf ff fb 	be  63c8 <__ajit_serial_gets_via_vmap__+0x24>
    63e0:	01 00 00 00 	nop 
    63e4:	c2 07 bf fc 	ld  [ %fp + -4 ], %g1
    63e8:	c4 07 a0 44 	ld  [ %fp + 0x44 ], %g2
    63ec:	82 00 80 01 	add  %g2, %g1, %g1
    63f0:	c4 07 bf f8 	ld  [ %fp + -8 ], %g2
    63f4:	c4 28 40 00 	stb  %g2, [ %g1 ]
    63f8:	c2 07 bf fc 	ld  [ %fp + -4 ], %g1
    63fc:	82 00 60 01 	inc  %g1
    6400:	c2 27 bf fc 	st  %g1, [ %fp + -4 ]
    6404:	c4 07 bf fc 	ld  [ %fp + -4 ], %g2
    6408:	c2 07 a0 48 	ld  [ %fp + 0x48 ], %g1
    640c:	80 a0 80 01 	cmp  %g2, %g1
    6410:	0a bf ff eb 	bcs  63bc <__ajit_serial_gets_via_vmap__+0x18>
    6414:	01 00 00 00 	nop 
    6418:	81 e8 00 00 	restore 
    641c:	81 c3 e0 08 	retl 
    6420:	01 00 00 00 	nop 

00006424 <__ajit_serial_configure_via_vmap__>:
    6424:	9d e3 bf 98 	save  %sp, -104, %sp
    6428:	86 10 00 18 	mov  %i0, %g3
    642c:	84 10 00 19 	mov  %i1, %g2
    6430:	82 10 00 1a 	mov  %i2, %g1
    6434:	c6 2f a0 44 	stb  %g3, [ %fp + 0x44 ]
    6438:	c4 2f a0 48 	stb  %g2, [ %fp + 0x48 ]
    643c:	c2 2f a0 4c 	stb  %g1, [ %fp + 0x4c ]
    6440:	03 3f ff cc 	sethi  %hi(0xffff3000), %g1
    6444:	82 10 62 00 	or  %g1, 0x200, %g1	! ffff3200 <upper_digits+0xfffb316c>
    6448:	c2 00 40 00 	ld  [ %g1 ], %g1
    644c:	c2 27 bf fc 	st  %g1, [ %fp + -4 ]
    6450:	c2 0f a0 44 	ldub  [ %fp + 0x44 ], %g1
    6454:	82 08 60 ff 	and  %g1, 0xff, %g1
    6458:	80 a0 60 00 	cmp  %g1, 0
    645c:	02 80 00 07 	be  6478 <__ajit_serial_configure_via_vmap__+0x54>
    6460:	01 00 00 00 	nop 
    6464:	c2 07 bf fc 	ld  [ %fp + -4 ], %g1
    6468:	82 10 60 01 	or  %g1, 1, %g1
    646c:	c2 27 bf fc 	st  %g1, [ %fp + -4 ]
    6470:	10 80 00 05 	b  6484 <__ajit_serial_configure_via_vmap__+0x60>
    6474:	01 00 00 00 	nop 
    6478:	c2 07 bf fc 	ld  [ %fp + -4 ], %g1
    647c:	82 08 7f fe 	and  %g1, -2, %g1
    6480:	c2 27 bf fc 	st  %g1, [ %fp + -4 ]
    6484:	c2 0f a0 48 	ldub  [ %fp + 0x48 ], %g1
    6488:	82 08 60 ff 	and  %g1, 0xff, %g1
    648c:	80 a0 60 00 	cmp  %g1, 0
    6490:	02 80 00 07 	be  64ac <__ajit_serial_configure_via_vmap__+0x88>
    6494:	01 00 00 00 	nop 
    6498:	c2 07 bf fc 	ld  [ %fp + -4 ], %g1
    649c:	82 10 60 02 	or  %g1, 2, %g1
    64a0:	c2 27 bf fc 	st  %g1, [ %fp + -4 ]
    64a4:	10 80 00 05 	b  64b8 <__ajit_serial_configure_via_vmap__+0x94>
    64a8:	01 00 00 00 	nop 
    64ac:	c2 07 bf fc 	ld  [ %fp + -4 ], %g1
    64b0:	82 08 7f fd 	and  %g1, -3, %g1
    64b4:	c2 27 bf fc 	st  %g1, [ %fp + -4 ]
    64b8:	c2 0f a0 4c 	ldub  [ %fp + 0x4c ], %g1
    64bc:	82 08 60 ff 	and  %g1, 0xff, %g1
    64c0:	80 a0 60 00 	cmp  %g1, 0
    64c4:	02 80 00 07 	be  64e0 <__ajit_serial_configure_via_vmap__+0xbc>
    64c8:	01 00 00 00 	nop 
    64cc:	c2 07 bf fc 	ld  [ %fp + -4 ], %g1
    64d0:	82 10 60 04 	or  %g1, 4, %g1
    64d4:	c2 27 bf fc 	st  %g1, [ %fp + -4 ]
    64d8:	10 80 00 05 	b  64ec <__ajit_serial_configure_via_vmap__+0xc8>
    64dc:	01 00 00 00 	nop 
    64e0:	c2 07 bf fc 	ld  [ %fp + -4 ], %g1
    64e4:	82 08 7f fb 	and  %g1, -5, %g1
    64e8:	c2 27 bf fc 	st  %g1, [ %fp + -4 ]
    64ec:	03 3f ff cc 	sethi  %hi(0xffff3000), %g1
    64f0:	82 10 62 00 	or  %g1, 0x200, %g1	! ffff3200 <upper_digits+0xfffb316c>
    64f4:	c4 07 bf fc 	ld  [ %fp + -4 ], %g2
    64f8:	c4 20 40 00 	st  %g2, [ %g1 ]
    64fc:	81 e8 00 00 	restore 
    6500:	81 c3 e0 08 	retl 
    6504:	01 00 00 00 	nop 

00006508 <__ajit_serial_uart_reset_via_vmap__>:
    6508:	9d e3 bf a0 	save  %sp, -96, %sp
    650c:	90 10 20 01 	mov  1, %o0
    6510:	40 00 00 05 	call  6524 <__ajit_serial_uart_reset_inner__>
    6514:	01 00 00 00 	nop 
    6518:	81 e8 00 00 	restore 
    651c:	81 c3 e0 08 	retl 
    6520:	01 00 00 00 	nop 

00006524 <__ajit_serial_uart_reset_inner__>:
    6524:	9d e3 bf 98 	save  %sp, -104, %sp
    6528:	82 10 00 18 	mov  %i0, %g1
    652c:	c2 2f a0 44 	stb  %g1, [ %fp + 0x44 ]
    6530:	82 10 20 08 	mov  8, %g1
    6534:	c2 27 bf fc 	st  %g1, [ %fp + -4 ]
    6538:	c2 0f a0 44 	ldub  [ %fp + 0x44 ], %g1
    653c:	82 08 60 ff 	and  %g1, 0xff, %g1
    6540:	80 a0 60 00 	cmp  %g1, 0
    6544:	02 80 00 0d 	be  6578 <__ajit_serial_uart_reset_inner__+0x54>
    6548:	01 00 00 00 	nop 
    654c:	7f ff ff 0c 	call  617c <__ajit_read_serial_control_register_via_vmap__>
    6550:	01 00 00 00 	nop 
    6554:	d0 27 bf f8 	st  %o0, [ %fp + -8 ]
    6558:	d0 07 bf fc 	ld  [ %fp + -4 ], %o0
    655c:	7f ff fe ff 	call  6158 <__ajit_write_serial_control_register_via_vmap__>
    6560:	01 00 00 00 	nop 
    6564:	d0 07 bf f8 	ld  [ %fp + -8 ], %o0
    6568:	7f ff fe fc 	call  6158 <__ajit_write_serial_control_register_via_vmap__>
    656c:	01 00 00 00 	nop 
    6570:	10 80 00 0b 	b  659c <__ajit_serial_uart_reset_inner__+0x78>
    6574:	01 00 00 00 	nop 
    6578:	7f ff fe 46 	call  5e90 <__ajit_read_serial_control_register__>
    657c:	01 00 00 00 	nop 
    6580:	d0 27 bf f8 	st  %o0, [ %fp + -8 ]
    6584:	d0 07 bf fc 	ld  [ %fp + -4 ], %o0
    6588:	7f ff fd 7e 	call  5b80 <__ajit_write_serial_control_register__>
    658c:	01 00 00 00 	nop 
    6590:	d0 07 bf f8 	ld  [ %fp + -8 ], %o0
    6594:	7f ff fd 7b 	call  5b80 <__ajit_write_serial_control_register__>
    6598:	01 00 00 00 	nop 
    659c:	81 e8 00 00 	restore 
    65a0:	81 c3 e0 08 	retl 
    65a4:	01 00 00 00 	nop 

000065a8 <__ajit_write_irc_control_register__>:
    65a8:	9d e3 bf 98 	save  %sp, -104, %sp
    65ac:	f0 27 a0 44 	st  %i0, [ %fp + 0x44 ]
    65b0:	03 3f ff cc 	sethi  %hi(0xffff3000), %g1
    65b4:	c2 27 bf fc 	st  %g1, [ %fp + -4 ]
    65b8:	d0 07 a0 44 	ld  [ %fp + 0x44 ], %o0
    65bc:	d2 07 bf fc 	ld  [ %fp + -4 ], %o1
    65c0:	7f ff fd 1f 	call  5a3c <__ajit_store_word_mmu_bypass__>
    65c4:	01 00 00 00 	nop 
    65c8:	81 e8 00 00 	restore 
    65cc:	81 c3 e0 08 	retl 
    65d0:	01 00 00 00 	nop 

000065d4 <__ajit_read_irc_control_register__>:
    65d4:	9d e3 bf 98 	save  %sp, -104, %sp
    65d8:	03 3f ff cc 	sethi  %hi(0xffff3000), %g1
    65dc:	c2 27 bf fc 	st  %g1, [ %fp + -4 ]
    65e0:	d0 07 bf fc 	ld  [ %fp + -4 ], %o0
    65e4:	7f ff fd 29 	call  5a88 <__ajit_load_word_mmu_bypass__>
    65e8:	01 00 00 00 	nop 
    65ec:	d0 27 bf f8 	st  %o0, [ %fp + -8 ]
    65f0:	c2 07 bf f8 	ld  [ %fp + -8 ], %g1
    65f4:	b0 10 00 01 	mov  %g1, %i0
    65f8:	81 e8 00 00 	restore 
    65fc:	81 c3 e0 08 	retl 
    6600:	01 00 00 00 	nop 

00006604 <__ajit_write_irc_control_register_via_vmap__>:
    6604:	9d e3 bf a0 	save  %sp, -96, %sp
    6608:	f0 27 a0 44 	st  %i0, [ %fp + 0x44 ]
    660c:	03 3f ff cc 	sethi  %hi(0xffff3000), %g1
    6610:	c4 07 a0 44 	ld  [ %fp + 0x44 ], %g2
    6614:	c4 20 40 00 	st  %g2, [ %g1 ]
    6618:	81 e8 00 00 	restore 
    661c:	81 c3 e0 08 	retl 
    6620:	01 00 00 00 	nop 

00006624 <__ajit_read_irc_control_register_via_vmap__>:
    6624:	9d e3 bf 98 	save  %sp, -104, %sp
    6628:	03 3f ff cc 	sethi  %hi(0xffff3000), %g1
    662c:	c2 00 40 00 	ld  [ %g1 ], %g1
    6630:	c2 27 bf fc 	st  %g1, [ %fp + -4 ]
    6634:	c2 07 bf fc 	ld  [ %fp + -4 ], %g1
    6638:	b0 10 00 01 	mov  %g1, %i0
    663c:	81 e8 00 00 	restore 
    6640:	81 c3 e0 08 	retl 
    6644:	01 00 00 00 	nop 

00006648 <__ajit_write_spi_master_register__>:
    6648:	9d e3 bf 98 	save  %sp, -104, %sp
    664c:	84 10 00 18 	mov  %i0, %g2
    6650:	82 10 00 19 	mov  %i1, %g1
    6654:	c4 2f a0 44 	stb  %g2, [ %fp + 0x44 ]
    6658:	c2 2f a0 48 	stb  %g1, [ %fp + 0x48 ]
    665c:	c2 0f a0 44 	ldub  [ %fp + 0x44 ], %g1
    6660:	82 08 60 ff 	and  %g1, 0xff, %g1
    6664:	83 28 60 02 	sll  %g1, 2, %g1
    6668:	84 10 00 01 	mov  %g1, %g2
    666c:	03 3f ff cc 	sethi  %hi(0xffff3000), %g1
    6670:	82 10 63 00 	or  %g1, 0x300, %g1	! ffff3300 <upper_digits+0xfffb326c>
    6674:	82 00 80 01 	add  %g2, %g1, %g1
    6678:	c2 27 bf fc 	st  %g1, [ %fp + -4 ]
    667c:	c2 0f a0 48 	ldub  [ %fp + 0x48 ], %g1
    6680:	82 08 60 ff 	and  %g1, 0xff, %g1
    6684:	90 10 00 01 	mov  %g1, %o0
    6688:	d2 07 bf fc 	ld  [ %fp + -4 ], %o1
    668c:	7f ff fc ec 	call  5a3c <__ajit_store_word_mmu_bypass__>
    6690:	01 00 00 00 	nop 
    6694:	81 e8 00 00 	restore 
    6698:	81 c3 e0 08 	retl 
    669c:	01 00 00 00 	nop 

000066a0 <__ajit_write_spi_master_register_via_vmap__>:
    66a0:	9d e3 bf 98 	save  %sp, -104, %sp
    66a4:	84 10 00 18 	mov  %i0, %g2
    66a8:	82 10 00 19 	mov  %i1, %g1
    66ac:	c4 2f a0 44 	stb  %g2, [ %fp + 0x44 ]
    66b0:	c2 2f a0 48 	stb  %g1, [ %fp + 0x48 ]
    66b4:	c2 0f a0 44 	ldub  [ %fp + 0x44 ], %g1
    66b8:	82 08 60 ff 	and  %g1, 0xff, %g1
    66bc:	83 28 60 02 	sll  %g1, 2, %g1
    66c0:	84 10 00 01 	mov  %g1, %g2
    66c4:	03 3f ff cc 	sethi  %hi(0xffff3000), %g1
    66c8:	82 10 63 00 	or  %g1, 0x300, %g1	! ffff3300 <upper_digits+0xfffb326c>
    66cc:	82 00 80 01 	add  %g2, %g1, %g1
    66d0:	c2 27 bf fc 	st  %g1, [ %fp + -4 ]
    66d4:	c2 07 bf fc 	ld  [ %fp + -4 ], %g1
    66d8:	c4 0f a0 48 	ldub  [ %fp + 0x48 ], %g2
    66dc:	c4 28 40 00 	stb  %g2, [ %g1 ]
    66e0:	81 e8 00 00 	restore 
    66e4:	81 c3 e0 08 	retl 
    66e8:	01 00 00 00 	nop 

000066ec <__ajit_read_spi_master_register__>:
    66ec:	9d e3 bf 98 	save  %sp, -104, %sp
    66f0:	82 10 00 18 	mov  %i0, %g1
    66f4:	c2 2f a0 44 	stb  %g1, [ %fp + 0x44 ]
    66f8:	c2 0f a0 44 	ldub  [ %fp + 0x44 ], %g1
    66fc:	82 08 60 ff 	and  %g1, 0xff, %g1
    6700:	83 28 60 02 	sll  %g1, 2, %g1
    6704:	84 10 00 01 	mov  %g1, %g2
    6708:	03 3f ff cc 	sethi  %hi(0xffff3000), %g1
    670c:	82 10 63 00 	or  %g1, 0x300, %g1	! ffff3300 <upper_digits+0xfffb326c>
    6710:	82 00 80 01 	add  %g2, %g1, %g1
    6714:	c2 27 bf fc 	st  %g1, [ %fp + -4 ]
    6718:	d0 07 bf fc 	ld  [ %fp + -4 ], %o0
    671c:	7f ff fc db 	call  5a88 <__ajit_load_word_mmu_bypass__>
    6720:	01 00 00 00 	nop 
    6724:	d0 27 bf f8 	st  %o0, [ %fp + -8 ]
    6728:	c2 07 bf f8 	ld  [ %fp + -8 ], %g1
    672c:	82 08 60 ff 	and  %g1, 0xff, %g1
    6730:	b0 10 00 01 	mov  %g1, %i0
    6734:	81 e8 00 00 	restore 
    6738:	81 c3 e0 08 	retl 
    673c:	01 00 00 00 	nop 

00006740 <__ajit_read_spi_master_register_via_vmap__>:
    6740:	9d e3 bf 98 	save  %sp, -104, %sp
    6744:	82 10 00 18 	mov  %i0, %g1
    6748:	c2 2f a0 44 	stb  %g1, [ %fp + 0x44 ]
    674c:	c2 0f a0 44 	ldub  [ %fp + 0x44 ], %g1
    6750:	82 08 60 ff 	and  %g1, 0xff, %g1
    6754:	83 28 60 02 	sll  %g1, 2, %g1
    6758:	84 10 00 01 	mov  %g1, %g2
    675c:	03 3f ff cc 	sethi  %hi(0xffff3000), %g1
    6760:	82 10 63 00 	or  %g1, 0x300, %g1	! ffff3300 <upper_digits+0xfffb326c>
    6764:	82 00 80 01 	add  %g2, %g1, %g1
    6768:	c2 27 bf fc 	st  %g1, [ %fp + -4 ]
    676c:	c2 07 bf fc 	ld  [ %fp + -4 ], %g1
    6770:	c2 08 40 00 	ldub  [ %g1 ], %g1
    6774:	82 08 60 ff 	and  %g1, 0xff, %g1
    6778:	c2 27 bf f8 	st  %g1, [ %fp + -8 ]
    677c:	c2 07 bf f8 	ld  [ %fp + -8 ], %g1
    6780:	82 08 60 ff 	and  %g1, 0xff, %g1
    6784:	b0 10 00 01 	mov  %g1, %i0
    6788:	81 e8 00 00 	restore 
    678c:	81 c3 e0 08 	retl 
    6790:	01 00 00 00 	nop 

00006794 <__ajit_gpio_xfer__>:
    6794:	9d e3 bf 90 	save  %sp, -112, %sp
    6798:	82 10 00 18 	mov  %i0, %g1
    679c:	c2 2f a0 44 	stb  %g1, [ %fp + 0x44 ]
    67a0:	c0 27 bf f4 	clr  [ %fp + -12 ]
    67a4:	82 10 20 01 	mov  1, %g1
    67a8:	c2 27 bf f8 	st  %g1, [ %fp + -8 ]
    67ac:	c2 0f a0 44 	ldub  [ %fp + 0x44 ], %g1
    67b0:	82 08 60 ff 	and  %g1, 0xff, %g1
    67b4:	90 10 20 00 	clr  %o0
    67b8:	92 10 00 01 	mov  %g1, %o1
    67bc:	7f ff ff a3 	call  6648 <__ajit_write_spi_master_register__>
    67c0:	01 00 00 00 	nop 
    67c4:	82 10 20 13 	mov  0x13, %g1	! 13 <_start+0x13>
    67c8:	c2 2f bf f3 	stb  %g1, [ %fp + -13 ]
    67cc:	c2 0f bf f3 	ldub  [ %fp + -13 ], %g1
    67d0:	82 08 60 ff 	and  %g1, 0xff, %g1
    67d4:	90 10 20 02 	mov  2, %o0
    67d8:	92 10 00 01 	mov  %g1, %o1
    67dc:	7f ff ff 9b 	call  6648 <__ajit_write_spi_master_register__>
    67e0:	01 00 00 00 	nop 
    67e4:	82 10 21 00 	mov  0x100, %g1	! 100 <instr_section+0xa8>
    67e8:	c2 27 bf fc 	st  %g1, [ %fp + -4 ]
    67ec:	10 80 00 0b 	b  6818 <__ajit_gpio_xfer__+0x84>
    67f0:	01 00 00 00 	nop 
    67f4:	90 10 20 02 	mov  2, %o0	! 2 <_start+0x2>
    67f8:	7f ff ff bd 	call  66ec <__ajit_read_spi_master_register__>
    67fc:	01 00 00 00 	nop 
    6800:	82 10 00 08 	mov  %o0, %g1
    6804:	82 08 60 ff 	and  %g1, 0xff, %g1
    6808:	c2 27 bf f8 	st  %g1, [ %fp + -8 ]
    680c:	c2 07 bf fc 	ld  [ %fp + -4 ], %g1
    6810:	82 00 7f ff 	add  %g1, -1, %g1
    6814:	c2 27 bf fc 	st  %g1, [ %fp + -4 ]
    6818:	c2 07 bf fc 	ld  [ %fp + -4 ], %g1
    681c:	85 38 60 1f 	sra  %g1, 0x1f, %g2
    6820:	c2 07 bf fc 	ld  [ %fp + -4 ], %g1
    6824:	82 20 80 01 	sub  %g2, %g1, %g1
    6828:	83 30 60 1f 	srl  %g1, 0x1f, %g1
    682c:	84 08 60 ff 	and  %g1, 0xff, %g2
    6830:	c2 07 bf f8 	ld  [ %fp + -8 ], %g1
    6834:	82 08 80 01 	and  %g2, %g1, %g1
    6838:	80 a0 60 00 	cmp  %g1, 0
    683c:	12 bf ff ee 	bne  67f4 <__ajit_gpio_xfer__+0x60>
    6840:	01 00 00 00 	nop 
    6844:	90 10 20 00 	clr  %o0	! 0 <_start>
    6848:	7f ff ff a9 	call  66ec <__ajit_read_spi_master_register__>
    684c:	01 00 00 00 	nop 
    6850:	82 10 00 08 	mov  %o0, %g1
    6854:	82 08 60 ff 	and  %g1, 0xff, %g1
    6858:	c2 27 bf f4 	st  %g1, [ %fp + -12 ]
    685c:	c2 07 bf f4 	ld  [ %fp + -12 ], %g1
    6860:	b0 10 00 01 	mov  %g1, %i0
    6864:	81 e8 00 00 	restore 
    6868:	81 c3 e0 08 	retl 
    686c:	01 00 00 00 	nop 

00006870 <__ajit_gpio_xfer_via_vmap__>:
    6870:	9d e3 bf 90 	save  %sp, -112, %sp
    6874:	82 10 00 18 	mov  %i0, %g1
    6878:	c2 2f a0 44 	stb  %g1, [ %fp + 0x44 ]
    687c:	c0 27 bf f4 	clr  [ %fp + -12 ]
    6880:	82 10 20 01 	mov  1, %g1
    6884:	c2 27 bf f8 	st  %g1, [ %fp + -8 ]
    6888:	c2 0f a0 44 	ldub  [ %fp + 0x44 ], %g1
    688c:	82 08 60 ff 	and  %g1, 0xff, %g1
    6890:	90 10 20 00 	clr  %o0
    6894:	92 10 00 01 	mov  %g1, %o1
    6898:	7f ff ff 82 	call  66a0 <__ajit_write_spi_master_register_via_vmap__>
    689c:	01 00 00 00 	nop 
    68a0:	82 10 20 13 	mov  0x13, %g1	! 13 <_start+0x13>
    68a4:	c2 2f bf f3 	stb  %g1, [ %fp + -13 ]
    68a8:	c2 0f bf f3 	ldub  [ %fp + -13 ], %g1
    68ac:	82 08 60 ff 	and  %g1, 0xff, %g1
    68b0:	90 10 20 02 	mov  2, %o0
    68b4:	92 10 00 01 	mov  %g1, %o1
    68b8:	7f ff ff 7a 	call  66a0 <__ajit_write_spi_master_register_via_vmap__>
    68bc:	01 00 00 00 	nop 
    68c0:	82 10 21 00 	mov  0x100, %g1	! 100 <instr_section+0xa8>
    68c4:	c2 27 bf fc 	st  %g1, [ %fp + -4 ]
    68c8:	10 80 00 0b 	b  68f4 <__ajit_gpio_xfer_via_vmap__+0x84>
    68cc:	01 00 00 00 	nop 
    68d0:	90 10 20 02 	mov  2, %o0	! 2 <_start+0x2>
    68d4:	7f ff ff 9b 	call  6740 <__ajit_read_spi_master_register_via_vmap__>
    68d8:	01 00 00 00 	nop 
    68dc:	82 10 00 08 	mov  %o0, %g1
    68e0:	82 08 60 ff 	and  %g1, 0xff, %g1
    68e4:	c2 27 bf f8 	st  %g1, [ %fp + -8 ]
    68e8:	c2 07 bf fc 	ld  [ %fp + -4 ], %g1
    68ec:	82 00 7f ff 	add  %g1, -1, %g1
    68f0:	c2 27 bf fc 	st  %g1, [ %fp + -4 ]
    68f4:	c2 07 bf fc 	ld  [ %fp + -4 ], %g1
    68f8:	85 38 60 1f 	sra  %g1, 0x1f, %g2
    68fc:	c2 07 bf fc 	ld  [ %fp + -4 ], %g1
    6900:	82 20 80 01 	sub  %g2, %g1, %g1
    6904:	83 30 60 1f 	srl  %g1, 0x1f, %g1
    6908:	84 08 60 ff 	and  %g1, 0xff, %g2
    690c:	c2 07 bf f8 	ld  [ %fp + -8 ], %g1
    6910:	82 08 80 01 	and  %g2, %g1, %g1
    6914:	80 a0 60 00 	cmp  %g1, 0
    6918:	12 bf ff ee 	bne  68d0 <__ajit_gpio_xfer_via_vmap__+0x60>
    691c:	01 00 00 00 	nop 
    6920:	90 10 20 00 	clr  %o0	! 0 <_start>
    6924:	7f ff ff 87 	call  6740 <__ajit_read_spi_master_register_via_vmap__>
    6928:	01 00 00 00 	nop 
    692c:	82 10 00 08 	mov  %o0, %g1
    6930:	82 08 60 ff 	and  %g1, 0xff, %g1
    6934:	c2 27 bf f4 	st  %g1, [ %fp + -12 ]
    6938:	c2 07 bf f4 	ld  [ %fp + -12 ], %g1
    693c:	b0 10 00 01 	mov  %g1, %i0
    6940:	81 e8 00 00 	restore 
    6944:	81 c3 e0 08 	retl 
    6948:	01 00 00 00 	nop 

0000694c <__ajit_ta_0__>:
    694c:	9d e3 bf a0 	save  %sp, -96, %sp
    6950:	91 d0 20 00 	ta  0
    6954:	01 00 00 00 	nop 
    6958:	01 00 00 00 	nop 
    695c:	81 e8 00 00 	restore 
    6960:	81 c3 e0 08 	retl 
    6964:	01 00 00 00 	nop 

00006968 <__ajit_fsqrtd__>:
    6968:	9d e3 bf a0 	save  %sp, -96, %sp
    696c:	f0 27 a0 44 	st  %i0, [ %fp + 0x44 ]
    6970:	f2 27 a0 48 	st  %i1, [ %fp + 0x48 ]
    6974:	c2 07 a0 44 	ld  [ %fp + 0x44 ], %g1
    6978:	c4 07 a0 48 	ld  [ %fp + 0x48 ], %g2
    697c:	c1 18 40 00 	ldd  [ %g1 ], %f0
    6980:	85 a0 05 40 	fsqrtd  %f0, %f2
    6984:	c5 38 80 00 	std  %f2, [ %g2 ]
    6988:	81 e8 00 00 	restore 
    698c:	81 c3 e0 08 	retl 
    6990:	01 00 00 00 	nop 

00006994 <__ajit_fsqrts__>:
    6994:	9d e3 bf a0 	save  %sp, -96, %sp
    6998:	f0 27 a0 44 	st  %i0, [ %fp + 0x44 ]
    699c:	f2 27 a0 48 	st  %i1, [ %fp + 0x48 ]
    69a0:	c2 07 a0 44 	ld  [ %fp + 0x44 ], %g1
    69a4:	c4 07 a0 48 	ld  [ %fp + 0x48 ], %g2
    69a8:	c1 00 40 00 	ld  [ %g1 ], %f0
    69ac:	83 a0 05 20 	fsqrts  %f0, %f1
    69b0:	c3 20 80 00 	st  %f1, [ %g2 ]
    69b4:	81 e8 00 00 	restore 
    69b8:	81 c3 e0 08 	retl 
    69bc:	01 00 00 00 	nop 

000069c0 <__ajit_fitod__>:
    69c0:	9d e3 bf a0 	save  %sp, -96, %sp
    69c4:	f0 27 a0 44 	st  %i0, [ %fp + 0x44 ]
    69c8:	f2 27 a0 48 	st  %i1, [ %fp + 0x48 ]
    69cc:	c2 07 a0 44 	ld  [ %fp + 0x44 ], %g1
    69d0:	c4 07 a0 48 	ld  [ %fp + 0x48 ], %g2
    69d4:	c1 00 40 00 	ld  [ %g1 ], %f0
    69d8:	85 a0 19 00 	fitod  %f0, %f2
    69dc:	c5 38 80 00 	std  %f2, [ %g2 ]
    69e0:	81 e8 00 00 	restore 
    69e4:	81 c3 e0 08 	retl 
    69e8:	01 00 00 00 	nop 

000069ec <__ajit_fitos__>:
    69ec:	9d e3 bf a0 	save  %sp, -96, %sp
    69f0:	f0 27 a0 44 	st  %i0, [ %fp + 0x44 ]
    69f4:	f2 27 a0 48 	st  %i1, [ %fp + 0x48 ]
    69f8:	c2 07 a0 44 	ld  [ %fp + 0x44 ], %g1
    69fc:	c4 07 a0 48 	ld  [ %fp + 0x48 ], %g2
    6a00:	c1 00 40 00 	ld  [ %g1 ], %f0
    6a04:	83 a0 18 80 	fitos  %f0, %f1
    6a08:	c3 20 80 00 	st  %f1, [ %g2 ]
    6a0c:	81 e8 00 00 	restore 
    6a10:	81 c3 e0 08 	retl 
    6a14:	01 00 00 00 	nop 

00006a18 <__ajit_fdtoi__>:
    6a18:	9d e3 bf a0 	save  %sp, -96, %sp
    6a1c:	f0 27 a0 44 	st  %i0, [ %fp + 0x44 ]
    6a20:	f2 27 a0 48 	st  %i1, [ %fp + 0x48 ]
    6a24:	c2 07 a0 44 	ld  [ %fp + 0x44 ], %g1
    6a28:	c4 07 a0 48 	ld  [ %fp + 0x48 ], %g2
    6a2c:	c1 18 40 00 	ldd  [ %g1 ], %f0
    6a30:	85 a0 1a 40 	fdtoi  %f0, %f2
    6a34:	c5 20 80 00 	st  %f2, [ %g2 ]
    6a38:	81 e8 00 00 	restore 
    6a3c:	81 c3 e0 08 	retl 
    6a40:	01 00 00 00 	nop 

00006a44 <__ajit_fstoi__>:
    6a44:	9d e3 bf a0 	save  %sp, -96, %sp
    6a48:	f0 27 a0 44 	st  %i0, [ %fp + 0x44 ]
    6a4c:	f2 27 a0 48 	st  %i1, [ %fp + 0x48 ]
    6a50:	c2 07 a0 44 	ld  [ %fp + 0x44 ], %g1
    6a54:	c4 07 a0 48 	ld  [ %fp + 0x48 ], %g2
    6a58:	c1 00 40 00 	ld  [ %g1 ], %f0
    6a5c:	83 a0 1a 20 	fstoi  %f0, %f1
    6a60:	c3 20 80 00 	st  %f1, [ %g2 ]
    6a64:	81 e8 00 00 	restore 
    6a68:	81 c3 e0 08 	retl 
    6a6c:	01 00 00 00 	nop 

00006a70 <generate_opcode_11>:
    6a70:	9d e3 bf 98 	save  %sp, -104, %sp
    6a74:	f0 27 a0 44 	st  %i0, [ %fp + 0x44 ]
    6a78:	f2 27 a0 48 	st  %i1, [ %fp + 0x48 ]
    6a7c:	f4 27 a0 4c 	st  %i2, [ %fp + 0x4c ]
    6a80:	f6 27 a0 50 	st  %i3, [ %fp + 0x50 ]
    6a84:	84 10 00 1c 	mov  %i4, %g2
    6a88:	82 10 00 1d 	mov  %i5, %g1
    6a8c:	c4 2f a0 54 	stb  %g2, [ %fp + 0x54 ]
    6a90:	c2 37 a0 58 	sth  %g1, [ %fp + 0x58 ]
    6a94:	03 20 00 00 	sethi  %hi(0x80000000), %g1
    6a98:	c2 27 bf fc 	st  %g1, [ %fp + -4 ]
    6a9c:	c2 07 a0 44 	ld  [ %fp + 0x44 ], %g1
    6aa0:	83 28 60 19 	sll  %g1, 0x19, %g1
    6aa4:	c4 07 bf fc 	ld  [ %fp + -4 ], %g2
    6aa8:	82 10 80 01 	or  %g2, %g1, %g1
    6aac:	c2 27 bf fc 	st  %g1, [ %fp + -4 ]
    6ab0:	c2 07 a0 50 	ld  [ %fp + 0x50 ], %g1
    6ab4:	83 28 60 13 	sll  %g1, 0x13, %g1
    6ab8:	c4 07 bf fc 	ld  [ %fp + -4 ], %g2
    6abc:	82 10 80 01 	or  %g2, %g1, %g1
    6ac0:	c2 27 bf fc 	st  %g1, [ %fp + -4 ]
    6ac4:	c2 07 a0 48 	ld  [ %fp + 0x48 ], %g1
    6ac8:	83 28 60 0e 	sll  %g1, 0xe, %g1
    6acc:	c4 07 bf fc 	ld  [ %fp + -4 ], %g2
    6ad0:	82 10 80 01 	or  %g2, %g1, %g1
    6ad4:	c2 27 bf fc 	st  %g1, [ %fp + -4 ]
    6ad8:	c4 07 bf fc 	ld  [ %fp + -4 ], %g2
    6adc:	c2 07 a0 4c 	ld  [ %fp + 0x4c ], %g1
    6ae0:	82 10 80 01 	or  %g2, %g1, %g1
    6ae4:	c2 27 bf fc 	st  %g1, [ %fp + -4 ]
    6ae8:	c2 07 bf fc 	ld  [ %fp + -4 ], %g1
    6aec:	b0 10 00 01 	mov  %g1, %i0
    6af0:	81 e8 00 00 	restore 
    6af4:	81 c3 e0 08 	retl 
    6af8:	01 00 00 00 	nop 

00006afc <main>:
    6afc:	9d e3 bf 78 	save  %sp, -136, %sp
    6b00:	f0 27 a0 44 	st  %i0, [ %fp + 0x44 ]
    6b04:	f2 27 a0 48 	st  %i1, [ %fp + 0x48 ]
    6b08:	90 10 20 03 	mov  3, %o0
    6b0c:	7f ff fc 1d 	call  5b80 <__ajit_write_serial_control_register__>
    6b10:	01 00 00 00 	nop 
    6b14:	c0 37 bf f2 	clrh  [ %fp + -14 ]
    6b18:	c0 37 bf f4 	clrh  [ %fp + -12 ]
    6b1c:	c0 37 bf f6 	clrh  [ %fp + -10 ]
    6b20:	82 10 20 64 	mov  0x64, %g1
    6b24:	c2 2f bf f2 	stb  %g1, [ %fp + -14 ]
    6b28:	82 10 20 62 	mov  0x62, %g1
    6b2c:	c2 2f bf f3 	stb  %g1, [ %fp + -13 ]
    6b30:	c0 2f bf f0 	clrb  [ %fp + -16 ]
    6b34:	82 10 20 04 	mov  4, %g1
    6b38:	c2 2f bf f1 	stb  %g1, [ %fp + -15 ]
    6b3c:	82 10 20 01 	mov  1, %g1
    6b40:	c2 2f bf fb 	stb  %g1, [ %fp + -5 ]
    6b44:	03 00 01 00 	sethi  %hi(0x40000), %g1
    6b48:	82 10 60 88 	or  %g1, 0x88, %g1	! 40088 <__GI_memcpy+0x38d14>
    6b4c:	86 07 bf e8 	add  %fp, -24, %g3
    6b50:	84 10 00 01 	mov  %g1, %g2
    6b54:	82 10 20 08 	mov  8, %g1
    6b58:	90 10 00 03 	mov  %g3, %o0
    6b5c:	92 10 00 02 	mov  %g2, %o1
    6b60:	94 10 00 01 	mov  %g1, %o2
    6b64:	40 00 02 04 	call  7374 <__GI_memcpy>
    6b68:	01 00 00 00 	nop 
    6b6c:	c0 27 bf fc 	clr  [ %fp + -4 ]
    6b70:	c0 27 bf fc 	clr  [ %fp + -4 ]
    6b74:	10 80 00 41 	b  6c78 <main+0x17c>
    6b78:	01 00 00 00 	nop 
    6b7c:	82 10 20 04 	mov  4, %g1	! 4 <_start+0x4>
    6b80:	c2 2f bf fa 	stb  %g1, [ %fp + -6 ]
    6b84:	82 10 20 02 	mov  2, %g1
    6b88:	c2 2f bf f9 	stb  %g1, [ %fp + -7 ]
    6b8c:	82 10 20 03 	mov  3, %g1
    6b90:	c2 2f bf f8 	stb  %g1, [ %fp + -8 ]
    6b94:	c2 0f bf fa 	ldub  [ %fp + -6 ], %g1
    6b98:	88 08 60 ff 	and  %g1, 0xff, %g4
    6b9c:	c2 0f bf f9 	ldub  [ %fp + -7 ], %g1
    6ba0:	86 08 60 ff 	and  %g1, 0xff, %g3
    6ba4:	c2 0f bf f8 	ldub  [ %fp + -8 ], %g1
    6ba8:	84 08 60 ff 	and  %g1, 0xff, %g2
    6bac:	c2 0f bf f0 	ldub  [ %fp + -16 ], %g1
    6bb0:	82 08 60 ff 	and  %g1, 0xff, %g1
    6bb4:	90 10 00 04 	mov  %g4, %o0
    6bb8:	92 10 00 03 	mov  %g3, %o1
    6bbc:	94 10 00 02 	mov  %g2, %o2
    6bc0:	96 10 00 01 	mov  %g1, %o3
    6bc4:	98 10 20 00 	clr  %o4
    6bc8:	9a 10 20 00 	clr  %o5
    6bcc:	7f ff ff a9 	call  6a70 <generate_opcode_11>
    6bd0:	01 00 00 00 	nop 
    6bd4:	82 10 00 08 	mov  %o0, %g1
    6bd8:	c2 27 bf dc 	st  %g1, [ %fp + -36 ]
    6bdc:	c2 0f bf f9 	ldub  [ %fp + -7 ], %g1
    6be0:	88 08 60 ff 	and  %g1, 0xff, %g4
    6be4:	c2 0f bf fa 	ldub  [ %fp + -6 ], %g1
    6be8:	86 08 60 ff 	and  %g1, 0xff, %g3
    6bec:	c2 0f bf f9 	ldub  [ %fp + -7 ], %g1
    6bf0:	84 08 60 ff 	and  %g1, 0xff, %g2
    6bf4:	c2 0f bf f1 	ldub  [ %fp + -15 ], %g1
    6bf8:	82 08 60 ff 	and  %g1, 0xff, %g1
    6bfc:	90 10 00 04 	mov  %g4, %o0
    6c00:	92 10 00 03 	mov  %g3, %o1
    6c04:	94 10 00 02 	mov  %g2, %o2
    6c08:	96 10 00 01 	mov  %g1, %o3
    6c0c:	98 10 20 00 	clr  %o4
    6c10:	9a 10 20 00 	clr  %o5
    6c14:	7f ff ff 97 	call  6a70 <generate_opcode_11>
    6c18:	01 00 00 00 	nop 
    6c1c:	82 10 00 08 	mov  %o0, %g1
    6c20:	c2 27 bf e0 	st  %g1, [ %fp + -32 ]
    6c24:	c2 0f bf f8 	ldub  [ %fp + -8 ], %g1
    6c28:	88 08 60 ff 	and  %g1, 0xff, %g4
    6c2c:	c2 0f bf fa 	ldub  [ %fp + -6 ], %g1
    6c30:	86 08 60 ff 	and  %g1, 0xff, %g3
    6c34:	c2 0f bf f8 	ldub  [ %fp + -8 ], %g1
    6c38:	84 08 60 ff 	and  %g1, 0xff, %g2
    6c3c:	c2 0f bf f1 	ldub  [ %fp + -15 ], %g1
    6c40:	82 08 60 ff 	and  %g1, 0xff, %g1
    6c44:	90 10 00 04 	mov  %g4, %o0
    6c48:	92 10 00 03 	mov  %g3, %o1
    6c4c:	94 10 00 02 	mov  %g2, %o2
    6c50:	96 10 00 01 	mov  %g1, %o3
    6c54:	98 10 20 00 	clr  %o4
    6c58:	9a 10 20 00 	clr  %o5
    6c5c:	7f ff ff 85 	call  6a70 <generate_opcode_11>
    6c60:	01 00 00 00 	nop 
    6c64:	82 10 00 08 	mov  %o0, %g1
    6c68:	c2 27 bf e4 	st  %g1, [ %fp + -28 ]
    6c6c:	c2 07 bf fc 	ld  [ %fp + -4 ], %g1
    6c70:	82 00 60 01 	inc  %g1
    6c74:	c2 27 bf fc 	st  %g1, [ %fp + -4 ]
    6c78:	c2 0f bf fb 	ldub  [ %fp + -5 ], %g1
    6c7c:	84 08 60 ff 	and  %g1, 0xff, %g2
    6c80:	c2 07 bf fc 	ld  [ %fp + -4 ], %g1
    6c84:	80 a0 80 01 	cmp  %g2, %g1
    6c88:	14 bf ff bd 	bg  6b7c <main+0x80>
    6c8c:	01 00 00 00 	nop 
    6c90:	21 00 00 00 	sethi  %hi(0), %l0
    6c94:	a0 14 20 58 	or  %l0, 0x58, %l0	! 58 <instr_section>
    6c98:	c0 27 bf fc 	clr  [ %fp + -4 ]
    6c9c:	c0 27 bf fc 	clr  [ %fp + -4 ]
    6ca0:	10 80 00 0c 	b  6cd0 <main+0x1d4>
    6ca4:	01 00 00 00 	nop 
    6ca8:	c2 07 bf fc 	ld  [ %fp + -4 ], %g1
    6cac:	83 28 60 02 	sll  %g1, 2, %g1
    6cb0:	82 07 80 01 	add  %fp, %g1, %g1
    6cb4:	c2 00 7f dc 	ld  [ %g1 + -36 ], %g1
    6cb8:	a2 10 00 01 	mov  %g1, %l1
    6cbc:	e2 24 00 00 	st  %l1, [ %l0 ]
    6cc0:	a0 04 20 04 	add  %l0, 4, %l0
    6cc4:	c2 07 bf fc 	ld  [ %fp + -4 ], %g1
    6cc8:	82 00 60 01 	inc  %g1
    6ccc:	c2 27 bf fc 	st  %g1, [ %fp + -4 ]
    6cd0:	c2 07 bf fc 	ld  [ %fp + -4 ], %g1
    6cd4:	80 a0 60 02 	cmp  %g1, 2
    6cd8:	04 bf ff f4 	ble  6ca8 <main+0x1ac>
    6cdc:	01 00 00 00 	nop 
    6ce0:	03 00 01 00 	sethi  %hi(0x40000), %g1
    6ce4:	90 10 60 58 	or  %g1, 0x58, %o0	! 40058 <__GI_memcpy+0x38ce4>
    6ce8:	7f ff fa 56 	call  5640 <ee_printf>
    6cec:	01 00 00 00 	nop 
    6cf0:	82 10 20 01 	mov  1, %g1	! 1 <_start+0x1>
    6cf4:	b0 10 00 01 	mov  %g1, %i0
    6cf8:	81 e8 00 00 	restore 
    6cfc:	81 c3 e0 08 	retl 
    6d00:	01 00 00 00 	nop 

00006d04 <generate_input_output>:
    6d04:	9d e3 bf 88 	save  %sp, -120, %sp
    6d08:	82 10 21 00 	mov  0x100, %g1
    6d0c:	c2 27 bf e8 	st  %g1, [ %fp + -24 ]
    6d10:	82 10 22 00 	mov  0x200, %g1
    6d14:	c2 27 bf ec 	st  %g1, [ %fp + -20 ]
    6d18:	c0 27 bf f0 	clr  [ %fp + -16 ]
    6d1c:	82 10 20 01 	mov  1, %g1
    6d20:	c2 27 bf f4 	st  %g1, [ %fp + -12 ]
    6d24:	82 10 22 00 	mov  0x200, %g1
    6d28:	c2 27 bf f8 	st  %g1, [ %fp + -8 ]
    6d2c:	82 10 21 00 	mov  0x100, %g1
    6d30:	c2 27 bf fc 	st  %g1, [ %fp + -4 ]
    6d34:	82 07 bf e8 	add  %fp, -24, %g1
    6d38:	b0 10 00 01 	mov  %g1, %i0
    6d3c:	81 e8 00 00 	restore 
    6d40:	81 c3 e0 08 	retl 
    6d44:	01 00 00 00 	nop 
    6d48:	80 8a 60 01 	btst  1, %o1
    6d4c:	02 80 00 08 	be  6d6c <generate_input_output+0x68>
    6d50:	80 8a 60 02 	btst  2, %o1
    6d54:	c4 0a 7f ff 	ldub  [ %o1 + -1 ], %g2
    6d58:	92 22 60 01 	dec  %o1
    6d5c:	c4 2a 3f ff 	stb  %g2, [ %o0 + -1 ]
    6d60:	94 22 a0 01 	dec  %o2
    6d64:	02 80 00 1a 	be  6dcc <__GI_memmove+0x3c>
    6d68:	90 22 20 01 	dec  %o0
    6d6c:	c4 12 7f fe 	lduh  [ %o1 + -2 ], %g2
    6d70:	92 22 60 02 	sub  %o1, 2, %o1
    6d74:	c4 32 3f fe 	sth  %g2, [ %o0 + -2 ]
    6d78:	94 22 a0 02 	sub  %o2, 2, %o2
    6d7c:	10 80 00 14 	b  6dcc <__GI_memmove+0x3c>
    6d80:	90 22 20 02 	sub  %o0, 2, %o0

00006d84 <bcopy>:
    6d84:	96 10 00 08 	mov  %o0, %o3
    6d88:	90 10 00 09 	mov  %o1, %o0
    6d8c:	92 10 00 0b 	mov  %o3, %o1

00006d90 <__GI_memmove>:
    6d90:	80 a2 00 09 	cmp  %o0, %o1
    6d94:	d0 23 a0 40 	st  %o0, [ %sp + 0x40 ]
    6d98:	08 80 01 79 	bleu  737c <__GI_memcpy+0x8>
    6d9c:	98 22 00 09 	sub  %o0, %o1, %o4
    6da0:	96 02 40 0a 	add  %o1, %o2, %o3
    6da4:	80 a2 c0 08 	cmp  %o3, %o0
    6da8:	08 80 01 76 	bleu  7380 <__GI_memcpy+0xc>
    6dac:	9a 8b 20 03 	andcc  %o4, 3, %o5
    6db0:	92 02 40 0a 	add  %o1, %o2, %o1
    6db4:	90 02 00 0a 	add  %o0, %o2, %o0
    6db8:	12 80 00 f9 	bne  719c <__GI_memmove+0x40c>
    6dbc:	80 a2 a0 0f 	cmp  %o2, 0xf
    6dc0:	08 80 00 eb 	bleu  716c <__GI_memmove+0x3dc>
    6dc4:	80 8a 60 03 	btst  3, %o1
    6dc8:	12 bf ff e0 	bne  6d48 <generate_input_output+0x44>
    6dcc:	80 8a 60 04 	btst  4, %o1
    6dd0:	02 80 00 07 	be  6dec <__GI_memmove+0x5c>
    6dd4:	82 10 00 0a 	mov  %o2, %g1
    6dd8:	d8 02 7f fc 	ld  [ %o1 + -4 ], %o4
    6ddc:	82 20 60 04 	sub  %g1, 4, %g1
    6de0:	d8 22 3f fc 	st  %o4, [ %o0 + -4 ]
    6de4:	92 22 60 04 	sub  %o1, 4, %o1
    6de8:	90 22 20 04 	sub  %o0, 4, %o0
    6dec:	8c 88 7f 80 	andcc  %g1, -128, %g6
    6df0:	02 80 00 37 	be  6ecc <__GI_memmove+0x13c>
    6df4:	80 8a 20 04 	btst  4, %o0
    6df8:	02 80 00 84 	be  7008 <__GI_memmove+0x278>
    6dfc:	d4 1a 7f e0 	ldd  [ %o1 + -32 ], %o2
    6e00:	d8 1a 7f e8 	ldd  [ %o1 + -24 ], %o4
    6e04:	c4 1a 7f f0 	ldd  [ %o1 + -16 ], %g2
    6e08:	c8 1a 7f f8 	ldd  [ %o1 + -8 ], %g4
    6e0c:	d4 22 3f e0 	st  %o2, [ %o0 + -32 ]
    6e10:	d6 22 3f e4 	st  %o3, [ %o0 + -28 ]
    6e14:	d8 22 3f e8 	st  %o4, [ %o0 + -24 ]
    6e18:	da 22 3f ec 	st  %o5, [ %o0 + -20 ]
    6e1c:	c4 22 3f f0 	st  %g2, [ %o0 + -16 ]
    6e20:	c6 22 3f f4 	st  %g3, [ %o0 + -12 ]
    6e24:	c8 22 3f f8 	st  %g4, [ %o0 + -8 ]
    6e28:	ca 22 3f fc 	st  %g5, [ %o0 + -4 ]
    6e2c:	d4 1a 7f c0 	ldd  [ %o1 + -64 ], %o2
    6e30:	d8 1a 7f c8 	ldd  [ %o1 + -56 ], %o4
    6e34:	c4 1a 7f d0 	ldd  [ %o1 + -48 ], %g2
    6e38:	c8 1a 7f d8 	ldd  [ %o1 + -40 ], %g4
    6e3c:	d4 22 3f c0 	st  %o2, [ %o0 + -64 ]
    6e40:	d6 22 3f c4 	st  %o3, [ %o0 + -60 ]
    6e44:	d8 22 3f c8 	st  %o4, [ %o0 + -56 ]
    6e48:	da 22 3f cc 	st  %o5, [ %o0 + -52 ]
    6e4c:	c4 22 3f d0 	st  %g2, [ %o0 + -48 ]
    6e50:	c6 22 3f d4 	st  %g3, [ %o0 + -44 ]
    6e54:	c8 22 3f d8 	st  %g4, [ %o0 + -40 ]
    6e58:	ca 22 3f dc 	st  %g5, [ %o0 + -36 ]
    6e5c:	d4 1a 7f a0 	ldd  [ %o1 + -96 ], %o2
    6e60:	d8 1a 7f a8 	ldd  [ %o1 + -88 ], %o4
    6e64:	c4 1a 7f b0 	ldd  [ %o1 + -80 ], %g2
    6e68:	c8 1a 7f b8 	ldd  [ %o1 + -72 ], %g4
    6e6c:	d4 22 3f a0 	st  %o2, [ %o0 + -96 ]
    6e70:	d6 22 3f a4 	st  %o3, [ %o0 + -92 ]
    6e74:	d8 22 3f a8 	st  %o4, [ %o0 + -88 ]
    6e78:	da 22 3f ac 	st  %o5, [ %o0 + -84 ]
    6e7c:	c4 22 3f b0 	st  %g2, [ %o0 + -80 ]
    6e80:	c6 22 3f b4 	st  %g3, [ %o0 + -76 ]
    6e84:	c8 22 3f b8 	st  %g4, [ %o0 + -72 ]
    6e88:	ca 22 3f bc 	st  %g5, [ %o0 + -68 ]
    6e8c:	d4 1a 7f 80 	ldd  [ %o1 + -128 ], %o2
    6e90:	d8 1a 7f 88 	ldd  [ %o1 + -120 ], %o4
    6e94:	c4 1a 7f 90 	ldd  [ %o1 + -112 ], %g2
    6e98:	c8 1a 7f 98 	ldd  [ %o1 + -104 ], %g4
    6e9c:	d4 22 3f 80 	st  %o2, [ %o0 + -128 ]
    6ea0:	d6 22 3f 84 	st  %o3, [ %o0 + -124 ]
    6ea4:	d8 22 3f 88 	st  %o4, [ %o0 + -120 ]
    6ea8:	da 22 3f 8c 	st  %o5, [ %o0 + -116 ]
    6eac:	c4 22 3f 90 	st  %g2, [ %o0 + -112 ]
    6eb0:	c6 22 3f 94 	st  %g3, [ %o0 + -108 ]
    6eb4:	c8 22 3f 98 	st  %g4, [ %o0 + -104 ]
    6eb8:	ca 22 3f 9c 	st  %g5, [ %o0 + -100 ]
    6ebc:	8c a1 a0 80 	subcc  %g6, 0x80, %g6
    6ec0:	92 22 60 80 	sub  %o1, 0x80, %o1
    6ec4:	12 bf ff ce 	bne  6dfc <__GI_memmove+0x6c>
    6ec8:	90 22 20 80 	sub  %o0, 0x80, %o0
    6ecc:	8c 88 60 70 	andcc  %g1, 0x70, %g6
    6ed0:	02 80 00 34 	be  6fa0 <__GI_memmove+0x210>
    6ed4:	80 88 60 08 	btst  8, %g1
    6ed8:	99 31 a0 01 	srl  %g6, 1, %o4
    6edc:	84 10 00 0f 	mov  %o7, %g2
    6ee0:	98 01 80 0c 	add  %g6, %o4, %o4
    6ee4:	40 00 05 3d 	call  83d8 <__GI_memcpy+0x1064>
    6ee8:	92 22 40 06 	sub  %o1, %g6, %o1
    6eec:	9e 10 00 02 	mov  %g2, %o7
    6ef0:	81 c3 60 bc 	jmp  %o5 + 0xbc
    6ef4:	90 22 00 06 	sub  %o0, %g6, %o0
    6ef8:	c4 1a 60 60 	ldd  [ %o1 + 0x60 ], %g2
    6efc:	c8 1a 60 68 	ldd  [ %o1 + 0x68 ], %g4
    6f00:	c4 22 20 60 	st  %g2, [ %o0 + 0x60 ]
    6f04:	c6 22 20 64 	st  %g3, [ %o0 + 0x64 ]
    6f08:	c8 22 20 68 	st  %g4, [ %o0 + 0x68 ]
    6f0c:	ca 22 20 6c 	st  %g5, [ %o0 + 0x6c ]
    6f10:	c4 1a 60 50 	ldd  [ %o1 + 0x50 ], %g2
    6f14:	c8 1a 60 58 	ldd  [ %o1 + 0x58 ], %g4
    6f18:	c4 22 20 50 	st  %g2, [ %o0 + 0x50 ]
    6f1c:	c6 22 20 54 	st  %g3, [ %o0 + 0x54 ]
    6f20:	c8 22 20 58 	st  %g4, [ %o0 + 0x58 ]
    6f24:	ca 22 20 5c 	st  %g5, [ %o0 + 0x5c ]
    6f28:	c4 1a 60 40 	ldd  [ %o1 + 0x40 ], %g2
    6f2c:	c8 1a 60 48 	ldd  [ %o1 + 0x48 ], %g4
    6f30:	c4 22 20 40 	st  %g2, [ %o0 + 0x40 ]
    6f34:	c6 22 20 44 	st  %g3, [ %o0 + 0x44 ]
    6f38:	c8 22 20 48 	st  %g4, [ %o0 + 0x48 ]
    6f3c:	ca 22 20 4c 	st  %g5, [ %o0 + 0x4c ]
    6f40:	c4 1a 60 30 	ldd  [ %o1 + 0x30 ], %g2
    6f44:	c8 1a 60 38 	ldd  [ %o1 + 0x38 ], %g4
    6f48:	c4 22 20 30 	st  %g2, [ %o0 + 0x30 ]
    6f4c:	c6 22 20 34 	st  %g3, [ %o0 + 0x34 ]
    6f50:	c8 22 20 38 	st  %g4, [ %o0 + 0x38 ]
    6f54:	ca 22 20 3c 	st  %g5, [ %o0 + 0x3c ]
    6f58:	c4 1a 60 20 	ldd  [ %o1 + 0x20 ], %g2
    6f5c:	c8 1a 60 28 	ldd  [ %o1 + 0x28 ], %g4
    6f60:	c4 22 20 20 	st  %g2, [ %o0 + 0x20 ]
    6f64:	c6 22 20 24 	st  %g3, [ %o0 + 0x24 ]
    6f68:	c8 22 20 28 	st  %g4, [ %o0 + 0x28 ]
    6f6c:	ca 22 20 2c 	st  %g5, [ %o0 + 0x2c ]
    6f70:	c4 1a 60 10 	ldd  [ %o1 + 0x10 ], %g2
    6f74:	c8 1a 60 18 	ldd  [ %o1 + 0x18 ], %g4
    6f78:	c4 22 20 10 	st  %g2, [ %o0 + 0x10 ]
    6f7c:	c6 22 20 14 	st  %g3, [ %o0 + 0x14 ]
    6f80:	c8 22 20 18 	st  %g4, [ %o0 + 0x18 ]
    6f84:	ca 22 20 1c 	st  %g5, [ %o0 + 0x1c ]
    6f88:	c4 1a 60 00 	ldd  [ %o1 ], %g2
    6f8c:	c8 1a 60 08 	ldd  [ %o1 + 8 ], %g4
    6f90:	c4 22 20 00 	st  %g2, [ %o0 ]
    6f94:	c6 22 20 04 	st  %g3, [ %o0 + 4 ]
    6f98:	c8 22 20 08 	st  %g4, [ %o0 + 8 ]
    6f9c:	ca 22 20 0c 	st  %g5, [ %o0 + 0xc ]
    6fa0:	02 80 00 07 	be  6fbc <__GI_memmove+0x22c>
    6fa4:	80 88 60 04 	btst  4, %g1
    6fa8:	c4 1a 7f f8 	ldd  [ %o1 + -8 ], %g2
    6fac:	90 22 20 08 	sub  %o0, 8, %o0
    6fb0:	92 22 60 08 	sub  %o1, 8, %o1
    6fb4:	c4 22 00 00 	st  %g2, [ %o0 ]
    6fb8:	c6 22 20 04 	st  %g3, [ %o0 + 4 ]
    6fbc:	02 80 00 06 	be  6fd4 <__GI_memmove+0x244>
    6fc0:	80 88 60 02 	btst  2, %g1
    6fc4:	c4 02 7f fc 	ld  [ %o1 + -4 ], %g2
    6fc8:	92 22 60 04 	sub  %o1, 4, %o1
    6fcc:	c4 22 3f fc 	st  %g2, [ %o0 + -4 ]
    6fd0:	90 22 20 04 	sub  %o0, 4, %o0
    6fd4:	02 80 00 06 	be  6fec <__GI_memmove+0x25c>
    6fd8:	80 88 60 01 	btst  1, %g1
    6fdc:	c4 12 7f fe 	lduh  [ %o1 + -2 ], %g2
    6fe0:	92 22 60 02 	sub  %o1, 2, %o1
    6fe4:	c4 32 3f fe 	sth  %g2, [ %o0 + -2 ]
    6fe8:	90 22 20 02 	sub  %o0, 2, %o0
    6fec:	02 80 00 04 	be  6ffc <__GI_memmove+0x26c>
    6ff0:	01 00 00 00 	nop 
    6ff4:	c4 0a 7f ff 	ldub  [ %o1 + -1 ], %g2
    6ff8:	c4 2a 3f ff 	stb  %g2, [ %o0 + -1 ]
    6ffc:	81 c3 e0 08 	retl 
    7000:	d0 03 a0 40 	ld  [ %sp + 0x40 ], %o0
    7004:	d4 1a 7f e0 	ldd  [ %o1 + -32 ], %o2
    7008:	d8 1a 7f e8 	ldd  [ %o1 + -24 ], %o4
    700c:	c4 1a 7f f0 	ldd  [ %o1 + -16 ], %g2
    7010:	c8 1a 7f f8 	ldd  [ %o1 + -8 ], %g4
    7014:	d4 3a 3f e0 	std  %o2, [ %o0 + -32 ]
    7018:	d8 3a 3f e8 	std  %o4, [ %o0 + -24 ]
    701c:	c4 3a 3f f0 	std  %g2, [ %o0 + -16 ]
    7020:	c8 3a 3f f8 	std  %g4, [ %o0 + -8 ]
    7024:	d4 1a 7f c0 	ldd  [ %o1 + -64 ], %o2
    7028:	d8 1a 7f c8 	ldd  [ %o1 + -56 ], %o4
    702c:	c4 1a 7f d0 	ldd  [ %o1 + -48 ], %g2
    7030:	c8 1a 7f d8 	ldd  [ %o1 + -40 ], %g4
    7034:	d4 3a 3f c0 	std  %o2, [ %o0 + -64 ]
    7038:	d8 3a 3f c8 	std  %o4, [ %o0 + -56 ]
    703c:	c4 3a 3f d0 	std  %g2, [ %o0 + -48 ]
    7040:	c8 3a 3f d8 	std  %g4, [ %o0 + -40 ]
    7044:	d4 1a 7f a0 	ldd  [ %o1 + -96 ], %o2
    7048:	d8 1a 7f a8 	ldd  [ %o1 + -88 ], %o4
    704c:	c4 1a 7f b0 	ldd  [ %o1 + -80 ], %g2
    7050:	c8 1a 7f b8 	ldd  [ %o1 + -72 ], %g4
    7054:	d4 3a 3f a0 	std  %o2, [ %o0 + -96 ]
    7058:	d8 3a 3f a8 	std  %o4, [ %o0 + -88 ]
    705c:	c4 3a 3f b0 	std  %g2, [ %o0 + -80 ]
    7060:	c8 3a 3f b8 	std  %g4, [ %o0 + -72 ]
    7064:	d4 1a 7f 80 	ldd  [ %o1 + -128 ], %o2
    7068:	d8 1a 7f 88 	ldd  [ %o1 + -120 ], %o4
    706c:	c4 1a 7f 90 	ldd  [ %o1 + -112 ], %g2
    7070:	c8 1a 7f 98 	ldd  [ %o1 + -104 ], %g4
    7074:	d4 3a 3f 80 	std  %o2, [ %o0 + -128 ]
    7078:	d8 3a 3f 88 	std  %o4, [ %o0 + -120 ]
    707c:	c4 3a 3f 90 	std  %g2, [ %o0 + -112 ]
    7080:	c8 3a 3f 98 	std  %g4, [ %o0 + -104 ]
    7084:	8c a1 a0 80 	subcc  %g6, 0x80, %g6
    7088:	92 22 60 80 	sub  %o1, 0x80, %o1
    708c:	12 bf ff de 	bne  7004 <__GI_memmove+0x274>
    7090:	90 22 20 80 	sub  %o0, 0x80, %o0
    7094:	8c 88 60 70 	andcc  %g1, 0x70, %g6
    7098:	02 bf ff c2 	be  6fa0 <__GI_memmove+0x210>
    709c:	80 88 60 08 	btst  8, %g1
    70a0:	99 31 a0 01 	srl  %g6, 1, %o4
    70a4:	84 10 00 0f 	mov  %o7, %g2
    70a8:	98 01 80 0c 	add  %g6, %o4, %o4
    70ac:	40 00 04 cb 	call  83d8 <__GI_memcpy+0x1064>
    70b0:	92 22 40 06 	sub  %o1, %g6, %o1
    70b4:	9e 10 00 02 	mov  %g2, %o7
    70b8:	81 c3 7e f4 	jmp  %o5 + -268
    70bc:	90 22 00 06 	sub  %o0, %g6, %o0
    70c0:	96 0a a0 0e 	and  %o2, 0xe, %o3
    70c4:	84 10 00 0f 	mov  %o7, %g2
    70c8:	99 2a e0 03 	sll  %o3, 3, %o4
    70cc:	90 22 00 0b 	sub  %o0, %o3, %o0
    70d0:	40 00 04 c2 	call  83d8 <__GI_memcpy+0x1064>
    70d4:	92 22 40 0b 	sub  %o1, %o3, %o1
    70d8:	9e 10 00 02 	mov  %g2, %o7
    70dc:	81 c3 60 84 	jmp  %o5 + 0x84
    70e0:	80 8a a0 01 	btst  1, %o2
    70e4:	c4 0a 60 0c 	ldub  [ %o1 + 0xc ], %g2
    70e8:	c6 0a 60 0d 	ldub  [ %o1 + 0xd ], %g3
    70ec:	c4 2a 20 0c 	stb  %g2, [ %o0 + 0xc ]
    70f0:	c6 2a 20 0d 	stb  %g3, [ %o0 + 0xd ]
    70f4:	c4 0a 60 0a 	ldub  [ %o1 + 0xa ], %g2
    70f8:	c6 0a 60 0b 	ldub  [ %o1 + 0xb ], %g3
    70fc:	c4 2a 20 0a 	stb  %g2, [ %o0 + 0xa ]
    7100:	c6 2a 20 0b 	stb  %g3, [ %o0 + 0xb ]
    7104:	c4 0a 60 08 	ldub  [ %o1 + 8 ], %g2
    7108:	c6 0a 60 09 	ldub  [ %o1 + 9 ], %g3
    710c:	c4 2a 20 08 	stb  %g2, [ %o0 + 8 ]
    7110:	c6 2a 20 09 	stb  %g3, [ %o0 + 9 ]
    7114:	c4 0a 60 06 	ldub  [ %o1 + 6 ], %g2
    7118:	c6 0a 60 07 	ldub  [ %o1 + 7 ], %g3
    711c:	c4 2a 20 06 	stb  %g2, [ %o0 + 6 ]
    7120:	c6 2a 20 07 	stb  %g3, [ %o0 + 7 ]
    7124:	c4 0a 60 04 	ldub  [ %o1 + 4 ], %g2
    7128:	c6 0a 60 05 	ldub  [ %o1 + 5 ], %g3
    712c:	c4 2a 20 04 	stb  %g2, [ %o0 + 4 ]
    7130:	c6 2a 20 05 	stb  %g3, [ %o0 + 5 ]
    7134:	c4 0a 60 02 	ldub  [ %o1 + 2 ], %g2
    7138:	c6 0a 60 03 	ldub  [ %o1 + 3 ], %g3
    713c:	c4 2a 20 02 	stb  %g2, [ %o0 + 2 ]
    7140:	c6 2a 20 03 	stb  %g3, [ %o0 + 3 ]
    7144:	c4 0a 60 00 	ldub  [ %o1 ], %g2
    7148:	c6 0a 60 01 	ldub  [ %o1 + 1 ], %g3
    714c:	c4 2a 20 00 	stb  %g2, [ %o0 ]
    7150:	c6 2a 20 01 	stb  %g3, [ %o0 + 1 ]
    7154:	02 80 00 04 	be  7164 <__GI_memmove+0x3d4>
    7158:	01 00 00 00 	nop 
    715c:	c4 0a 7f ff 	ldub  [ %o1 + -1 ], %g2
    7160:	c4 2a 3f ff 	stb  %g2, [ %o0 + -1 ]
    7164:	81 c3 e0 08 	retl 
    7168:	d0 03 a0 40 	ld  [ %sp + 0x40 ], %o0
    716c:	12 bf ff d5 	bne  70c0 <__GI_memmove+0x330>
    7170:	80 8a a0 08 	btst  8, %o2
    7174:	02 80 00 08 	be  7194 <__GI_memmove+0x404>
    7178:	80 8a a0 04 	btst  4, %o2
    717c:	c4 02 7f f8 	ld  [ %o1 + -8 ], %g2
    7180:	c6 02 7f fc 	ld  [ %o1 + -4 ], %g3
    7184:	92 22 60 08 	sub  %o1, 8, %o1
    7188:	c4 22 3f f8 	st  %g2, [ %o0 + -8 ]
    718c:	c6 22 3f fc 	st  %g3, [ %o0 + -4 ]
    7190:	90 22 20 08 	sub  %o0, 8, %o0
    7194:	10 bf ff 8a 	b  6fbc <__GI_memmove+0x22c>
    7198:	82 10 00 0a 	mov  %o2, %g1
    719c:	80 a2 a0 0f 	cmp  %o2, 0xf
    71a0:	08 bf ff c8 	bleu  70c0 <__GI_memmove+0x330>
    71a4:	80 8a 20 03 	btst  3, %o0
    71a8:	02 80 00 11 	be  71ec <__GI_memmove+0x45c>
    71ac:	80 8a 20 01 	btst  1, %o0
    71b0:	02 80 00 08 	be  71d0 <__GI_memmove+0x440>
    71b4:	80 8a 20 02 	btst  2, %o0
    71b8:	ca 0a 7f ff 	ldub  [ %o1 + -1 ], %g5
    71bc:	92 22 60 01 	dec  %o1
    71c0:	ca 2a 3f ff 	stb  %g5, [ %o0 + -1 ]
    71c4:	90 22 20 01 	dec  %o0
    71c8:	02 80 00 09 	be  71ec <__GI_memmove+0x45c>
    71cc:	94 22 a0 01 	dec  %o2
    71d0:	ca 0a 7f ff 	ldub  [ %o1 + -1 ], %g5
    71d4:	92 22 60 02 	sub  %o1, 2, %o1
    71d8:	ca 2a 3f ff 	stb  %g5, [ %o0 + -1 ]
    71dc:	90 22 20 02 	sub  %o0, 2, %o0
    71e0:	ca 0a 40 00 	ldub  [ %o1 ], %g5
    71e4:	94 22 a0 02 	sub  %o2, 2, %o2
    71e8:	ca 2a 00 00 	stb  %g5, [ %o0 ]
    71ec:	84 0a 60 03 	and  %o1, 3, %g2
    71f0:	92 0a 7f fc 	and  %o1, -4, %o1
    71f4:	86 0a a0 0c 	and  %o2, 0xc, %g3
    71f8:	92 02 60 04 	add  %o1, 4, %o1
    71fc:	80 a0 e0 04 	cmp  %g3, 4
    7200:	89 28 a0 03 	sll  %g2, 3, %g4
    7204:	84 10 20 20 	mov  0x20, %g2
    7208:	02 80 00 18 	be  7268 <__GI_memmove+0x4d8>
    720c:	8c 20 80 04 	sub  %g2, %g4, %g6
    7210:	0a 80 00 10 	bcs  7250 <__GI_memmove+0x4c0>
    7214:	80 a0 e0 08 	cmp  %g3, 8
    7218:	02 80 00 08 	be  7238 <__GI_memmove+0x4a8>
    721c:	87 32 a0 02 	srl  %o2, 2, %g3
    7220:	d6 02 7f fc 	ld  [ %o1 + -4 ], %o3
    7224:	90 02 3f f8 	add  %o0, -8, %o0
    7228:	d8 02 7f f8 	ld  [ %o1 + -8 ], %o4
    722c:	92 02 7f f0 	add  %o1, -16, %o1
    7230:	10 80 00 1e 	b  72a8 <__GI_memmove+0x518>
    7234:	86 00 e0 01 	inc  %g3
    7238:	d8 02 7f fc 	ld  [ %o1 + -4 ], %o4
    723c:	90 02 3f fc 	add  %o0, -4, %o0
    7240:	c2 02 7f f8 	ld  [ %o1 + -8 ], %g1
    7244:	92 02 7f f4 	add  %o1, -12, %o1
    7248:	10 80 00 1d 	b  72bc <__GI_memmove+0x52c>
    724c:	86 00 e0 02 	add  %g3, 2, %g3
    7250:	da 02 7f fc 	ld  [ %o1 + -4 ], %o5
    7254:	90 02 3f f4 	add  %o0, -12, %o0
    7258:	d6 02 7f f8 	ld  [ %o1 + -8 ], %o3
    725c:	92 02 7f ec 	add  %o1, -20, %o1
    7260:	10 80 00 0d 	b  7294 <__GI_memmove+0x504>
    7264:	87 32 a0 02 	srl  %o2, 2, %g3
    7268:	c2 02 7f fc 	ld  [ %o1 + -4 ], %g1
    726c:	87 32 a0 02 	srl  %o2, 2, %g3
    7270:	da 02 7f f8 	ld  [ %o1 + -8 ], %o5
    7274:	92 02 7f e8 	add  %o1, -24, %o1
    7278:	90 02 3f f0 	add  %o0, -16, %o0
    727c:	86 00 ff ff 	add  %g3, -1, %g3
    7280:	d6 02 60 0c 	ld  [ %o1 + 0xc ], %o3
    7284:	85 2b 40 04 	sll  %o5, %g4, %g2
    7288:	8b 30 40 06 	srl  %g1, %g6, %g5
    728c:	84 10 80 05 	or  %g2, %g5, %g2
    7290:	c4 22 20 0c 	st  %g2, [ %o0 + 0xc ]
    7294:	d8 02 60 08 	ld  [ %o1 + 8 ], %o4
    7298:	85 2a c0 04 	sll  %o3, %g4, %g2
    729c:	8b 33 40 06 	srl  %o5, %g6, %g5
    72a0:	84 10 80 05 	or  %g2, %g5, %g2
    72a4:	c4 22 20 08 	st  %g2, [ %o0 + 8 ]
    72a8:	c2 02 60 04 	ld  [ %o1 + 4 ], %g1
    72ac:	85 2b 00 04 	sll  %o4, %g4, %g2
    72b0:	8b 32 c0 06 	srl  %o3, %g6, %g5
    72b4:	84 10 80 05 	or  %g2, %g5, %g2
    72b8:	c4 22 20 04 	st  %g2, [ %o0 + 4 ]
    72bc:	da 02 40 00 	ld  [ %o1 ], %o5
    72c0:	85 28 40 04 	sll  %g1, %g4, %g2
    72c4:	8b 33 00 06 	srl  %o4, %g6, %g5
    72c8:	86 80 ff fc 	addcc  %g3, -4, %g3
    72cc:	84 10 80 05 	or  %g2, %g5, %g2
    72d0:	92 02 7f f0 	add  %o1, -16, %o1
    72d4:	c4 22 00 00 	st  %g2, [ %o0 ]
    72d8:	90 02 3f f0 	add  %o0, -16, %o0
    72dc:	32 bf ff ea 	bne,a   7284 <__GI_memmove+0x4f4>
    72e0:	d6 02 60 0c 	ld  [ %o1 + 0xc ], %o3
    72e4:	85 2b 40 04 	sll  %o5, %g4, %g2
    72e8:	8b 30 40 06 	srl  %g1, %g6, %g5
    72ec:	87 31 20 03 	srl  %g4, 3, %g3
    72f0:	84 10 80 05 	or  %g2, %g5, %g2
    72f4:	92 02 40 03 	add  %o1, %g3, %o1
    72f8:	80 8a a0 02 	btst  2, %o2
    72fc:	c4 22 20 0c 	st  %g2, [ %o0 + 0xc ]
    7300:	02 80 00 08 	be  7320 <__GI_memmove+0x590>
    7304:	80 8a a0 01 	btst  1, %o2
    7308:	ca 0a 60 0f 	ldub  [ %o1 + 0xf ], %g5
    730c:	92 02 7f fe 	add  %o1, -2, %o1
    7310:	ca 2a 20 0b 	stb  %g5, [ %o0 + 0xb ]
    7314:	90 02 3f fe 	add  %o0, -2, %o0
    7318:	ca 0a 60 10 	ldub  [ %o1 + 0x10 ], %g5
    731c:	ca 2a 20 0c 	stb  %g5, [ %o0 + 0xc ]
    7320:	02 80 00 04 	be  7330 <__GI_memmove+0x5a0>
    7324:	01 00 00 00 	nop 
    7328:	ca 0a 60 0f 	ldub  [ %o1 + 0xf ], %g5
    732c:	ca 2a 20 0b 	stb  %g5, [ %o0 + 0xb ]
    7330:	81 c3 e0 08 	retl 
    7334:	d0 03 a0 40 	ld  [ %sp + 0x40 ], %o0
    7338:	80 8a 60 01 	btst  1, %o1
    733c:	02 80 00 08 	be  735c <__GI_memmove+0x5cc>
    7340:	80 8a 60 02 	btst  2, %o1
    7344:	c4 0a 40 00 	ldub  [ %o1 ], %g2
    7348:	92 02 60 01 	inc  %o1
    734c:	c4 2a 00 00 	stb  %g2, [ %o0 ]
    7350:	94 22 a0 01 	dec  %o2
    7354:	12 80 00 10 	bne  7394 <__GI_memcpy+0x20>
    7358:	90 02 20 01 	inc  %o0
    735c:	c4 12 40 00 	lduh  [ %o1 ], %g2
    7360:	92 02 60 02 	add  %o1, 2, %o1
    7364:	c4 32 00 00 	sth  %g2, [ %o0 ]
    7368:	94 22 a0 02 	sub  %o2, 2, %o2
    736c:	10 80 00 0a 	b  7394 <__GI_memcpy+0x20>
    7370:	90 02 20 02 	add  %o0, 2, %o0

00007374 <__GI_memcpy>:
    7374:	98 22 00 09 	sub  %o0, %o1, %o4
    7378:	d0 23 a0 40 	st  %o0, [ %sp + 0x40 ]
    737c:	9a 8b 20 03 	andcc  %o4, 3, %o5
    7380:	12 80 00 f4 	bne  7750 <__GI_memcpy+0x3dc>
    7384:	80 a2 a0 0f 	cmp  %o2, 0xf
    7388:	08 80 04 08 	bleu  83a8 <__GI_memcpy+0x1034>
    738c:	80 8a 60 03 	btst  3, %o1
    7390:	12 bf ff ea 	bne  7338 <__GI_memmove+0x5a8>
    7394:	80 8a 60 04 	btst  4, %o1
    7398:	02 80 00 07 	be  73b4 <__GI_memcpy+0x40>
    739c:	82 10 00 0a 	mov  %o2, %g1
    73a0:	d8 02 40 00 	ld  [ %o1 ], %o4
    73a4:	82 20 60 04 	sub  %g1, 4, %g1
    73a8:	d8 22 00 00 	st  %o4, [ %o0 ]
    73ac:	92 02 60 04 	add  %o1, 4, %o1
    73b0:	90 02 20 04 	add  %o0, 4, %o0
    73b4:	8c 88 7f 80 	andcc  %g1, -128, %g6
    73b8:	02 80 00 37 	be  7494 <__GI_memcpy+0x120>
    73bc:	80 8a 20 04 	btst  4, %o0
    73c0:	02 80 00 84 	be  75d0 <__GI_memcpy+0x25c>
    73c4:	d4 1a 60 00 	ldd  [ %o1 ], %o2
    73c8:	d8 1a 60 08 	ldd  [ %o1 + 8 ], %o4
    73cc:	c4 1a 60 10 	ldd  [ %o1 + 0x10 ], %g2
    73d0:	c8 1a 60 18 	ldd  [ %o1 + 0x18 ], %g4
    73d4:	d4 22 20 00 	st  %o2, [ %o0 ]
    73d8:	d6 22 20 04 	st  %o3, [ %o0 + 4 ]
    73dc:	d8 22 20 08 	st  %o4, [ %o0 + 8 ]
    73e0:	da 22 20 0c 	st  %o5, [ %o0 + 0xc ]
    73e4:	c4 22 20 10 	st  %g2, [ %o0 + 0x10 ]
    73e8:	c6 22 20 14 	st  %g3, [ %o0 + 0x14 ]
    73ec:	c8 22 20 18 	st  %g4, [ %o0 + 0x18 ]
    73f0:	ca 22 20 1c 	st  %g5, [ %o0 + 0x1c ]
    73f4:	d4 1a 60 20 	ldd  [ %o1 + 0x20 ], %o2
    73f8:	d8 1a 60 28 	ldd  [ %o1 + 0x28 ], %o4
    73fc:	c4 1a 60 30 	ldd  [ %o1 + 0x30 ], %g2
    7400:	c8 1a 60 38 	ldd  [ %o1 + 0x38 ], %g4
    7404:	d4 22 20 20 	st  %o2, [ %o0 + 0x20 ]
    7408:	d6 22 20 24 	st  %o3, [ %o0 + 0x24 ]
    740c:	d8 22 20 28 	st  %o4, [ %o0 + 0x28 ]
    7410:	da 22 20 2c 	st  %o5, [ %o0 + 0x2c ]
    7414:	c4 22 20 30 	st  %g2, [ %o0 + 0x30 ]
    7418:	c6 22 20 34 	st  %g3, [ %o0 + 0x34 ]
    741c:	c8 22 20 38 	st  %g4, [ %o0 + 0x38 ]
    7420:	ca 22 20 3c 	st  %g5, [ %o0 + 0x3c ]
    7424:	d4 1a 60 40 	ldd  [ %o1 + 0x40 ], %o2
    7428:	d8 1a 60 48 	ldd  [ %o1 + 0x48 ], %o4
    742c:	c4 1a 60 50 	ldd  [ %o1 + 0x50 ], %g2
    7430:	c8 1a 60 58 	ldd  [ %o1 + 0x58 ], %g4
    7434:	d4 22 20 40 	st  %o2, [ %o0 + 0x40 ]
    7438:	d6 22 20 44 	st  %o3, [ %o0 + 0x44 ]
    743c:	d8 22 20 48 	st  %o4, [ %o0 + 0x48 ]
    7440:	da 22 20 4c 	st  %o5, [ %o0 + 0x4c ]
    7444:	c4 22 20 50 	st  %g2, [ %o0 + 0x50 ]
    7448:	c6 22 20 54 	st  %g3, [ %o0 + 0x54 ]
    744c:	c8 22 20 58 	st  %g4, [ %o0 + 0x58 ]
    7450:	ca 22 20 5c 	st  %g5, [ %o0 + 0x5c ]
    7454:	d4 1a 60 60 	ldd  [ %o1 + 0x60 ], %o2
    7458:	d8 1a 60 68 	ldd  [ %o1 + 0x68 ], %o4
    745c:	c4 1a 60 70 	ldd  [ %o1 + 0x70 ], %g2
    7460:	c8 1a 60 78 	ldd  [ %o1 + 0x78 ], %g4
    7464:	d4 22 20 60 	st  %o2, [ %o0 + 0x60 ]
    7468:	d6 22 20 64 	st  %o3, [ %o0 + 0x64 ]
    746c:	d8 22 20 68 	st  %o4, [ %o0 + 0x68 ]
    7470:	da 22 20 6c 	st  %o5, [ %o0 + 0x6c ]
    7474:	c4 22 20 70 	st  %g2, [ %o0 + 0x70 ]
    7478:	c6 22 20 74 	st  %g3, [ %o0 + 0x74 ]
    747c:	c8 22 20 78 	st  %g4, [ %o0 + 0x78 ]
    7480:	ca 22 20 7c 	st  %g5, [ %o0 + 0x7c ]
    7484:	8c a1 a0 80 	subcc  %g6, 0x80, %g6
    7488:	92 02 60 80 	add  %o1, 0x80, %o1
    748c:	12 bf ff ce 	bne  73c4 <__GI_memcpy+0x50>
    7490:	90 02 20 80 	add  %o0, 0x80, %o0
    7494:	8c 88 60 70 	andcc  %g1, 0x70, %g6
    7498:	02 80 00 34 	be  7568 <__GI_memcpy+0x1f4>
    749c:	80 88 60 08 	btst  8, %g1
    74a0:	99 31 a0 01 	srl  %g6, 1, %o4
    74a4:	84 10 00 0f 	mov  %o7, %g2
    74a8:	98 01 80 0c 	add  %g6, %o4, %o4
    74ac:	92 02 40 06 	add  %o1, %g6, %o1
    74b0:	40 00 03 ca 	call  83d8 <__GI_memcpy+0x1064>
    74b4:	90 02 00 06 	add  %o0, %g6, %o0
    74b8:	81 c3 60 b8 	jmp  %o5 + 0xb8
    74bc:	9e 10 00 02 	mov  %g2, %o7
    74c0:	c4 1a 7f 90 	ldd  [ %o1 + -112 ], %g2
    74c4:	c8 1a 7f 98 	ldd  [ %o1 + -104 ], %g4
    74c8:	c4 22 3f 90 	st  %g2, [ %o0 + -112 ]
    74cc:	c6 22 3f 94 	st  %g3, [ %o0 + -108 ]
    74d0:	c8 22 3f 98 	st  %g4, [ %o0 + -104 ]
    74d4:	ca 22 3f 9c 	st  %g5, [ %o0 + -100 ]
    74d8:	c4 1a 7f a0 	ldd  [ %o1 + -96 ], %g2
    74dc:	c8 1a 7f a8 	ldd  [ %o1 + -88 ], %g4
    74e0:	c4 22 3f a0 	st  %g2, [ %o0 + -96 ]
    74e4:	c6 22 3f a4 	st  %g3, [ %o0 + -92 ]
    74e8:	c8 22 3f a8 	st  %g4, [ %o0 + -88 ]
    74ec:	ca 22 3f ac 	st  %g5, [ %o0 + -84 ]
    74f0:	c4 1a 7f b0 	ldd  [ %o1 + -80 ], %g2
    74f4:	c8 1a 7f b8 	ldd  [ %o1 + -72 ], %g4
    74f8:	c4 22 3f b0 	st  %g2, [ %o0 + -80 ]
    74fc:	c6 22 3f b4 	st  %g3, [ %o0 + -76 ]
    7500:	c8 22 3f b8 	st  %g4, [ %o0 + -72 ]
    7504:	ca 22 3f bc 	st  %g5, [ %o0 + -68 ]
    7508:	c4 1a 7f c0 	ldd  [ %o1 + -64 ], %g2
    750c:	c8 1a 7f c8 	ldd  [ %o1 + -56 ], %g4
    7510:	c4 22 3f c0 	st  %g2, [ %o0 + -64 ]
    7514:	c6 22 3f c4 	st  %g3, [ %o0 + -60 ]
    7518:	c8 22 3f c8 	st  %g4, [ %o0 + -56 ]
    751c:	ca 22 3f cc 	st  %g5, [ %o0 + -52 ]
    7520:	c4 1a 7f d0 	ldd  [ %o1 + -48 ], %g2
    7524:	c8 1a 7f d8 	ldd  [ %o1 + -40 ], %g4
    7528:	c4 22 3f d0 	st  %g2, [ %o0 + -48 ]
    752c:	c6 22 3f d4 	st  %g3, [ %o0 + -44 ]
    7530:	c8 22 3f d8 	st  %g4, [ %o0 + -40 ]
    7534:	ca 22 3f dc 	st  %g5, [ %o0 + -36 ]
    7538:	c4 1a 7f e0 	ldd  [ %o1 + -32 ], %g2
    753c:	c8 1a 7f e8 	ldd  [ %o1 + -24 ], %g4
    7540:	c4 22 3f e0 	st  %g2, [ %o0 + -32 ]
    7544:	c6 22 3f e4 	st  %g3, [ %o0 + -28 ]
    7548:	c8 22 3f e8 	st  %g4, [ %o0 + -24 ]
    754c:	ca 22 3f ec 	st  %g5, [ %o0 + -20 ]
    7550:	c4 1a 7f f0 	ldd  [ %o1 + -16 ], %g2
    7554:	c8 1a 7f f8 	ldd  [ %o1 + -8 ], %g4
    7558:	c4 22 3f f0 	st  %g2, [ %o0 + -16 ]
    755c:	c6 22 3f f4 	st  %g3, [ %o0 + -12 ]
    7560:	c8 22 3f f8 	st  %g4, [ %o0 + -8 ]
    7564:	ca 22 3f fc 	st  %g5, [ %o0 + -4 ]
    7568:	02 80 00 07 	be  7584 <__GI_memcpy+0x210>
    756c:	80 88 60 04 	btst  4, %g1
    7570:	c4 1a 40 00 	ldd  [ %o1 ], %g2
    7574:	90 02 20 08 	add  %o0, 8, %o0
    7578:	c4 22 3f f8 	st  %g2, [ %o0 + -8 ]
    757c:	92 02 60 08 	add  %o1, 8, %o1
    7580:	c6 22 3f fc 	st  %g3, [ %o0 + -4 ]
    7584:	02 80 00 06 	be  759c <__GI_memcpy+0x228>
    7588:	80 88 60 02 	btst  2, %g1
    758c:	c4 02 40 00 	ld  [ %o1 ], %g2
    7590:	92 02 60 04 	add  %o1, 4, %o1
    7594:	c4 22 00 00 	st  %g2, [ %o0 ]
    7598:	90 02 20 04 	add  %o0, 4, %o0
    759c:	02 80 00 06 	be  75b4 <__GI_memcpy+0x240>
    75a0:	80 88 60 01 	btst  1, %g1
    75a4:	c4 12 40 00 	lduh  [ %o1 ], %g2
    75a8:	92 02 60 02 	add  %o1, 2, %o1
    75ac:	c4 32 00 00 	sth  %g2, [ %o0 ]
    75b0:	90 02 20 02 	add  %o0, 2, %o0
    75b4:	02 80 00 04 	be  75c4 <__GI_memcpy+0x250>
    75b8:	01 00 00 00 	nop 
    75bc:	c4 0a 40 00 	ldub  [ %o1 ], %g2
    75c0:	c4 2a 00 00 	stb  %g2, [ %o0 ]
    75c4:	81 c3 e0 08 	retl 
    75c8:	d0 03 a0 40 	ld  [ %sp + 0x40 ], %o0
    75cc:	d4 1a 60 00 	ldd  [ %o1 ], %o2
    75d0:	d8 1a 60 08 	ldd  [ %o1 + 8 ], %o4
    75d4:	c4 1a 60 10 	ldd  [ %o1 + 0x10 ], %g2
    75d8:	c8 1a 60 18 	ldd  [ %o1 + 0x18 ], %g4
    75dc:	d4 3a 20 00 	std  %o2, [ %o0 ]
    75e0:	d8 3a 20 08 	std  %o4, [ %o0 + 8 ]
    75e4:	c4 3a 20 10 	std  %g2, [ %o0 + 0x10 ]
    75e8:	c8 3a 20 18 	std  %g4, [ %o0 + 0x18 ]
    75ec:	d4 1a 60 20 	ldd  [ %o1 + 0x20 ], %o2
    75f0:	d8 1a 60 28 	ldd  [ %o1 + 0x28 ], %o4
    75f4:	c4 1a 60 30 	ldd  [ %o1 + 0x30 ], %g2
    75f8:	c8 1a 60 38 	ldd  [ %o1 + 0x38 ], %g4
    75fc:	d4 3a 20 20 	std  %o2, [ %o0 + 0x20 ]
    7600:	d8 3a 20 28 	std  %o4, [ %o0 + 0x28 ]
    7604:	c4 3a 20 30 	std  %g2, [ %o0 + 0x30 ]
    7608:	c8 3a 20 38 	std  %g4, [ %o0 + 0x38 ]
    760c:	d4 1a 60 40 	ldd  [ %o1 + 0x40 ], %o2
    7610:	d8 1a 60 48 	ldd  [ %o1 + 0x48 ], %o4
    7614:	c4 1a 60 50 	ldd  [ %o1 + 0x50 ], %g2
    7618:	c8 1a 60 58 	ldd  [ %o1 + 0x58 ], %g4
    761c:	d4 3a 20 40 	std  %o2, [ %o0 + 0x40 ]
    7620:	d8 3a 20 48 	std  %o4, [ %o0 + 0x48 ]
    7624:	c4 3a 20 50 	std  %g2, [ %o0 + 0x50 ]
    7628:	c8 3a 20 58 	std  %g4, [ %o0 + 0x58 ]
    762c:	d4 1a 60 60 	ldd  [ %o1 + 0x60 ], %o2
    7630:	d8 1a 60 68 	ldd  [ %o1 + 0x68 ], %o4
    7634:	c4 1a 60 70 	ldd  [ %o1 + 0x70 ], %g2
    7638:	c8 1a 60 78 	ldd  [ %o1 + 0x78 ], %g4
    763c:	d4 3a 20 60 	std  %o2, [ %o0 + 0x60 ]
    7640:	d8 3a 20 68 	std  %o4, [ %o0 + 0x68 ]
    7644:	c4 3a 20 70 	std  %g2, [ %o0 + 0x70 ]
    7648:	c8 3a 20 78 	std  %g4, [ %o0 + 0x78 ]
    764c:	8c a1 a0 80 	subcc  %g6, 0x80, %g6
    7650:	92 02 60 80 	add  %o1, 0x80, %o1
    7654:	12 bf ff de 	bne  75cc <__GI_memcpy+0x258>
    7658:	90 02 20 80 	add  %o0, 0x80, %o0
    765c:	8c 88 60 70 	andcc  %g1, 0x70, %g6
    7660:	02 80 00 24 	be  76f0 <__GI_memcpy+0x37c>
    7664:	80 88 60 08 	btst  8, %g1
    7668:	84 10 00 0f 	mov  %o7, %g2
    766c:	40 00 03 5d 	call  83e0 <__GI_memcpy+0x106c>
    7670:	92 02 40 06 	add  %o1, %g6, %o1
    7674:	9e 10 00 02 	mov  %g2, %o7
    7678:	81 c3 60 84 	jmp  %o5 + 0x84
    767c:	90 02 00 06 	add  %o0, %g6, %o0
    7680:	c4 1a 7f 90 	ldd  [ %o1 + -112 ], %g2
    7684:	c8 1a 7f 98 	ldd  [ %o1 + -104 ], %g4
    7688:	c4 3a 3f 90 	std  %g2, [ %o0 + -112 ]
    768c:	c8 3a 3f 98 	std  %g4, [ %o0 + -104 ]
    7690:	c4 1a 7f a0 	ldd  [ %o1 + -96 ], %g2
    7694:	c8 1a 7f a8 	ldd  [ %o1 + -88 ], %g4
    7698:	c4 3a 3f a0 	std  %g2, [ %o0 + -96 ]
    769c:	c8 3a 3f a8 	std  %g4, [ %o0 + -88 ]
    76a0:	c4 1a 7f b0 	ldd  [ %o1 + -80 ], %g2
    76a4:	c8 1a 7f b8 	ldd  [ %o1 + -72 ], %g4
    76a8:	c4 3a 3f b0 	std  %g2, [ %o0 + -80 ]
    76ac:	c8 3a 3f b8 	std  %g4, [ %o0 + -72 ]
    76b0:	c4 1a 7f c0 	ldd  [ %o1 + -64 ], %g2
    76b4:	c8 1a 7f c8 	ldd  [ %o1 + -56 ], %g4
    76b8:	c4 3a 3f c0 	std  %g2, [ %o0 + -64 ]
    76bc:	c8 3a 3f c8 	std  %g4, [ %o0 + -56 ]
    76c0:	c4 1a 7f d0 	ldd  [ %o1 + -48 ], %g2
    76c4:	c8 1a 7f d8 	ldd  [ %o1 + -40 ], %g4
    76c8:	c4 3a 3f d0 	std  %g2, [ %o0 + -48 ]
    76cc:	c8 3a 3f d8 	std  %g4, [ %o0 + -40 ]
    76d0:	c4 1a 7f e0 	ldd  [ %o1 + -32 ], %g2
    76d4:	c8 1a 7f e8 	ldd  [ %o1 + -24 ], %g4
    76d8:	c4 3a 3f e0 	std  %g2, [ %o0 + -32 ]
    76dc:	c8 3a 3f e8 	std  %g4, [ %o0 + -24 ]
    76e0:	c4 1a 7f f0 	ldd  [ %o1 + -16 ], %g2
    76e4:	c8 1a 7f f8 	ldd  [ %o1 + -8 ], %g4
    76e8:	c4 3a 3f f0 	std  %g2, [ %o0 + -16 ]
    76ec:	c8 3a 3f f8 	std  %g4, [ %o0 + -8 ]
    76f0:	02 80 00 06 	be  7708 <__GI_memcpy+0x394>
    76f4:	80 88 60 04 	btst  4, %g1
    76f8:	c4 1a 40 00 	ldd  [ %o1 ], %g2
    76fc:	90 02 20 08 	add  %o0, 8, %o0
    7700:	c4 3a 3f f8 	std  %g2, [ %o0 + -8 ]
    7704:	92 02 60 08 	add  %o1, 8, %o1
    7708:	02 80 00 06 	be  7720 <__GI_memcpy+0x3ac>
    770c:	80 88 60 02 	btst  2, %g1
    7710:	c4 02 40 00 	ld  [ %o1 ], %g2
    7714:	92 02 60 04 	add  %o1, 4, %o1
    7718:	c4 22 00 00 	st  %g2, [ %o0 ]
    771c:	90 02 20 04 	add  %o0, 4, %o0
    7720:	02 80 00 06 	be  7738 <__GI_memcpy+0x3c4>
    7724:	80 88 60 01 	btst  1, %g1
    7728:	c4 12 40 00 	lduh  [ %o1 ], %g2
    772c:	92 02 60 02 	add  %o1, 2, %o1
    7730:	c4 32 00 00 	sth  %g2, [ %o0 ]
    7734:	90 02 20 02 	add  %o0, 2, %o0
    7738:	02 80 00 04 	be  7748 <__GI_memcpy+0x3d4>
    773c:	01 00 00 00 	nop 
    7740:	c4 0a 40 00 	ldub  [ %o1 ], %g2
    7744:	c4 2a 00 00 	stb  %g2, [ %o0 ]
    7748:	81 c3 e0 08 	retl 
    774c:	d0 03 a0 40 	ld  [ %sp + 0x40 ], %o0
    7750:	80 a2 a0 06 	cmp  %o2, 6
    7754:	08 80 02 ea 	bleu  82fc <__GI_memcpy+0xf88>
    7758:	80 a2 a1 00 	cmp  %o2, 0x100
    775c:	1a 80 00 65 	bcc  78f0 <__GI_memcpy+0x57c>
    7760:	80 8a 20 03 	btst  3, %o0
    7764:	02 80 00 11 	be  77a8 <__GI_memcpy+0x434>
    7768:	80 8a 20 01 	btst  1, %o0
    776c:	02 80 00 08 	be  778c <__GI_memcpy+0x418>
    7770:	80 8a 20 02 	btst  2, %o0
    7774:	ca 0a 40 00 	ldub  [ %o1 ], %g5
    7778:	92 02 60 01 	inc  %o1
    777c:	ca 2a 00 00 	stb  %g5, [ %o0 ]
    7780:	94 22 a0 01 	dec  %o2
    7784:	12 80 00 09 	bne  77a8 <__GI_memcpy+0x434>
    7788:	90 02 20 01 	inc  %o0
    778c:	c6 0a 40 00 	ldub  [ %o1 ], %g3
    7790:	92 02 60 02 	add  %o1, 2, %o1
    7794:	c6 2a 00 00 	stb  %g3, [ %o0 ]
    7798:	94 22 a0 02 	sub  %o2, 2, %o2
    779c:	c6 0a 7f ff 	ldub  [ %o1 + -1 ], %g3
    77a0:	90 02 20 02 	add  %o0, 2, %o0
    77a4:	c6 2a 3f ff 	stb  %g3, [ %o0 + -1 ]
    77a8:	84 0a 60 03 	and  %o1, 3, %g2
    77ac:	86 0a a0 0c 	and  %o2, 0xc, %g3
    77b0:	92 0a 7f fc 	and  %o1, -4, %o1
    77b4:	80 a0 e0 04 	cmp  %g3, 4
    77b8:	89 28 a0 03 	sll  %g2, 3, %g4
    77bc:	84 10 20 20 	mov  0x20, %g2
    77c0:	02 80 00 17 	be  781c <__GI_memcpy+0x4a8>
    77c4:	8c 20 80 04 	sub  %g2, %g4, %g6
    77c8:	0a 80 00 0f 	bcs  7804 <__GI_memcpy+0x490>
    77cc:	80 a0 e0 08 	cmp  %g3, 8
    77d0:	02 80 00 07 	be  77ec <__GI_memcpy+0x478>
    77d4:	87 32 a0 02 	srl  %o2, 2, %g3
    77d8:	d6 02 40 00 	ld  [ %o1 ], %o3
    77dc:	90 02 3f f8 	add  %o0, -8, %o0
    77e0:	d8 02 60 04 	ld  [ %o1 + 4 ], %o4
    77e4:	10 80 00 1f 	b  7860 <__GI_memcpy+0x4ec>
    77e8:	86 00 e0 01 	inc  %g3
    77ec:	d8 02 40 00 	ld  [ %o1 ], %o4
    77f0:	90 02 3f f4 	add  %o0, -12, %o0
    77f4:	da 02 60 04 	ld  [ %o1 + 4 ], %o5
    77f8:	86 00 e0 02 	add  %g3, 2, %g3
    77fc:	10 80 00 1e 	b  7874 <__GI_memcpy+0x500>
    7800:	92 02 7f fc 	add  %o1, -4, %o1
    7804:	c2 02 40 00 	ld  [ %o1 ], %g1
    7808:	90 02 3f fc 	add  %o0, -4, %o0
    780c:	d6 02 60 04 	ld  [ %o1 + 4 ], %o3
    7810:	87 32 a0 02 	srl  %o2, 2, %g3
    7814:	10 80 00 0e 	b  784c <__GI_memcpy+0x4d8>
    7818:	92 02 60 04 	add  %o1, 4, %o1
    781c:	da 02 40 00 	ld  [ %o1 ], %o5
    7820:	80 a2 a0 07 	cmp  %o2, 7
    7824:	c2 02 60 04 	ld  [ %o1 + 4 ], %g1
    7828:	87 32 a0 02 	srl  %o2, 2, %g3
    782c:	08 80 00 1c 	bleu  789c <__GI_memcpy+0x528>
    7830:	92 02 60 08 	add  %o1, 8, %o1
    7834:	d6 02 40 00 	ld  [ %o1 ], %o3
    7838:	86 00 ff ff 	add  %g3, -1, %g3
    783c:	85 2b 40 04 	sll  %o5, %g4, %g2
    7840:	8b 30 40 06 	srl  %g1, %g6, %g5
    7844:	84 10 80 05 	or  %g2, %g5, %g2
    7848:	c4 22 00 00 	st  %g2, [ %o0 ]
    784c:	d8 02 60 04 	ld  [ %o1 + 4 ], %o4
    7850:	85 28 40 04 	sll  %g1, %g4, %g2
    7854:	8b 32 c0 06 	srl  %o3, %g6, %g5
    7858:	84 10 80 05 	or  %g2, %g5, %g2
    785c:	c4 22 20 04 	st  %g2, [ %o0 + 4 ]
    7860:	da 02 60 08 	ld  [ %o1 + 8 ], %o5
    7864:	85 2a c0 04 	sll  %o3, %g4, %g2
    7868:	8b 33 00 06 	srl  %o4, %g6, %g5
    786c:	84 10 80 05 	or  %g2, %g5, %g2
    7870:	c4 22 20 08 	st  %g2, [ %o0 + 8 ]
    7874:	c2 02 60 0c 	ld  [ %o1 + 0xc ], %g1
    7878:	85 2b 00 04 	sll  %o4, %g4, %g2
    787c:	8b 33 40 06 	srl  %o5, %g6, %g5
    7880:	86 80 ff fc 	addcc  %g3, -4, %g3
    7884:	84 10 80 05 	or  %g2, %g5, %g2
    7888:	92 02 60 10 	add  %o1, 0x10, %o1
    788c:	c4 22 20 0c 	st  %g2, [ %o0 + 0xc ]
    7890:	90 02 20 10 	add  %o0, 0x10, %o0
    7894:	32 bf ff ea 	bne,a   783c <__GI_memcpy+0x4c8>
    7898:	d6 02 40 00 	ld  [ %o1 ], %o3
    789c:	85 2b 40 04 	sll  %o5, %g4, %g2
    78a0:	8b 30 40 06 	srl  %g1, %g6, %g5
    78a4:	87 31 a0 03 	srl  %g6, 3, %g3
    78a8:	84 10 80 05 	or  %g2, %g5, %g2
    78ac:	92 22 40 03 	sub  %o1, %g3, %o1
    78b0:	80 8a a0 02 	btst  2, %o2
    78b4:	c4 22 00 00 	st  %g2, [ %o0 ]
    78b8:	02 80 00 08 	be  78d8 <__GI_memcpy+0x564>
    78bc:	80 8a a0 01 	btst  1, %o2
    78c0:	c4 0a 40 00 	ldub  [ %o1 ], %g2
    78c4:	92 02 60 02 	add  %o1, 2, %o1
    78c8:	c4 2a 20 04 	stb  %g2, [ %o0 + 4 ]
    78cc:	90 02 20 02 	add  %o0, 2, %o0
    78d0:	c4 0a 7f ff 	ldub  [ %o1 + -1 ], %g2
    78d4:	c4 2a 20 03 	stb  %g2, [ %o0 + 3 ]
    78d8:	02 80 00 04 	be  78e8 <__GI_memcpy+0x574>
    78dc:	01 00 00 00 	nop 
    78e0:	c4 0a 40 00 	ldub  [ %o1 ], %g2
    78e4:	c4 2a 20 04 	stb  %g2, [ %o0 + 4 ]
    78e8:	81 c3 e0 08 	retl 
    78ec:	d0 03 a0 40 	ld  [ %sp + 0x40 ], %o0
    78f0:	80 8a 60 03 	btst  3, %o1
    78f4:	02 80 00 11 	be  7938 <__GI_memcpy+0x5c4>
    78f8:	80 8a 60 01 	btst  1, %o1
    78fc:	02 80 00 08 	be  791c <__GI_memcpy+0x5a8>
    7900:	80 8a 60 02 	btst  2, %o1
    7904:	c4 0a 40 00 	ldub  [ %o1 ], %g2
    7908:	92 02 60 01 	inc  %o1
    790c:	c4 2a 00 00 	stb  %g2, [ %o0 ]
    7910:	94 22 a0 01 	dec  %o2
    7914:	12 80 00 09 	bne  7938 <__GI_memcpy+0x5c4>
    7918:	90 02 20 01 	inc  %o0
    791c:	c4 12 40 00 	lduh  [ %o1 ], %g2
    7920:	92 02 60 02 	add  %o1, 2, %o1
    7924:	87 30 a0 08 	srl  %g2, 8, %g3
    7928:	94 22 a0 02 	sub  %o2, 2, %o2
    792c:	c6 2a 00 00 	stb  %g3, [ %o0 ]
    7930:	90 02 20 02 	add  %o0, 2, %o0
    7934:	c4 2a 3f ff 	stb  %g2, [ %o0 + -1 ]
    7938:	80 8a 60 04 	btst  4, %o1
    793c:	12 80 00 0d 	bne  7970 <__GI_memcpy+0x5fc>
    7940:	80 a3 60 01 	cmp  %o5, 1
    7944:	d8 02 40 00 	ld  [ %o1 ], %o4
    7948:	85 33 20 18 	srl  %o4, 0x18, %g2
    794c:	c4 2a 00 00 	stb  %g2, [ %o0 ]
    7950:	87 33 20 10 	srl  %o4, 0x10, %g3
    7954:	c6 2a 20 01 	stb  %g3, [ %o0 + 1 ]
    7958:	85 33 20 08 	srl  %o4, 8, %g2
    795c:	c4 2a 20 02 	stb  %g2, [ %o0 + 2 ]
    7960:	94 22 a0 04 	sub  %o2, 4, %o2
    7964:	d8 2a 20 03 	stb  %o4, [ %o0 + 3 ]
    7968:	92 02 60 04 	add  %o1, 4, %o1
    796c:	90 02 20 04 	add  %o0, 4, %o0
    7970:	02 80 00 da 	be  7cd8 <__GI_memcpy+0x964>
    7974:	80 a3 60 02 	cmp  %o5, 2
    7978:	02 80 00 6e 	be  7b30 <__GI_memcpy+0x7bc>
    797c:	94 22 a0 04 	sub  %o2, 4, %o2
    7980:	c4 02 40 00 	ld  [ %o1 ], %g2
    7984:	92 02 60 04 	add  %o1, 4, %o1
    7988:	87 30 a0 18 	srl  %g2, 0x18, %g3
    798c:	8a 0a 20 07 	and  %o0, 7, %g5
    7990:	c6 2a 00 00 	stb  %g3, [ %o0 ]
    7994:	80 a1 60 07 	cmp  %g5, 7
    7998:	83 28 a0 08 	sll  %g2, 8, %g1
    799c:	90 02 20 04 	add  %o0, 4, %o0
    79a0:	02 80 01 3b 	be  7e8c <__GI_memcpy+0xb18>
    79a4:	96 0a bf c0 	and  %o2, -64, %o3
    79a8:	d8 02 3f f9 	ld  [ %o0 + -7 ], %o4
    79ac:	c4 1a 60 00 	ldd  [ %o1 ], %g2
    79b0:	c8 1a 60 08 	ldd  [ %o1 + 8 ], %g4
    79b4:	9b 30 a0 18 	srl  %g2, 0x18, %o5
    79b8:	8d 30 e0 18 	srl  %g3, 0x18, %g6
    79bc:	85 28 a0 08 	sll  %g2, 8, %g2
    79c0:	9a 13 40 01 	or  %o5, %g1, %o5
    79c4:	83 28 e0 08 	sll  %g3, 8, %g1
    79c8:	84 11 80 02 	or  %g6, %g2, %g2
    79cc:	87 31 20 18 	srl  %g4, 0x18, %g3
    79d0:	8d 31 60 18 	srl  %g5, 0x18, %g6
    79d4:	89 29 20 08 	sll  %g4, 8, %g4
    79d8:	86 10 c0 01 	or  %g3, %g1, %g3
    79dc:	d8 3a 3f f9 	std  %o4, [ %o0 + -7 ]
    79e0:	c4 3a 20 01 	std  %g2, [ %o0 + 1 ]
    79e4:	83 29 60 08 	sll  %g5, 8, %g1
    79e8:	98 11 80 04 	or  %g6, %g4, %o4
    79ec:	c4 1a 60 10 	ldd  [ %o1 + 0x10 ], %g2
    79f0:	c8 1a 60 18 	ldd  [ %o1 + 0x18 ], %g4
    79f4:	9b 30 a0 18 	srl  %g2, 0x18, %o5
    79f8:	8d 30 e0 18 	srl  %g3, 0x18, %g6
    79fc:	85 28 a0 08 	sll  %g2, 8, %g2
    7a00:	9a 13 40 01 	or  %o5, %g1, %o5
    7a04:	83 28 e0 08 	sll  %g3, 8, %g1
    7a08:	84 11 80 02 	or  %g6, %g2, %g2
    7a0c:	87 31 20 18 	srl  %g4, 0x18, %g3
    7a10:	8d 31 60 18 	srl  %g5, 0x18, %g6
    7a14:	89 29 20 08 	sll  %g4, 8, %g4
    7a18:	86 10 c0 01 	or  %g3, %g1, %g3
    7a1c:	d8 3a 20 09 	std  %o4, [ %o0 + 9 ]
    7a20:	c4 3a 20 11 	std  %g2, [ %o0 + 0x11 ]
    7a24:	83 29 60 08 	sll  %g5, 8, %g1
    7a28:	98 11 80 04 	or  %g6, %g4, %o4
    7a2c:	c4 1a 60 20 	ldd  [ %o1 + 0x20 ], %g2
    7a30:	c8 1a 60 28 	ldd  [ %o1 + 0x28 ], %g4
    7a34:	9b 30 a0 18 	srl  %g2, 0x18, %o5
    7a38:	8d 30 e0 18 	srl  %g3, 0x18, %g6
    7a3c:	85 28 a0 08 	sll  %g2, 8, %g2
    7a40:	9a 13 40 01 	or  %o5, %g1, %o5
    7a44:	83 28 e0 08 	sll  %g3, 8, %g1
    7a48:	84 11 80 02 	or  %g6, %g2, %g2
    7a4c:	87 31 20 18 	srl  %g4, 0x18, %g3
    7a50:	8d 31 60 18 	srl  %g5, 0x18, %g6
    7a54:	89 29 20 08 	sll  %g4, 8, %g4
    7a58:	86 10 c0 01 	or  %g3, %g1, %g3
    7a5c:	d8 3a 20 19 	std  %o4, [ %o0 + 0x19 ]
    7a60:	c4 3a 20 21 	std  %g2, [ %o0 + 0x21 ]
    7a64:	83 29 60 08 	sll  %g5, 8, %g1
    7a68:	98 11 80 04 	or  %g6, %g4, %o4
    7a6c:	c4 1a 60 30 	ldd  [ %o1 + 0x30 ], %g2
    7a70:	c8 1a 60 38 	ldd  [ %o1 + 0x38 ], %g4
    7a74:	9b 30 a0 18 	srl  %g2, 0x18, %o5
    7a78:	8d 30 e0 18 	srl  %g3, 0x18, %g6
    7a7c:	85 28 a0 08 	sll  %g2, 8, %g2
    7a80:	9a 13 40 01 	or  %o5, %g1, %o5
    7a84:	83 28 e0 08 	sll  %g3, 8, %g1
    7a88:	84 11 80 02 	or  %g6, %g2, %g2
    7a8c:	87 31 20 18 	srl  %g4, 0x18, %g3
    7a90:	8d 31 60 18 	srl  %g5, 0x18, %g6
    7a94:	89 29 20 08 	sll  %g4, 8, %g4
    7a98:	86 10 c0 01 	or  %g3, %g1, %g3
    7a9c:	d8 3a 20 29 	std  %o4, [ %o0 + 0x29 ]
    7aa0:	c4 3a 20 31 	std  %g2, [ %o0 + 0x31 ]
    7aa4:	83 29 60 08 	sll  %g5, 8, %g1
    7aa8:	98 11 80 04 	or  %g6, %g4, %o4
    7aac:	96 a2 e0 40 	subcc  %o3, 0x40, %o3
    7ab0:	92 02 60 40 	add  %o1, 0x40, %o1
    7ab4:	12 bf ff be 	bne  79ac <__GI_memcpy+0x638>
    7ab8:	90 02 20 40 	add  %o0, 0x40, %o0
    7abc:	96 8a a0 30 	andcc  %o2, 0x30, %o3
    7ac0:	22 80 00 17 	be,a   7b1c <__GI_memcpy+0x7a8>
    7ac4:	85 30 60 10 	srl  %g1, 0x10, %g2
    7ac8:	c4 1a 60 00 	ldd  [ %o1 ], %g2
    7acc:	c8 1a 60 08 	ldd  [ %o1 + 8 ], %g4
    7ad0:	9b 30 a0 18 	srl  %g2, 0x18, %o5
    7ad4:	8d 30 e0 18 	srl  %g3, 0x18, %g6
    7ad8:	85 28 a0 08 	sll  %g2, 8, %g2
    7adc:	9a 13 40 01 	or  %o5, %g1, %o5
    7ae0:	83 28 e0 08 	sll  %g3, 8, %g1
    7ae4:	84 11 80 02 	or  %g6, %g2, %g2
    7ae8:	87 31 20 18 	srl  %g4, 0x18, %g3
    7aec:	8d 31 60 18 	srl  %g5, 0x18, %g6
    7af0:	89 29 20 08 	sll  %g4, 8, %g4
    7af4:	86 10 c0 01 	or  %g3, %g1, %g3
    7af8:	d8 3a 3f f9 	std  %o4, [ %o0 + -7 ]
    7afc:	c4 3a 20 01 	std  %g2, [ %o0 + 1 ]
    7b00:	83 29 60 08 	sll  %g5, 8, %g1
    7b04:	98 11 80 04 	or  %g6, %g4, %o4
    7b08:	96 a2 e0 10 	subcc  %o3, 0x10, %o3
    7b0c:	92 02 60 10 	add  %o1, 0x10, %o1
    7b10:	12 bf ff ee 	bne  7ac8 <__GI_memcpy+0x754>
    7b14:	90 02 20 10 	add  %o0, 0x10, %o0
    7b18:	85 30 60 10 	srl  %g1, 0x10, %g2
    7b1c:	d8 22 3f f9 	st  %o4, [ %o0 + -7 ]
    7b20:	c4 32 3f fd 	sth  %g2, [ %o0 + -3 ]
    7b24:	89 30 60 08 	srl  %g1, 8, %g4
    7b28:	10 80 01 f5 	b  82fc <__GI_memcpy+0xf88>
    7b2c:	c8 2a 3f ff 	stb  %g4, [ %o0 + -1 ]
    7b30:	c4 02 40 00 	ld  [ %o1 ], %g2
    7b34:	92 02 60 04 	add  %o1, 4, %o1
    7b38:	87 30 a0 10 	srl  %g2, 0x10, %g3
    7b3c:	8a 0a 20 07 	and  %o0, 7, %g5
    7b40:	c6 32 00 00 	sth  %g3, [ %o0 ]
    7b44:	80 a1 60 06 	cmp  %g5, 6
    7b48:	83 28 a0 10 	sll  %g2, 0x10, %g1
    7b4c:	90 02 20 04 	add  %o0, 4, %o0
    7b50:	02 80 01 8e 	be  8188 <__GI_memcpy+0xe14>
    7b54:	96 0a bf c0 	and  %o2, -64, %o3
    7b58:	d8 02 3f fa 	ld  [ %o0 + -6 ], %o4
    7b5c:	c4 1a 60 00 	ldd  [ %o1 ], %g2
    7b60:	c8 1a 60 08 	ldd  [ %o1 + 8 ], %g4
    7b64:	9b 30 a0 10 	srl  %g2, 0x10, %o5
    7b68:	8d 30 e0 10 	srl  %g3, 0x10, %g6
    7b6c:	85 28 a0 10 	sll  %g2, 0x10, %g2
    7b70:	9a 13 40 01 	or  %o5, %g1, %o5
    7b74:	83 28 e0 10 	sll  %g3, 0x10, %g1
    7b78:	84 11 80 02 	or  %g6, %g2, %g2
    7b7c:	87 31 20 10 	srl  %g4, 0x10, %g3
    7b80:	8d 31 60 10 	srl  %g5, 0x10, %g6
    7b84:	89 29 20 10 	sll  %g4, 0x10, %g4
    7b88:	86 10 c0 01 	or  %g3, %g1, %g3
    7b8c:	d8 3a 3f fa 	std  %o4, [ %o0 + -6 ]
    7b90:	c4 3a 20 02 	std  %g2, [ %o0 + 2 ]
    7b94:	83 29 60 10 	sll  %g5, 0x10, %g1
    7b98:	98 11 80 04 	or  %g6, %g4, %o4
    7b9c:	c4 1a 60 10 	ldd  [ %o1 + 0x10 ], %g2
    7ba0:	c8 1a 60 18 	ldd  [ %o1 + 0x18 ], %g4
    7ba4:	9b 30 a0 10 	srl  %g2, 0x10, %o5
    7ba8:	8d 30 e0 10 	srl  %g3, 0x10, %g6
    7bac:	85 28 a0 10 	sll  %g2, 0x10, %g2
    7bb0:	9a 13 40 01 	or  %o5, %g1, %o5
    7bb4:	83 28 e0 10 	sll  %g3, 0x10, %g1
    7bb8:	84 11 80 02 	or  %g6, %g2, %g2
    7bbc:	87 31 20 10 	srl  %g4, 0x10, %g3
    7bc0:	8d 31 60 10 	srl  %g5, 0x10, %g6
    7bc4:	89 29 20 10 	sll  %g4, 0x10, %g4
    7bc8:	86 10 c0 01 	or  %g3, %g1, %g3
    7bcc:	d8 3a 20 0a 	std  %o4, [ %o0 + 0xa ]
    7bd0:	c4 3a 20 12 	std  %g2, [ %o0 + 0x12 ]
    7bd4:	83 29 60 10 	sll  %g5, 0x10, %g1
    7bd8:	98 11 80 04 	or  %g6, %g4, %o4
    7bdc:	c4 1a 60 20 	ldd  [ %o1 + 0x20 ], %g2
    7be0:	c8 1a 60 28 	ldd  [ %o1 + 0x28 ], %g4
    7be4:	9b 30 a0 10 	srl  %g2, 0x10, %o5
    7be8:	8d 30 e0 10 	srl  %g3, 0x10, %g6
    7bec:	85 28 a0 10 	sll  %g2, 0x10, %g2
    7bf0:	9a 13 40 01 	or  %o5, %g1, %o5
    7bf4:	83 28 e0 10 	sll  %g3, 0x10, %g1
    7bf8:	84 11 80 02 	or  %g6, %g2, %g2
    7bfc:	87 31 20 10 	srl  %g4, 0x10, %g3
    7c00:	8d 31 60 10 	srl  %g5, 0x10, %g6
    7c04:	89 29 20 10 	sll  %g4, 0x10, %g4
    7c08:	86 10 c0 01 	or  %g3, %g1, %g3
    7c0c:	d8 3a 20 1a 	std  %o4, [ %o0 + 0x1a ]
    7c10:	c4 3a 20 22 	std  %g2, [ %o0 + 0x22 ]
    7c14:	83 29 60 10 	sll  %g5, 0x10, %g1
    7c18:	98 11 80 04 	or  %g6, %g4, %o4
    7c1c:	c4 1a 60 30 	ldd  [ %o1 + 0x30 ], %g2
    7c20:	c8 1a 60 38 	ldd  [ %o1 + 0x38 ], %g4
    7c24:	9b 30 a0 10 	srl  %g2, 0x10, %o5
    7c28:	8d 30 e0 10 	srl  %g3, 0x10, %g6
    7c2c:	85 28 a0 10 	sll  %g2, 0x10, %g2
    7c30:	9a 13 40 01 	or  %o5, %g1, %o5
    7c34:	83 28 e0 10 	sll  %g3, 0x10, %g1
    7c38:	84 11 80 02 	or  %g6, %g2, %g2
    7c3c:	87 31 20 10 	srl  %g4, 0x10, %g3
    7c40:	8d 31 60 10 	srl  %g5, 0x10, %g6
    7c44:	89 29 20 10 	sll  %g4, 0x10, %g4
    7c48:	86 10 c0 01 	or  %g3, %g1, %g3
    7c4c:	d8 3a 20 2a 	std  %o4, [ %o0 + 0x2a ]
    7c50:	c4 3a 20 32 	std  %g2, [ %o0 + 0x32 ]
    7c54:	83 29 60 10 	sll  %g5, 0x10, %g1
    7c58:	98 11 80 04 	or  %g6, %g4, %o4
    7c5c:	96 a2 e0 40 	subcc  %o3, 0x40, %o3
    7c60:	92 02 60 40 	add  %o1, 0x40, %o1
    7c64:	12 bf ff be 	bne  7b5c <__GI_memcpy+0x7e8>
    7c68:	90 02 20 40 	add  %o0, 0x40, %o0
    7c6c:	96 8a a0 30 	andcc  %o2, 0x30, %o3
    7c70:	22 80 00 17 	be,a   7ccc <__GI_memcpy+0x958>
    7c74:	85 30 60 10 	srl  %g1, 0x10, %g2
    7c78:	c4 1a 60 00 	ldd  [ %o1 ], %g2
    7c7c:	c8 1a 60 08 	ldd  [ %o1 + 8 ], %g4
    7c80:	9b 30 a0 10 	srl  %g2, 0x10, %o5
    7c84:	8d 30 e0 10 	srl  %g3, 0x10, %g6
    7c88:	85 28 a0 10 	sll  %g2, 0x10, %g2
    7c8c:	9a 13 40 01 	or  %o5, %g1, %o5
    7c90:	83 28 e0 10 	sll  %g3, 0x10, %g1
    7c94:	84 11 80 02 	or  %g6, %g2, %g2
    7c98:	87 31 20 10 	srl  %g4, 0x10, %g3
    7c9c:	8d 31 60 10 	srl  %g5, 0x10, %g6
    7ca0:	89 29 20 10 	sll  %g4, 0x10, %g4
    7ca4:	86 10 c0 01 	or  %g3, %g1, %g3
    7ca8:	d8 3a 3f fa 	std  %o4, [ %o0 + -6 ]
    7cac:	c4 3a 20 02 	std  %g2, [ %o0 + 2 ]
    7cb0:	83 29 60 10 	sll  %g5, 0x10, %g1
    7cb4:	98 11 80 04 	or  %g6, %g4, %o4
    7cb8:	96 a2 e0 10 	subcc  %o3, 0x10, %o3
    7cbc:	92 02 60 10 	add  %o1, 0x10, %o1
    7cc0:	12 bf ff ee 	bne  7c78 <__GI_memcpy+0x904>
    7cc4:	90 02 20 10 	add  %o0, 0x10, %o0
    7cc8:	85 30 60 10 	srl  %g1, 0x10, %g2
    7ccc:	d8 22 3f fa 	st  %o4, [ %o0 + -6 ]
    7cd0:	10 80 01 8b 	b  82fc <__GI_memcpy+0xf88>
    7cd4:	c4 32 3f fe 	sth  %g2, [ %o0 + -2 ]
    7cd8:	c4 02 40 00 	ld  [ %o1 ], %g2
    7cdc:	94 22 a0 04 	sub  %o2, 4, %o2
    7ce0:	87 30 a0 18 	srl  %g2, 0x18, %g3
    7ce4:	8a 0a 20 07 	and  %o0, 7, %g5
    7ce8:	c6 2a 00 00 	stb  %g3, [ %o0 ]
    7cec:	80 a1 60 05 	cmp  %g5, 5
    7cf0:	89 30 a0 08 	srl  %g2, 8, %g4
    7cf4:	83 28 a0 18 	sll  %g2, 0x18, %g1
    7cf8:	c8 32 20 01 	sth  %g4, [ %o0 + 1 ]
    7cfc:	92 02 60 04 	add  %o1, 4, %o1
    7d00:	02 80 00 c3 	be  800c <__GI_memcpy+0xc98>
    7d04:	96 0a bf c0 	and  %o2, -64, %o3
    7d08:	d8 02 3f ff 	ld  [ %o0 + -1 ], %o4
    7d0c:	90 02 20 04 	add  %o0, 4, %o0
    7d10:	c4 1a 60 00 	ldd  [ %o1 ], %g2
    7d14:	c8 1a 60 08 	ldd  [ %o1 + 8 ], %g4
    7d18:	9b 30 a0 08 	srl  %g2, 8, %o5
    7d1c:	8d 30 e0 08 	srl  %g3, 8, %g6
    7d20:	85 28 a0 18 	sll  %g2, 0x18, %g2
    7d24:	9a 13 40 01 	or  %o5, %g1, %o5
    7d28:	83 28 e0 18 	sll  %g3, 0x18, %g1
    7d2c:	84 11 80 02 	or  %g6, %g2, %g2
    7d30:	87 31 20 08 	srl  %g4, 8, %g3
    7d34:	8d 31 60 08 	srl  %g5, 8, %g6
    7d38:	89 29 20 18 	sll  %g4, 0x18, %g4
    7d3c:	86 10 c0 01 	or  %g3, %g1, %g3
    7d40:	d8 3a 3f fb 	std  %o4, [ %o0 + -5 ]
    7d44:	c4 3a 20 03 	std  %g2, [ %o0 + 3 ]
    7d48:	83 29 60 18 	sll  %g5, 0x18, %g1
    7d4c:	98 11 80 04 	or  %g6, %g4, %o4
    7d50:	c4 1a 60 10 	ldd  [ %o1 + 0x10 ], %g2
    7d54:	c8 1a 60 18 	ldd  [ %o1 + 0x18 ], %g4
    7d58:	9b 30 a0 08 	srl  %g2, 8, %o5
    7d5c:	8d 30 e0 08 	srl  %g3, 8, %g6
    7d60:	85 28 a0 18 	sll  %g2, 0x18, %g2
    7d64:	9a 13 40 01 	or  %o5, %g1, %o5
    7d68:	83 28 e0 18 	sll  %g3, 0x18, %g1
    7d6c:	84 11 80 02 	or  %g6, %g2, %g2
    7d70:	87 31 20 08 	srl  %g4, 8, %g3
    7d74:	8d 31 60 08 	srl  %g5, 8, %g6
    7d78:	89 29 20 18 	sll  %g4, 0x18, %g4
    7d7c:	86 10 c0 01 	or  %g3, %g1, %g3
    7d80:	d8 3a 20 0b 	std  %o4, [ %o0 + 0xb ]
    7d84:	c4 3a 20 13 	std  %g2, [ %o0 + 0x13 ]
    7d88:	83 29 60 18 	sll  %g5, 0x18, %g1
    7d8c:	98 11 80 04 	or  %g6, %g4, %o4
    7d90:	c4 1a 60 20 	ldd  [ %o1 + 0x20 ], %g2
    7d94:	c8 1a 60 28 	ldd  [ %o1 + 0x28 ], %g4
    7d98:	9b 30 a0 08 	srl  %g2, 8, %o5
    7d9c:	8d 30 e0 08 	srl  %g3, 8, %g6
    7da0:	85 28 a0 18 	sll  %g2, 0x18, %g2
    7da4:	9a 13 40 01 	or  %o5, %g1, %o5
    7da8:	83 28 e0 18 	sll  %g3, 0x18, %g1
    7dac:	84 11 80 02 	or  %g6, %g2, %g2
    7db0:	87 31 20 08 	srl  %g4, 8, %g3
    7db4:	8d 31 60 08 	srl  %g5, 8, %g6
    7db8:	89 29 20 18 	sll  %g4, 0x18, %g4
    7dbc:	86 10 c0 01 	or  %g3, %g1, %g3
    7dc0:	d8 3a 20 1b 	std  %o4, [ %o0 + 0x1b ]
    7dc4:	c4 3a 20 23 	std  %g2, [ %o0 + 0x23 ]
    7dc8:	83 29 60 18 	sll  %g5, 0x18, %g1
    7dcc:	98 11 80 04 	or  %g6, %g4, %o4
    7dd0:	c4 1a 60 30 	ldd  [ %o1 + 0x30 ], %g2
    7dd4:	c8 1a 60 38 	ldd  [ %o1 + 0x38 ], %g4
    7dd8:	9b 30 a0 08 	srl  %g2, 8, %o5
    7ddc:	8d 30 e0 08 	srl  %g3, 8, %g6
    7de0:	85 28 a0 18 	sll  %g2, 0x18, %g2
    7de4:	9a 13 40 01 	or  %o5, %g1, %o5
    7de8:	83 28 e0 18 	sll  %g3, 0x18, %g1
    7dec:	84 11 80 02 	or  %g6, %g2, %g2
    7df0:	87 31 20 08 	srl  %g4, 8, %g3
    7df4:	8d 31 60 08 	srl  %g5, 8, %g6
    7df8:	89 29 20 18 	sll  %g4, 0x18, %g4
    7dfc:	86 10 c0 01 	or  %g3, %g1, %g3
    7e00:	d8 3a 20 2b 	std  %o4, [ %o0 + 0x2b ]
    7e04:	c4 3a 20 33 	std  %g2, [ %o0 + 0x33 ]
    7e08:	83 29 60 18 	sll  %g5, 0x18, %g1
    7e0c:	98 11 80 04 	or  %g6, %g4, %o4
    7e10:	96 a2 e0 40 	subcc  %o3, 0x40, %o3
    7e14:	92 02 60 40 	add  %o1, 0x40, %o1
    7e18:	12 bf ff be 	bne  7d10 <__GI_memcpy+0x99c>
    7e1c:	90 02 20 40 	add  %o0, 0x40, %o0
    7e20:	96 8a a0 30 	andcc  %o2, 0x30, %o3
    7e24:	22 80 00 17 	be,a   7e80 <__GI_memcpy+0xb0c>
    7e28:	85 30 60 18 	srl  %g1, 0x18, %g2
    7e2c:	c4 1a 60 00 	ldd  [ %o1 ], %g2
    7e30:	c8 1a 60 08 	ldd  [ %o1 + 8 ], %g4
    7e34:	9b 30 a0 08 	srl  %g2, 8, %o5
    7e38:	8d 30 e0 08 	srl  %g3, 8, %g6
    7e3c:	85 28 a0 18 	sll  %g2, 0x18, %g2
    7e40:	9a 13 40 01 	or  %o5, %g1, %o5
    7e44:	83 28 e0 18 	sll  %g3, 0x18, %g1
    7e48:	84 11 80 02 	or  %g6, %g2, %g2
    7e4c:	87 31 20 08 	srl  %g4, 8, %g3
    7e50:	8d 31 60 08 	srl  %g5, 8, %g6
    7e54:	89 29 20 18 	sll  %g4, 0x18, %g4
    7e58:	86 10 c0 01 	or  %g3, %g1, %g3
    7e5c:	d8 3a 3f fb 	std  %o4, [ %o0 + -5 ]
    7e60:	c4 3a 20 03 	std  %g2, [ %o0 + 3 ]
    7e64:	83 29 60 18 	sll  %g5, 0x18, %g1
    7e68:	98 11 80 04 	or  %g6, %g4, %o4
    7e6c:	96 a2 e0 10 	subcc  %o3, 0x10, %o3
    7e70:	92 02 60 10 	add  %o1, 0x10, %o1
    7e74:	12 bf ff ee 	bne  7e2c <__GI_memcpy+0xab8>
    7e78:	90 02 20 10 	add  %o0, 0x10, %o0
    7e7c:	85 30 60 18 	srl  %g1, 0x18, %g2
    7e80:	d8 22 3f fb 	st  %o4, [ %o0 + -5 ]
    7e84:	10 80 01 1e 	b  82fc <__GI_memcpy+0xf88>
    7e88:	c4 2a 3f ff 	stb  %g2, [ %o0 + -1 ]
    7e8c:	c4 1a 60 00 	ldd  [ %o1 ], %g2
    7e90:	c8 1a 60 08 	ldd  [ %o1 + 8 ], %g4
    7e94:	99 30 a0 18 	srl  %g2, 0x18, %o4
    7e98:	9b 30 e0 18 	srl  %g3, 0x18, %o5
    7e9c:	8d 28 a0 08 	sll  %g2, 8, %g6
    7ea0:	84 13 00 01 	or  %o4, %g1, %g2
    7ea4:	83 28 e0 08 	sll  %g3, 8, %g1
    7ea8:	86 13 40 06 	or  %o5, %g6, %g3
    7eac:	99 31 20 18 	srl  %g4, 0x18, %o4
    7eb0:	9b 31 60 18 	srl  %g5, 0x18, %o5
    7eb4:	8d 29 20 08 	sll  %g4, 8, %g6
    7eb8:	88 13 00 01 	or  %o4, %g1, %g4
    7ebc:	83 29 60 08 	sll  %g5, 8, %g1
    7ec0:	8a 13 40 06 	or  %o5, %g6, %g5
    7ec4:	c4 3a 3f fd 	std  %g2, [ %o0 + -3 ]
    7ec8:	c8 3a 20 05 	std  %g4, [ %o0 + 5 ]
    7ecc:	c4 1a 60 10 	ldd  [ %o1 + 0x10 ], %g2
    7ed0:	c8 1a 60 18 	ldd  [ %o1 + 0x18 ], %g4
    7ed4:	99 30 a0 18 	srl  %g2, 0x18, %o4
    7ed8:	9b 30 e0 18 	srl  %g3, 0x18, %o5
    7edc:	8d 28 a0 08 	sll  %g2, 8, %g6
    7ee0:	84 13 00 01 	or  %o4, %g1, %g2
    7ee4:	83 28 e0 08 	sll  %g3, 8, %g1
    7ee8:	86 13 40 06 	or  %o5, %g6, %g3
    7eec:	99 31 20 18 	srl  %g4, 0x18, %o4
    7ef0:	9b 31 60 18 	srl  %g5, 0x18, %o5
    7ef4:	8d 29 20 08 	sll  %g4, 8, %g6
    7ef8:	88 13 00 01 	or  %o4, %g1, %g4
    7efc:	83 29 60 08 	sll  %g5, 8, %g1
    7f00:	8a 13 40 06 	or  %o5, %g6, %g5
    7f04:	c4 3a 20 0d 	std  %g2, [ %o0 + 0xd ]
    7f08:	c8 3a 20 15 	std  %g4, [ %o0 + 0x15 ]
    7f0c:	c4 1a 60 20 	ldd  [ %o1 + 0x20 ], %g2
    7f10:	c8 1a 60 28 	ldd  [ %o1 + 0x28 ], %g4
    7f14:	99 30 a0 18 	srl  %g2, 0x18, %o4
    7f18:	9b 30 e0 18 	srl  %g3, 0x18, %o5
    7f1c:	8d 28 a0 08 	sll  %g2, 8, %g6
    7f20:	84 13 00 01 	or  %o4, %g1, %g2
    7f24:	83 28 e0 08 	sll  %g3, 8, %g1
    7f28:	86 13 40 06 	or  %o5, %g6, %g3
    7f2c:	99 31 20 18 	srl  %g4, 0x18, %o4
    7f30:	9b 31 60 18 	srl  %g5, 0x18, %o5
    7f34:	8d 29 20 08 	sll  %g4, 8, %g6
    7f38:	88 13 00 01 	or  %o4, %g1, %g4
    7f3c:	83 29 60 08 	sll  %g5, 8, %g1
    7f40:	8a 13 40 06 	or  %o5, %g6, %g5
    7f44:	c4 3a 20 1d 	std  %g2, [ %o0 + 0x1d ]
    7f48:	c8 3a 20 25 	std  %g4, [ %o0 + 0x25 ]
    7f4c:	c4 1a 60 30 	ldd  [ %o1 + 0x30 ], %g2
    7f50:	c8 1a 60 38 	ldd  [ %o1 + 0x38 ], %g4
    7f54:	99 30 a0 18 	srl  %g2, 0x18, %o4
    7f58:	9b 30 e0 18 	srl  %g3, 0x18, %o5
    7f5c:	8d 28 a0 08 	sll  %g2, 8, %g6
    7f60:	84 13 00 01 	or  %o4, %g1, %g2
    7f64:	83 28 e0 08 	sll  %g3, 8, %g1
    7f68:	86 13 40 06 	or  %o5, %g6, %g3
    7f6c:	99 31 20 18 	srl  %g4, 0x18, %o4
