
.//main.elf:     file format elf32-sparc


Disassembly of section .text:

00000000 <_start>:
       0:	1d 3f fc 07 	sethi  %hi(0xfff01c00), %sp
       4:	9c 13 a3 f8 	or  %sp, 0x3f8, %sp	! fff01ff8 <_GLOBAL_OFFSET_TABLE_+0xbff01d78>
       8:	3d 3f fc 07 	sethi  %hi(0xfff01c00), %fp
       c:	bc 17 a3 00 	or  %fp, 0x300, %fp	! fff01f00 <_GLOBAL_OFFSET_TABLE_+0xbff01c80>
      10:	a0 10 20 01 	mov  1, %l0
      14:	81 94 20 00 	mov  %l0, %wim
      18:	21 00 00 14 	sethi  %hi(0x5000), %l0
      1c:	a0 14 20 00 	mov  %l0, %l0	! 5000 <trap_table_base>
      20:	81 9c 20 00 	mov  %l0, %tbr
      24:	40 00 08 f7 	call  2400 <page_table_setup>
      28:	01 00 00 00 	nop 
      2c:	40 00 09 15 	call  2480 <set_context_table_pointer>
      30:	01 00 00 00 	nop 
      34:	21 00 00 04 	sethi  %hi(0x1000), %l0
      38:	a0 14 20 e7 	or  %l0, 0xe7, %l0	! 10e7 <results_section+0x57>
      3c:	81 88 00 10 	mov  %l0, %psr
      40:	90 10 20 01 	mov  1, %o0
      44:	d0 a0 01 40 	sta  %o0, [ %g0 ] (10)

00000048 <loop>:
      48:	11 00 00 04 	sethi  %hi(0x1000), %o0
      4c:	90 12 20 90 	or  %o0, 0x90, %o0	! 1090 <results_section>
      50:	23 00 00 08 	sethi  %hi(0x2000), %l1
      54:	a2 14 60 90 	or  %l1, 0x90, %l1	! 2090 <number_of_inputs>
      58:	d2 04 40 00 	ld  [ %l1 ], %o1
      5c:	40 00 23 da 	call  8fc4 <add_sub>
      60:	01 00 00 00 	nop 
      64:	40 00 00 0b 	call  90 <instr_section>
      68:	01 00 00 00 	nop 
      6c:	11 00 00 04 	sethi  %hi(0x1000), %o0
      70:	90 12 20 90 	or  %o0, 0x90, %o0	! 1090 <results_section>
      74:	23 00 00 08 	sethi  %hi(0x2000), %l1
      78:	a2 14 60 90 	or  %l1, 0x90, %l1	! 2090 <number_of_inputs>
      7c:	d2 04 40 00 	ld  [ %l1 ], %o1
      80:	40 00 17 de 	call  5ff8 <checker>
      84:	01 00 00 00 	nop 
      88:	01 00 00 00 	nop 
      8c:	91 d0 20 00 	ta  0

00000090 <instr_section>:
	...

00001090 <results_section>:
	...

00002090 <number_of_inputs>:
    2090:	00 00 00 01 	unimp  0x1
    2094:	01 00 00 00 	nop 
	...

00002400 <page_table_setup>:
    2400:	03 00 00 0a 	sethi  %hi(0x2800), %g1
    2404:	82 10 60 00 	mov  %g1, %g1	! 2800 <PAGE_TABLE_BASE>
    2408:	88 10 24 00 	mov  0x400, %g4
    240c:	88 00 40 04 	add  %g1, %g4, %g4
    2410:	89 31 20 04 	srl  %g4, 4, %g4
    2414:	88 11 20 01 	or  %g4, 1, %g4
    2418:	8a 10 28 00 	mov  0x800, %g5
    241c:	86 01 40 01 	add  %g5, %g1, %g3
    2420:	c8 20 c0 00 	st  %g4, [ %g3 ]
    2424:	88 10 20 00 	clr  %g4
    2428:	88 00 40 04 	add  %g1, %g4, %g4
    242c:	89 31 20 04 	srl  %g4, 4, %g4
    2430:	88 11 20 01 	or  %g4, 1, %g4
    2434:	8a 10 24 00 	mov  0x400, %g5
    2438:	86 01 40 01 	add  %g5, %g1, %g3
    243c:	c8 20 c0 00 	st  %g4, [ %g3 ]
    2440:	84 10 20 8e 	mov  0x8e, %g2
    2444:	8a 10 20 00 	clr  %g5
    2448:	86 01 40 01 	add  %g5, %g1, %g3
    244c:	c4 20 c0 00 	st  %g2, [ %g3 ]
    2450:	05 00 00 10 	sethi  %hi(0x4000), %g2
    2454:	84 10 a0 8e 	or  %g2, 0x8e, %g2	! 408e <window_underflow_trap_handler+0x2a>
    2458:	8a 10 20 04 	mov  4, %g5
    245c:	86 01 40 01 	add  %g5, %g1, %g3
    2460:	c4 20 c0 00 	st  %g2, [ %g3 ]
    2464:	05 00 00 20 	sethi  %hi(0x8000), %g2
    2468:	84 10 a0 8e 	or  %g2, 0x8e, %g2	! 808e <calculate_baud_control_word_for_uart+0xb6>
    246c:	8a 10 20 08 	mov  8, %g5
    2470:	86 01 40 01 	add  %g5, %g1, %g3
    2474:	c4 20 c0 00 	st  %g2, [ %g3 ]
    2478:	81 c3 e0 08 	retl 
    247c:	01 00 00 00 	nop 

00002480 <set_context_table_pointer>:
    2480:	03 00 00 0a 	sethi  %hi(0x2800), %g1
    2484:	82 10 60 00 	mov  %g1, %g1	! 2800 <PAGE_TABLE_BASE>
    2488:	8a 10 28 00 	mov  0x800, %g5
    248c:	84 01 40 01 	add  %g5, %g1, %g2
    2490:	85 30 a0 04 	srl  %g2, 4, %g2
    2494:	84 10 a0 01 	or  %g2, 1, %g2
    2498:	86 10 21 00 	mov  0x100, %g3
    249c:	c4 a0 c0 80 	sta  %g2, [ %g3 ] #ASI_N
    24a0:	81 c3 e0 08 	retl 
    24a4:	01 00 00 00 	nop 
    24a8:	01 00 00 00 	nop 
    24ac:	01 00 00 00 	nop 
    24b0:	01 00 00 00 	nop 
    24b4:	01 00 00 00 	nop 
    24b8:	01 00 00 00 	nop 
    24bc:	01 00 00 00 	nop 
    24c0:	01 00 00 00 	nop 
    24c4:	01 00 00 00 	nop 
    24c8:	01 00 00 00 	nop 
    24cc:	01 00 00 00 	nop 
    24d0:	01 00 00 00 	nop 
    24d4:	01 00 00 00 	nop 
    24d8:	01 00 00 00 	nop 
    24dc:	01 00 00 00 	nop 
    24e0:	01 00 00 00 	nop 
    24e4:	01 00 00 00 	nop 
    24e8:	01 00 00 00 	nop 
    24ec:	01 00 00 00 	nop 
    24f0:	01 00 00 00 	nop 
    24f4:	01 00 00 00 	nop 
    24f8:	01 00 00 00 	nop 
    24fc:	01 00 00 00 	nop 
    2500:	01 00 00 00 	nop 
    2504:	01 00 00 00 	nop 
    2508:	01 00 00 00 	nop 
    250c:	01 00 00 00 	nop 
    2510:	01 00 00 00 	nop 
    2514:	01 00 00 00 	nop 
    2518:	01 00 00 00 	nop 
    251c:	01 00 00 00 	nop 
    2520:	01 00 00 00 	nop 
    2524:	01 00 00 00 	nop 
    2528:	01 00 00 00 	nop 
    252c:	01 00 00 00 	nop 
    2530:	01 00 00 00 	nop 
    2534:	01 00 00 00 	nop 
    2538:	01 00 00 00 	nop 
    253c:	01 00 00 00 	nop 
    2540:	01 00 00 00 	nop 
    2544:	01 00 00 00 	nop 
    2548:	01 00 00 00 	nop 
    254c:	01 00 00 00 	nop 
    2550:	01 00 00 00 	nop 
    2554:	01 00 00 00 	nop 
    2558:	01 00 00 00 	nop 
    255c:	01 00 00 00 	nop 
    2560:	01 00 00 00 	nop 
    2564:	01 00 00 00 	nop 
    2568:	01 00 00 00 	nop 
    256c:	01 00 00 00 	nop 
    2570:	01 00 00 00 	nop 
    2574:	01 00 00 00 	nop 
    2578:	01 00 00 00 	nop 
    257c:	01 00 00 00 	nop 
    2580:	01 00 00 00 	nop 
    2584:	01 00 00 00 	nop 
    2588:	01 00 00 00 	nop 
    258c:	01 00 00 00 	nop 
    2590:	01 00 00 00 	nop 
    2594:	01 00 00 00 	nop 
    2598:	01 00 00 00 	nop 
    259c:	01 00 00 00 	nop 
    25a0:	01 00 00 00 	nop 
    25a4:	01 00 00 00 	nop 
    25a8:	01 00 00 00 	nop 
    25ac:	01 00 00 00 	nop 
    25b0:	01 00 00 00 	nop 
    25b4:	01 00 00 00 	nop 
    25b8:	01 00 00 00 	nop 
    25bc:	01 00 00 00 	nop 
    25c0:	01 00 00 00 	nop 
    25c4:	01 00 00 00 	nop 
    25c8:	01 00 00 00 	nop 
    25cc:	01 00 00 00 	nop 
    25d0:	01 00 00 00 	nop 
    25d4:	01 00 00 00 	nop 
    25d8:	01 00 00 00 	nop 
    25dc:	01 00 00 00 	nop 
    25e0:	01 00 00 00 	nop 
    25e4:	01 00 00 00 	nop 
    25e8:	01 00 00 00 	nop 
    25ec:	01 00 00 00 	nop 
    25f0:	01 00 00 00 	nop 
    25f4:	01 00 00 00 	nop 
    25f8:	01 00 00 00 	nop 
    25fc:	01 00 00 00 	nop 
    2600:	01 00 00 00 	nop 
    2604:	01 00 00 00 	nop 
    2608:	01 00 00 00 	nop 
    260c:	01 00 00 00 	nop 
    2610:	01 00 00 00 	nop 
    2614:	01 00 00 00 	nop 
    2618:	01 00 00 00 	nop 
    261c:	01 00 00 00 	nop 
    2620:	01 00 00 00 	nop 
    2624:	01 00 00 00 	nop 
    2628:	01 00 00 00 	nop 
    262c:	01 00 00 00 	nop 
    2630:	01 00 00 00 	nop 
    2634:	01 00 00 00 	nop 
    2638:	01 00 00 00 	nop 
    263c:	01 00 00 00 	nop 
    2640:	01 00 00 00 	nop 
    2644:	01 00 00 00 	nop 
    2648:	01 00 00 00 	nop 
    264c:	01 00 00 00 	nop 
    2650:	01 00 00 00 	nop 
    2654:	01 00 00 00 	nop 
    2658:	01 00 00 00 	nop 
    265c:	01 00 00 00 	nop 
    2660:	01 00 00 00 	nop 
    2664:	01 00 00 00 	nop 
    2668:	01 00 00 00 	nop 
    266c:	01 00 00 00 	nop 
    2670:	01 00 00 00 	nop 
    2674:	01 00 00 00 	nop 
    2678:	01 00 00 00 	nop 
    267c:	01 00 00 00 	nop 
    2680:	01 00 00 00 	nop 
    2684:	01 00 00 00 	nop 
    2688:	01 00 00 00 	nop 
    268c:	01 00 00 00 	nop 
    2690:	01 00 00 00 	nop 
    2694:	01 00 00 00 	nop 
    2698:	01 00 00 00 	nop 
    269c:	01 00 00 00 	nop 
    26a0:	01 00 00 00 	nop 
    26a4:	01 00 00 00 	nop 
    26a8:	01 00 00 00 	nop 
    26ac:	01 00 00 00 	nop 
    26b0:	01 00 00 00 	nop 
    26b4:	01 00 00 00 	nop 
    26b8:	01 00 00 00 	nop 
    26bc:	01 00 00 00 	nop 
    26c0:	01 00 00 00 	nop 
    26c4:	01 00 00 00 	nop 
    26c8:	01 00 00 00 	nop 
    26cc:	01 00 00 00 	nop 
    26d0:	01 00 00 00 	nop 
    26d4:	01 00 00 00 	nop 
    26d8:	01 00 00 00 	nop 
    26dc:	01 00 00 00 	nop 
    26e0:	01 00 00 00 	nop 
    26e4:	01 00 00 00 	nop 
    26e8:	01 00 00 00 	nop 
    26ec:	01 00 00 00 	nop 
    26f0:	01 00 00 00 	nop 
    26f4:	01 00 00 00 	nop 
    26f8:	01 00 00 00 	nop 
    26fc:	01 00 00 00 	nop 
    2700:	01 00 00 00 	nop 
    2704:	01 00 00 00 	nop 
    2708:	01 00 00 00 	nop 
    270c:	01 00 00 00 	nop 
    2710:	01 00 00 00 	nop 
    2714:	01 00 00 00 	nop 
    2718:	01 00 00 00 	nop 
    271c:	01 00 00 00 	nop 
    2720:	01 00 00 00 	nop 
    2724:	01 00 00 00 	nop 
    2728:	01 00 00 00 	nop 
    272c:	01 00 00 00 	nop 
    2730:	01 00 00 00 	nop 
    2734:	01 00 00 00 	nop 
    2738:	01 00 00 00 	nop 
    273c:	01 00 00 00 	nop 
    2740:	01 00 00 00 	nop 
    2744:	01 00 00 00 	nop 
    2748:	01 00 00 00 	nop 
    274c:	01 00 00 00 	nop 
    2750:	01 00 00 00 	nop 
    2754:	01 00 00 00 	nop 
    2758:	01 00 00 00 	nop 
    275c:	01 00 00 00 	nop 
    2760:	01 00 00 00 	nop 
    2764:	01 00 00 00 	nop 
    2768:	01 00 00 00 	nop 
    276c:	01 00 00 00 	nop 
    2770:	01 00 00 00 	nop 
    2774:	01 00 00 00 	nop 
    2778:	01 00 00 00 	nop 
    277c:	01 00 00 00 	nop 
    2780:	01 00 00 00 	nop 
    2784:	01 00 00 00 	nop 
    2788:	01 00 00 00 	nop 
    278c:	01 00 00 00 	nop 
    2790:	01 00 00 00 	nop 
    2794:	01 00 00 00 	nop 
    2798:	01 00 00 00 	nop 
    279c:	01 00 00 00 	nop 
    27a0:	01 00 00 00 	nop 
    27a4:	01 00 00 00 	nop 
    27a8:	01 00 00 00 	nop 
    27ac:	01 00 00 00 	nop 
    27b0:	01 00 00 00 	nop 
    27b4:	01 00 00 00 	nop 
    27b8:	01 00 00 00 	nop 
    27bc:	01 00 00 00 	nop 
    27c0:	01 00 00 00 	nop 
    27c4:	01 00 00 00 	nop 
    27c8:	01 00 00 00 	nop 
    27cc:	01 00 00 00 	nop 
    27d0:	01 00 00 00 	nop 
    27d4:	01 00 00 00 	nop 
    27d8:	01 00 00 00 	nop 
    27dc:	01 00 00 00 	nop 
    27e0:	01 00 00 00 	nop 
    27e4:	01 00 00 00 	nop 
    27e8:	01 00 00 00 	nop 
    27ec:	01 00 00 00 	nop 
    27f0:	01 00 00 00 	nop 
    27f4:	01 00 00 00 	nop 
    27f8:	01 00 00 00 	nop 
    27fc:	01 00 00 00 	nop 

00002800 <PAGE_TABLE_BASE>:
	...

00004000 <window_overflow_trap_handler>:
    4000:	a7 50 00 00 	rd  %wim, %l3
    4004:	a9 2c e0 07 	sll  %l3, 7, %l4
    4008:	a7 34 e0 01 	srl  %l3, 1, %l3
    400c:	a6 14 c0 14 	or  %l3, %l4, %l3
    4010:	a6 0c e0 ff 	and  %l3, 0xff, %l3
    4014:	81 90 00 00 	mov  %g0, %wim
    4018:	01 00 00 00 	nop 
    401c:	01 00 00 00 	nop 
    4020:	01 00 00 00 	nop 
    4024:	81 e0 00 00 	save 
    4028:	e0 3b a0 00 	std  %l0, [ %sp ]
    402c:	e4 3b a0 08 	std  %l2, [ %sp + 8 ]
    4030:	e8 3b a0 10 	std  %l4, [ %sp + 0x10 ]
    4034:	ec 3b a0 18 	std  %l6, [ %sp + 0x18 ]
    4038:	f0 3b a0 20 	std  %i0, [ %sp + 0x20 ]
    403c:	f4 3b a0 28 	std  %i2, [ %sp + 0x28 ]
    4040:	f8 3b a0 30 	std  %i4, [ %sp + 0x30 ]
    4044:	fc 3b a0 38 	std  %fp, [ %sp + 0x38 ]
    4048:	81 e8 00 00 	restore 
    404c:	81 90 00 13 	mov  %l3, %wim
    4050:	01 00 00 00 	nop 
    4054:	01 00 00 00 	nop 
    4058:	01 00 00 00 	nop 
    405c:	81 c4 40 00 	jmp  %l1
    4060:	81 cc 80 00 	rett  %l2

00004064 <window_underflow_trap_handler>:
    4064:	a7 50 00 00 	rd  %wim, %l3
    4068:	a9 34 e0 07 	srl  %l3, 7, %l4
    406c:	a7 2c e0 01 	sll  %l3, 1, %l3
    4070:	a6 14 c0 14 	or  %l3, %l4, %l3
    4074:	a6 0c e0 ff 	and  %l3, 0xff, %l3
    4078:	81 90 00 00 	mov  %g0, %wim
    407c:	01 00 00 00 	nop 
    4080:	01 00 00 00 	nop 
    4084:	01 00 00 00 	nop 
    4088:	81 e8 00 00 	restore 
    408c:	81 e8 00 00 	restore 
    4090:	e0 1b a0 00 	ldd  [ %sp ], %l0
    4094:	e4 1b a0 08 	ldd  [ %sp + 8 ], %l2
    4098:	e8 1b a0 10 	ldd  [ %sp + 0x10 ], %l4
    409c:	ec 1b a0 18 	ldd  [ %sp + 0x18 ], %l6
    40a0:	f0 1b a0 20 	ldd  [ %sp + 0x20 ], %i0
    40a4:	f4 1b a0 28 	ldd  [ %sp + 0x28 ], %i2
    40a8:	f8 1b a0 30 	ldd  [ %sp + 0x30 ], %i4
    40ac:	fc 1b a0 38 	ldd  [ %sp + 0x38 ], %fp
    40b0:	81 e0 00 00 	save 
    40b4:	81 e0 00 00 	save 
    40b8:	81 90 00 13 	mov  %l3, %wim
    40bc:	01 00 00 00 	nop 
    40c0:	01 00 00 00 	nop 
    40c4:	01 00 00 00 	nop 
    40c8:	81 c4 40 00 	jmp  %l1
    40cc:	81 cc 80 00 	rett  %l2
    40d0:	01 00 00 00 	nop 
    40d4:	01 00 00 00 	nop 
    40d8:	01 00 00 00 	nop 
    40dc:	01 00 00 00 	nop 
    40e0:	01 00 00 00 	nop 
    40e4:	01 00 00 00 	nop 
    40e8:	01 00 00 00 	nop 
    40ec:	01 00 00 00 	nop 
    40f0:	01 00 00 00 	nop 
    40f4:	01 00 00 00 	nop 
    40f8:	01 00 00 00 	nop 
    40fc:	01 00 00 00 	nop 
    4100:	01 00 00 00 	nop 
    4104:	01 00 00 00 	nop 
    4108:	01 00 00 00 	nop 
    410c:	01 00 00 00 	nop 
    4110:	01 00 00 00 	nop 
    4114:	01 00 00 00 	nop 
    4118:	01 00 00 00 	nop 
    411c:	01 00 00 00 	nop 
    4120:	01 00 00 00 	nop 
    4124:	01 00 00 00 	nop 
    4128:	01 00 00 00 	nop 
    412c:	01 00 00 00 	nop 
    4130:	01 00 00 00 	nop 
    4134:	01 00 00 00 	nop 
    4138:	01 00 00 00 	nop 
    413c:	01 00 00 00 	nop 
    4140:	01 00 00 00 	nop 
    4144:	01 00 00 00 	nop 
    4148:	01 00 00 00 	nop 
    414c:	01 00 00 00 	nop 
    4150:	01 00 00 00 	nop 
    4154:	01 00 00 00 	nop 
    4158:	01 00 00 00 	nop 
    415c:	01 00 00 00 	nop 
    4160:	01 00 00 00 	nop 
    4164:	01 00 00 00 	nop 
    4168:	01 00 00 00 	nop 
    416c:	01 00 00 00 	nop 
    4170:	01 00 00 00 	nop 
    4174:	01 00 00 00 	nop 
    4178:	01 00 00 00 	nop 
    417c:	01 00 00 00 	nop 
    4180:	01 00 00 00 	nop 
    4184:	01 00 00 00 	nop 
    4188:	01 00 00 00 	nop 
    418c:	01 00 00 00 	nop 
    4190:	01 00 00 00 	nop 
    4194:	01 00 00 00 	nop 
    4198:	01 00 00 00 	nop 
    419c:	01 00 00 00 	nop 
    41a0:	01 00 00 00 	nop 
    41a4:	01 00 00 00 	nop 
    41a8:	01 00 00 00 	nop 
    41ac:	01 00 00 00 	nop 
    41b0:	01 00 00 00 	nop 
    41b4:	01 00 00 00 	nop 
    41b8:	01 00 00 00 	nop 
    41bc:	01 00 00 00 	nop 
    41c0:	01 00 00 00 	nop 
    41c4:	01 00 00 00 	nop 
    41c8:	01 00 00 00 	nop 
    41cc:	01 00 00 00 	nop 
    41d0:	01 00 00 00 	nop 
    41d4:	01 00 00 00 	nop 
    41d8:	01 00 00 00 	nop 
    41dc:	01 00 00 00 	nop 
    41e0:	01 00 00 00 	nop 
    41e4:	01 00 00 00 	nop 
    41e8:	01 00 00 00 	nop 
    41ec:	01 00 00 00 	nop 
    41f0:	01 00 00 00 	nop 
    41f4:	01 00 00 00 	nop 
    41f8:	01 00 00 00 	nop 
    41fc:	01 00 00 00 	nop 
    4200:	01 00 00 00 	nop 
    4204:	01 00 00 00 	nop 
    4208:	01 00 00 00 	nop 
    420c:	01 00 00 00 	nop 
    4210:	01 00 00 00 	nop 
    4214:	01 00 00 00 	nop 
    4218:	01 00 00 00 	nop 
    421c:	01 00 00 00 	nop 
    4220:	01 00 00 00 	nop 
    4224:	01 00 00 00 	nop 
    4228:	01 00 00 00 	nop 
    422c:	01 00 00 00 	nop 
    4230:	01 00 00 00 	nop 
    4234:	01 00 00 00 	nop 
    4238:	01 00 00 00 	nop 
    423c:	01 00 00 00 	nop 
    4240:	01 00 00 00 	nop 
    4244:	01 00 00 00 	nop 
    4248:	01 00 00 00 	nop 
    424c:	01 00 00 00 	nop 
    4250:	01 00 00 00 	nop 
    4254:	01 00 00 00 	nop 
    4258:	01 00 00 00 	nop 
    425c:	01 00 00 00 	nop 
    4260:	01 00 00 00 	nop 
    4264:	01 00 00 00 	nop 
    4268:	01 00 00 00 	nop 
    426c:	01 00 00 00 	nop 
    4270:	01 00 00 00 	nop 
    4274:	01 00 00 00 	nop 
    4278:	01 00 00 00 	nop 
    427c:	01 00 00 00 	nop 
    4280:	01 00 00 00 	nop 
    4284:	01 00 00 00 	nop 
    4288:	01 00 00 00 	nop 
    428c:	01 00 00 00 	nop 
    4290:	01 00 00 00 	nop 
    4294:	01 00 00 00 	nop 
    4298:	01 00 00 00 	nop 
    429c:	01 00 00 00 	nop 
    42a0:	01 00 00 00 	nop 
    42a4:	01 00 00 00 	nop 
    42a8:	01 00 00 00 	nop 
    42ac:	01 00 00 00 	nop 
    42b0:	01 00 00 00 	nop 
    42b4:	01 00 00 00 	nop 
    42b8:	01 00 00 00 	nop 
    42bc:	01 00 00 00 	nop 
    42c0:	01 00 00 00 	nop 
    42c4:	01 00 00 00 	nop 
    42c8:	01 00 00 00 	nop 
    42cc:	01 00 00 00 	nop 
    42d0:	01 00 00 00 	nop 
    42d4:	01 00 00 00 	nop 
    42d8:	01 00 00 00 	nop 
    42dc:	01 00 00 00 	nop 
    42e0:	01 00 00 00 	nop 
    42e4:	01 00 00 00 	nop 
    42e8:	01 00 00 00 	nop 
    42ec:	01 00 00 00 	nop 
    42f0:	01 00 00 00 	nop 
    42f4:	01 00 00 00 	nop 
    42f8:	01 00 00 00 	nop 
    42fc:	01 00 00 00 	nop 
    4300:	01 00 00 00 	nop 
    4304:	01 00 00 00 	nop 
    4308:	01 00 00 00 	nop 
    430c:	01 00 00 00 	nop 
    4310:	01 00 00 00 	nop 
    4314:	01 00 00 00 	nop 
    4318:	01 00 00 00 	nop 
    431c:	01 00 00 00 	nop 
    4320:	01 00 00 00 	nop 
    4324:	01 00 00 00 	nop 
    4328:	01 00 00 00 	nop 
    432c:	01 00 00 00 	nop 
    4330:	01 00 00 00 	nop 
    4334:	01 00 00 00 	nop 
    4338:	01 00 00 00 	nop 
    433c:	01 00 00 00 	nop 
    4340:	01 00 00 00 	nop 
    4344:	01 00 00 00 	nop 
    4348:	01 00 00 00 	nop 
    434c:	01 00 00 00 	nop 
    4350:	01 00 00 00 	nop 
    4354:	01 00 00 00 	nop 
    4358:	01 00 00 00 	nop 
    435c:	01 00 00 00 	nop 
    4360:	01 00 00 00 	nop 
    4364:	01 00 00 00 	nop 
    4368:	01 00 00 00 	nop 
    436c:	01 00 00 00 	nop 
    4370:	01 00 00 00 	nop 
    4374:	01 00 00 00 	nop 
    4378:	01 00 00 00 	nop 
    437c:	01 00 00 00 	nop 
    4380:	01 00 00 00 	nop 
    4384:	01 00 00 00 	nop 
    4388:	01 00 00 00 	nop 
    438c:	01 00 00 00 	nop 
    4390:	01 00 00 00 	nop 
    4394:	01 00 00 00 	nop 
    4398:	01 00 00 00 	nop 
    439c:	01 00 00 00 	nop 
    43a0:	01 00 00 00 	nop 
    43a4:	01 00 00 00 	nop 
    43a8:	01 00 00 00 	nop 
    43ac:	01 00 00 00 	nop 
    43b0:	01 00 00 00 	nop 
    43b4:	01 00 00 00 	nop 
    43b8:	01 00 00 00 	nop 
    43bc:	01 00 00 00 	nop 
    43c0:	01 00 00 00 	nop 
    43c4:	01 00 00 00 	nop 
    43c8:	01 00 00 00 	nop 
    43cc:	01 00 00 00 	nop 
    43d0:	01 00 00 00 	nop 
    43d4:	01 00 00 00 	nop 
    43d8:	01 00 00 00 	nop 
    43dc:	01 00 00 00 	nop 
    43e0:	01 00 00 00 	nop 
    43e4:	01 00 00 00 	nop 
    43e8:	01 00 00 00 	nop 
    43ec:	01 00 00 00 	nop 
    43f0:	01 00 00 00 	nop 
    43f4:	01 00 00 00 	nop 
    43f8:	01 00 00 00 	nop 
    43fc:	01 00 00 00 	nop 
    4400:	01 00 00 00 	nop 
    4404:	01 00 00 00 	nop 
    4408:	01 00 00 00 	nop 
    440c:	01 00 00 00 	nop 
    4410:	01 00 00 00 	nop 
    4414:	01 00 00 00 	nop 
    4418:	01 00 00 00 	nop 
    441c:	01 00 00 00 	nop 
    4420:	01 00 00 00 	nop 
    4424:	01 00 00 00 	nop 
    4428:	01 00 00 00 	nop 
    442c:	01 00 00 00 	nop 
    4430:	01 00 00 00 	nop 
    4434:	01 00 00 00 	nop 
    4438:	01 00 00 00 	nop 
    443c:	01 00 00 00 	nop 
    4440:	01 00 00 00 	nop 
    4444:	01 00 00 00 	nop 
    4448:	01 00 00 00 	nop 
    444c:	01 00 00 00 	nop 
    4450:	01 00 00 00 	nop 
    4454:	01 00 00 00 	nop 
    4458:	01 00 00 00 	nop 
    445c:	01 00 00 00 	nop 
    4460:	01 00 00 00 	nop 
    4464:	01 00 00 00 	nop 
    4468:	01 00 00 00 	nop 
    446c:	01 00 00 00 	nop 
    4470:	01 00 00 00 	nop 
    4474:	01 00 00 00 	nop 
    4478:	01 00 00 00 	nop 
    447c:	01 00 00 00 	nop 
    4480:	01 00 00 00 	nop 
    4484:	01 00 00 00 	nop 
    4488:	01 00 00 00 	nop 
    448c:	01 00 00 00 	nop 
    4490:	01 00 00 00 	nop 
    4494:	01 00 00 00 	nop 
    4498:	01 00 00 00 	nop 
    449c:	01 00 00 00 	nop 
    44a0:	01 00 00 00 	nop 
    44a4:	01 00 00 00 	nop 
    44a8:	01 00 00 00 	nop 
    44ac:	01 00 00 00 	nop 
    44b0:	01 00 00 00 	nop 
    44b4:	01 00 00 00 	nop 
    44b8:	01 00 00 00 	nop 
    44bc:	01 00 00 00 	nop 
    44c0:	01 00 00 00 	nop 
    44c4:	01 00 00 00 	nop 
    44c8:	01 00 00 00 	nop 
    44cc:	01 00 00 00 	nop 
    44d0:	01 00 00 00 	nop 
    44d4:	01 00 00 00 	nop 
    44d8:	01 00 00 00 	nop 
    44dc:	01 00 00 00 	nop 
    44e0:	01 00 00 00 	nop 
    44e4:	01 00 00 00 	nop 
    44e8:	01 00 00 00 	nop 
    44ec:	01 00 00 00 	nop 
    44f0:	01 00 00 00 	nop 
    44f4:	01 00 00 00 	nop 
    44f8:	01 00 00 00 	nop 
    44fc:	01 00 00 00 	nop 
    4500:	01 00 00 00 	nop 
    4504:	01 00 00 00 	nop 
    4508:	01 00 00 00 	nop 
    450c:	01 00 00 00 	nop 
    4510:	01 00 00 00 	nop 
    4514:	01 00 00 00 	nop 
    4518:	01 00 00 00 	nop 
    451c:	01 00 00 00 	nop 
    4520:	01 00 00 00 	nop 
    4524:	01 00 00 00 	nop 
    4528:	01 00 00 00 	nop 
    452c:	01 00 00 00 	nop 
    4530:	01 00 00 00 	nop 
    4534:	01 00 00 00 	nop 
    4538:	01 00 00 00 	nop 
    453c:	01 00 00 00 	nop 
    4540:	01 00 00 00 	nop 
    4544:	01 00 00 00 	nop 
    4548:	01 00 00 00 	nop 
    454c:	01 00 00 00 	nop 
    4550:	01 00 00 00 	nop 
    4554:	01 00 00 00 	nop 
    4558:	01 00 00 00 	nop 
    455c:	01 00 00 00 	nop 
    4560:	01 00 00 00 	nop 
    4564:	01 00 00 00 	nop 
    4568:	01 00 00 00 	nop 
    456c:	01 00 00 00 	nop 
    4570:	01 00 00 00 	nop 
    4574:	01 00 00 00 	nop 
    4578:	01 00 00 00 	nop 
    457c:	01 00 00 00 	nop 
    4580:	01 00 00 00 	nop 
    4584:	01 00 00 00 	nop 
    4588:	01 00 00 00 	nop 
    458c:	01 00 00 00 	nop 
    4590:	01 00 00 00 	nop 
    4594:	01 00 00 00 	nop 
    4598:	01 00 00 00 	nop 
    459c:	01 00 00 00 	nop 
    45a0:	01 00 00 00 	nop 
    45a4:	01 00 00 00 	nop 
    45a8:	01 00 00 00 	nop 
    45ac:	01 00 00 00 	nop 
    45b0:	01 00 00 00 	nop 
    45b4:	01 00 00 00 	nop 
    45b8:	01 00 00 00 	nop 
    45bc:	01 00 00 00 	nop 
    45c0:	01 00 00 00 	nop 
    45c4:	01 00 00 00 	nop 
    45c8:	01 00 00 00 	nop 
    45cc:	01 00 00 00 	nop 
    45d0:	01 00 00 00 	nop 
    45d4:	01 00 00 00 	nop 
    45d8:	01 00 00 00 	nop 
    45dc:	01 00 00 00 	nop 
    45e0:	01 00 00 00 	nop 
    45e4:	01 00 00 00 	nop 
    45e8:	01 00 00 00 	nop 
    45ec:	01 00 00 00 	nop 
    45f0:	01 00 00 00 	nop 
    45f4:	01 00 00 00 	nop 
    45f8:	01 00 00 00 	nop 
    45fc:	01 00 00 00 	nop 
    4600:	01 00 00 00 	nop 
    4604:	01 00 00 00 	nop 
    4608:	01 00 00 00 	nop 
    460c:	01 00 00 00 	nop 
    4610:	01 00 00 00 	nop 
    4614:	01 00 00 00 	nop 
    4618:	01 00 00 00 	nop 
    461c:	01 00 00 00 	nop 
    4620:	01 00 00 00 	nop 
    4624:	01 00 00 00 	nop 
    4628:	01 00 00 00 	nop 
    462c:	01 00 00 00 	nop 
    4630:	01 00 00 00 	nop 
    4634:	01 00 00 00 	nop 
    4638:	01 00 00 00 	nop 
    463c:	01 00 00 00 	nop 
    4640:	01 00 00 00 	nop 
    4644:	01 00 00 00 	nop 
    4648:	01 00 00 00 	nop 
    464c:	01 00 00 00 	nop 
    4650:	01 00 00 00 	nop 
    4654:	01 00 00 00 	nop 
    4658:	01 00 00 00 	nop 
    465c:	01 00 00 00 	nop 
    4660:	01 00 00 00 	nop 
    4664:	01 00 00 00 	nop 
    4668:	01 00 00 00 	nop 
    466c:	01 00 00 00 	nop 
    4670:	01 00 00 00 	nop 
    4674:	01 00 00 00 	nop 
    4678:	01 00 00 00 	nop 
    467c:	01 00 00 00 	nop 
    4680:	01 00 00 00 	nop 
    4684:	01 00 00 00 	nop 
    4688:	01 00 00 00 	nop 
    468c:	01 00 00 00 	nop 
    4690:	01 00 00 00 	nop 
    4694:	01 00 00 00 	nop 
    4698:	01 00 00 00 	nop 
    469c:	01 00 00 00 	nop 
    46a0:	01 00 00 00 	nop 
    46a4:	01 00 00 00 	nop 
    46a8:	01 00 00 00 	nop 
    46ac:	01 00 00 00 	nop 
    46b0:	01 00 00 00 	nop 
    46b4:	01 00 00 00 	nop 
    46b8:	01 00 00 00 	nop 
    46bc:	01 00 00 00 	nop 
    46c0:	01 00 00 00 	nop 
    46c4:	01 00 00 00 	nop 
    46c8:	01 00 00 00 	nop 
    46cc:	01 00 00 00 	nop 
    46d0:	01 00 00 00 	nop 
    46d4:	01 00 00 00 	nop 
    46d8:	01 00 00 00 	nop 
    46dc:	01 00 00 00 	nop 
    46e0:	01 00 00 00 	nop 
    46e4:	01 00 00 00 	nop 
    46e8:	01 00 00 00 	nop 
    46ec:	01 00 00 00 	nop 
    46f0:	01 00 00 00 	nop 
    46f4:	01 00 00 00 	nop 
    46f8:	01 00 00 00 	nop 
    46fc:	01 00 00 00 	nop 
    4700:	01 00 00 00 	nop 
    4704:	01 00 00 00 	nop 
    4708:	01 00 00 00 	nop 
    470c:	01 00 00 00 	nop 
    4710:	01 00 00 00 	nop 
    4714:	01 00 00 00 	nop 
    4718:	01 00 00 00 	nop 
    471c:	01 00 00 00 	nop 
    4720:	01 00 00 00 	nop 
    4724:	01 00 00 00 	nop 
    4728:	01 00 00 00 	nop 
    472c:	01 00 00 00 	nop 
    4730:	01 00 00 00 	nop 
    4734:	01 00 00 00 	nop 
    4738:	01 00 00 00 	nop 
    473c:	01 00 00 00 	nop 
    4740:	01 00 00 00 	nop 
    4744:	01 00 00 00 	nop 
    4748:	01 00 00 00 	nop 
    474c:	01 00 00 00 	nop 
    4750:	01 00 00 00 	nop 
    4754:	01 00 00 00 	nop 
    4758:	01 00 00 00 	nop 
    475c:	01 00 00 00 	nop 
    4760:	01 00 00 00 	nop 
    4764:	01 00 00 00 	nop 
    4768:	01 00 00 00 	nop 
    476c:	01 00 00 00 	nop 
    4770:	01 00 00 00 	nop 
    4774:	01 00 00 00 	nop 
    4778:	01 00 00 00 	nop 
    477c:	01 00 00 00 	nop 
    4780:	01 00 00 00 	nop 
    4784:	01 00 00 00 	nop 
    4788:	01 00 00 00 	nop 
    478c:	01 00 00 00 	nop 
    4790:	01 00 00 00 	nop 
    4794:	01 00 00 00 	nop 
    4798:	01 00 00 00 	nop 
    479c:	01 00 00 00 	nop 
    47a0:	01 00 00 00 	nop 
    47a4:	01 00 00 00 	nop 
    47a8:	01 00 00 00 	nop 
    47ac:	01 00 00 00 	nop 
    47b0:	01 00 00 00 	nop 
    47b4:	01 00 00 00 	nop 
    47b8:	01 00 00 00 	nop 
    47bc:	01 00 00 00 	nop 
    47c0:	01 00 00 00 	nop 
    47c4:	01 00 00 00 	nop 
    47c8:	01 00 00 00 	nop 
    47cc:	01 00 00 00 	nop 
    47d0:	01 00 00 00 	nop 
    47d4:	01 00 00 00 	nop 
    47d8:	01 00 00 00 	nop 
    47dc:	01 00 00 00 	nop 
    47e0:	01 00 00 00 	nop 
    47e4:	01 00 00 00 	nop 
    47e8:	01 00 00 00 	nop 
    47ec:	01 00 00 00 	nop 
    47f0:	01 00 00 00 	nop 
    47f4:	01 00 00 00 	nop 
    47f8:	01 00 00 00 	nop 
    47fc:	01 00 00 00 	nop 
    4800:	01 00 00 00 	nop 
    4804:	01 00 00 00 	nop 
    4808:	01 00 00 00 	nop 
    480c:	01 00 00 00 	nop 
    4810:	01 00 00 00 	nop 
    4814:	01 00 00 00 	nop 
    4818:	01 00 00 00 	nop 
    481c:	01 00 00 00 	nop 
    4820:	01 00 00 00 	nop 
    4824:	01 00 00 00 	nop 
    4828:	01 00 00 00 	nop 
    482c:	01 00 00 00 	nop 
    4830:	01 00 00 00 	nop 
    4834:	01 00 00 00 	nop 
    4838:	01 00 00 00 	nop 
    483c:	01 00 00 00 	nop 
    4840:	01 00 00 00 	nop 
    4844:	01 00 00 00 	nop 
    4848:	01 00 00 00 	nop 
    484c:	01 00 00 00 	nop 
    4850:	01 00 00 00 	nop 
    4854:	01 00 00 00 	nop 
    4858:	01 00 00 00 	nop 
    485c:	01 00 00 00 	nop 
    4860:	01 00 00 00 	nop 
    4864:	01 00 00 00 	nop 
    4868:	01 00 00 00 	nop 
    486c:	01 00 00 00 	nop 
    4870:	01 00 00 00 	nop 
    4874:	01 00 00 00 	nop 
    4878:	01 00 00 00 	nop 
    487c:	01 00 00 00 	nop 
    4880:	01 00 00 00 	nop 
    4884:	01 00 00 00 	nop 
    4888:	01 00 00 00 	nop 
    488c:	01 00 00 00 	nop 
    4890:	01 00 00 00 	nop 
    4894:	01 00 00 00 	nop 
    4898:	01 00 00 00 	nop 
    489c:	01 00 00 00 	nop 
    48a0:	01 00 00 00 	nop 
    48a4:	01 00 00 00 	nop 
    48a8:	01 00 00 00 	nop 
    48ac:	01 00 00 00 	nop 
    48b0:	01 00 00 00 	nop 
    48b4:	01 00 00 00 	nop 
    48b8:	01 00 00 00 	nop 
    48bc:	01 00 00 00 	nop 
    48c0:	01 00 00 00 	nop 
    48c4:	01 00 00 00 	nop 
    48c8:	01 00 00 00 	nop 
    48cc:	01 00 00 00 	nop 
    48d0:	01 00 00 00 	nop 
    48d4:	01 00 00 00 	nop 
    48d8:	01 00 00 00 	nop 
    48dc:	01 00 00 00 	nop 
    48e0:	01 00 00 00 	nop 
    48e4:	01 00 00 00 	nop 
    48e8:	01 00 00 00 	nop 
    48ec:	01 00 00 00 	nop 
    48f0:	01 00 00 00 	nop 
    48f4:	01 00 00 00 	nop 
    48f8:	01 00 00 00 	nop 
    48fc:	01 00 00 00 	nop 
    4900:	01 00 00 00 	nop 
    4904:	01 00 00 00 	nop 
    4908:	01 00 00 00 	nop 
    490c:	01 00 00 00 	nop 
    4910:	01 00 00 00 	nop 
    4914:	01 00 00 00 	nop 
    4918:	01 00 00 00 	nop 
    491c:	01 00 00 00 	nop 
    4920:	01 00 00 00 	nop 
    4924:	01 00 00 00 	nop 
    4928:	01 00 00 00 	nop 
    492c:	01 00 00 00 	nop 
    4930:	01 00 00 00 	nop 
    4934:	01 00 00 00 	nop 
    4938:	01 00 00 00 	nop 
    493c:	01 00 00 00 	nop 
    4940:	01 00 00 00 	nop 
    4944:	01 00 00 00 	nop 
    4948:	01 00 00 00 	nop 
    494c:	01 00 00 00 	nop 
    4950:	01 00 00 00 	nop 
    4954:	01 00 00 00 	nop 
    4958:	01 00 00 00 	nop 
    495c:	01 00 00 00 	nop 
    4960:	01 00 00 00 	nop 
    4964:	01 00 00 00 	nop 
    4968:	01 00 00 00 	nop 
    496c:	01 00 00 00 	nop 
    4970:	01 00 00 00 	nop 
    4974:	01 00 00 00 	nop 
    4978:	01 00 00 00 	nop 
    497c:	01 00 00 00 	nop 
    4980:	01 00 00 00 	nop 
    4984:	01 00 00 00 	nop 
    4988:	01 00 00 00 	nop 
    498c:	01 00 00 00 	nop 
    4990:	01 00 00 00 	nop 
    4994:	01 00 00 00 	nop 
    4998:	01 00 00 00 	nop 
    499c:	01 00 00 00 	nop 
    49a0:	01 00 00 00 	nop 
    49a4:	01 00 00 00 	nop 
    49a8:	01 00 00 00 	nop 
    49ac:	01 00 00 00 	nop 
    49b0:	01 00 00 00 	nop 
    49b4:	01 00 00 00 	nop 
    49b8:	01 00 00 00 	nop 
    49bc:	01 00 00 00 	nop 
    49c0:	01 00 00 00 	nop 
    49c4:	01 00 00 00 	nop 
    49c8:	01 00 00 00 	nop 
    49cc:	01 00 00 00 	nop 
    49d0:	01 00 00 00 	nop 
    49d4:	01 00 00 00 	nop 
    49d8:	01 00 00 00 	nop 
    49dc:	01 00 00 00 	nop 
    49e0:	01 00 00 00 	nop 
    49e4:	01 00 00 00 	nop 
    49e8:	01 00 00 00 	nop 
    49ec:	01 00 00 00 	nop 
    49f0:	01 00 00 00 	nop 
    49f4:	01 00 00 00 	nop 
    49f8:	01 00 00 00 	nop 
    49fc:	01 00 00 00 	nop 
    4a00:	01 00 00 00 	nop 
    4a04:	01 00 00 00 	nop 
    4a08:	01 00 00 00 	nop 
    4a0c:	01 00 00 00 	nop 
    4a10:	01 00 00 00 	nop 
    4a14:	01 00 00 00 	nop 
    4a18:	01 00 00 00 	nop 
    4a1c:	01 00 00 00 	nop 
    4a20:	01 00 00 00 	nop 
    4a24:	01 00 00 00 	nop 
    4a28:	01 00 00 00 	nop 
    4a2c:	01 00 00 00 	nop 
    4a30:	01 00 00 00 	nop 
    4a34:	01 00 00 00 	nop 
    4a38:	01 00 00 00 	nop 
    4a3c:	01 00 00 00 	nop 
    4a40:	01 00 00 00 	nop 
    4a44:	01 00 00 00 	nop 
    4a48:	01 00 00 00 	nop 
    4a4c:	01 00 00 00 	nop 
    4a50:	01 00 00 00 	nop 
    4a54:	01 00 00 00 	nop 
    4a58:	01 00 00 00 	nop 
    4a5c:	01 00 00 00 	nop 
    4a60:	01 00 00 00 	nop 
    4a64:	01 00 00 00 	nop 
    4a68:	01 00 00 00 	nop 
    4a6c:	01 00 00 00 	nop 
    4a70:	01 00 00 00 	nop 
    4a74:	01 00 00 00 	nop 
    4a78:	01 00 00 00 	nop 
    4a7c:	01 00 00 00 	nop 
    4a80:	01 00 00 00 	nop 
    4a84:	01 00 00 00 	nop 
    4a88:	01 00 00 00 	nop 
    4a8c:	01 00 00 00 	nop 
    4a90:	01 00 00 00 	nop 
    4a94:	01 00 00 00 	nop 
    4a98:	01 00 00 00 	nop 
    4a9c:	01 00 00 00 	nop 
    4aa0:	01 00 00 00 	nop 
    4aa4:	01 00 00 00 	nop 
    4aa8:	01 00 00 00 	nop 
    4aac:	01 00 00 00 	nop 
    4ab0:	01 00 00 00 	nop 
    4ab4:	01 00 00 00 	nop 
    4ab8:	01 00 00 00 	nop 
    4abc:	01 00 00 00 	nop 
    4ac0:	01 00 00 00 	nop 
    4ac4:	01 00 00 00 	nop 
    4ac8:	01 00 00 00 	nop 
    4acc:	01 00 00 00 	nop 
    4ad0:	01 00 00 00 	nop 
    4ad4:	01 00 00 00 	nop 
    4ad8:	01 00 00 00 	nop 
    4adc:	01 00 00 00 	nop 
    4ae0:	01 00 00 00 	nop 
    4ae4:	01 00 00 00 	nop 
    4ae8:	01 00 00 00 	nop 
    4aec:	01 00 00 00 	nop 
    4af0:	01 00 00 00 	nop 
    4af4:	01 00 00 00 	nop 
    4af8:	01 00 00 00 	nop 
    4afc:	01 00 00 00 	nop 
    4b00:	01 00 00 00 	nop 
    4b04:	01 00 00 00 	nop 
    4b08:	01 00 00 00 	nop 
    4b0c:	01 00 00 00 	nop 
    4b10:	01 00 00 00 	nop 
    4b14:	01 00 00 00 	nop 
    4b18:	01 00 00 00 	nop 
    4b1c:	01 00 00 00 	nop 
    4b20:	01 00 00 00 	nop 
    4b24:	01 00 00 00 	nop 
    4b28:	01 00 00 00 	nop 
    4b2c:	01 00 00 00 	nop 
    4b30:	01 00 00 00 	nop 
    4b34:	01 00 00 00 	nop 
    4b38:	01 00 00 00 	nop 
    4b3c:	01 00 00 00 	nop 
    4b40:	01 00 00 00 	nop 
    4b44:	01 00 00 00 	nop 
    4b48:	01 00 00 00 	nop 
    4b4c:	01 00 00 00 	nop 
    4b50:	01 00 00 00 	nop 
    4b54:	01 00 00 00 	nop 
    4b58:	01 00 00 00 	nop 
    4b5c:	01 00 00 00 	nop 
    4b60:	01 00 00 00 	nop 
    4b64:	01 00 00 00 	nop 
    4b68:	01 00 00 00 	nop 
    4b6c:	01 00 00 00 	nop 
    4b70:	01 00 00 00 	nop 
    4b74:	01 00 00 00 	nop 
    4b78:	01 00 00 00 	nop 
    4b7c:	01 00 00 00 	nop 
    4b80:	01 00 00 00 	nop 
    4b84:	01 00 00 00 	nop 
    4b88:	01 00 00 00 	nop 
    4b8c:	01 00 00 00 	nop 
    4b90:	01 00 00 00 	nop 
    4b94:	01 00 00 00 	nop 
    4b98:	01 00 00 00 	nop 
    4b9c:	01 00 00 00 	nop 
    4ba0:	01 00 00 00 	nop 
    4ba4:	01 00 00 00 	nop 
    4ba8:	01 00 00 00 	nop 
    4bac:	01 00 00 00 	nop 
    4bb0:	01 00 00 00 	nop 
    4bb4:	01 00 00 00 	nop 
    4bb8:	01 00 00 00 	nop 
    4bbc:	01 00 00 00 	nop 
    4bc0:	01 00 00 00 	nop 
    4bc4:	01 00 00 00 	nop 
    4bc8:	01 00 00 00 	nop 
    4bcc:	01 00 00 00 	nop 
    4bd0:	01 00 00 00 	nop 
    4bd4:	01 00 00 00 	nop 
    4bd8:	01 00 00 00 	nop 
    4bdc:	01 00 00 00 	nop 
    4be0:	01 00 00 00 	nop 
    4be4:	01 00 00 00 	nop 
    4be8:	01 00 00 00 	nop 
    4bec:	01 00 00 00 	nop 
    4bf0:	01 00 00 00 	nop 
    4bf4:	01 00 00 00 	nop 
    4bf8:	01 00 00 00 	nop 
    4bfc:	01 00 00 00 	nop 
    4c00:	01 00 00 00 	nop 
    4c04:	01 00 00 00 	nop 
    4c08:	01 00 00 00 	nop 
    4c0c:	01 00 00 00 	nop 
    4c10:	01 00 00 00 	nop 
    4c14:	01 00 00 00 	nop 
    4c18:	01 00 00 00 	nop 
    4c1c:	01 00 00 00 	nop 
    4c20:	01 00 00 00 	nop 
    4c24:	01 00 00 00 	nop 
    4c28:	01 00 00 00 	nop 
    4c2c:	01 00 00 00 	nop 
    4c30:	01 00 00 00 	nop 
    4c34:	01 00 00 00 	nop 
    4c38:	01 00 00 00 	nop 
    4c3c:	01 00 00 00 	nop 
    4c40:	01 00 00 00 	nop 
    4c44:	01 00 00 00 	nop 
    4c48:	01 00 00 00 	nop 
    4c4c:	01 00 00 00 	nop 
    4c50:	01 00 00 00 	nop 
    4c54:	01 00 00 00 	nop 
    4c58:	01 00 00 00 	nop 
    4c5c:	01 00 00 00 	nop 
    4c60:	01 00 00 00 	nop 
    4c64:	01 00 00 00 	nop 
    4c68:	01 00 00 00 	nop 
    4c6c:	01 00 00 00 	nop 
    4c70:	01 00 00 00 	nop 
    4c74:	01 00 00 00 	nop 
    4c78:	01 00 00 00 	nop 
    4c7c:	01 00 00 00 	nop 
    4c80:	01 00 00 00 	nop 
    4c84:	01 00 00 00 	nop 
    4c88:	01 00 00 00 	nop 
    4c8c:	01 00 00 00 	nop 
    4c90:	01 00 00 00 	nop 
    4c94:	01 00 00 00 	nop 
    4c98:	01 00 00 00 	nop 
    4c9c:	01 00 00 00 	nop 
    4ca0:	01 00 00 00 	nop 
    4ca4:	01 00 00 00 	nop 
    4ca8:	01 00 00 00 	nop 
    4cac:	01 00 00 00 	nop 
    4cb0:	01 00 00 00 	nop 
    4cb4:	01 00 00 00 	nop 
    4cb8:	01 00 00 00 	nop 
    4cbc:	01 00 00 00 	nop 
    4cc0:	01 00 00 00 	nop 
    4cc4:	01 00 00 00 	nop 
    4cc8:	01 00 00 00 	nop 
    4ccc:	01 00 00 00 	nop 
    4cd0:	01 00 00 00 	nop 
    4cd4:	01 00 00 00 	nop 
    4cd8:	01 00 00 00 	nop 
    4cdc:	01 00 00 00 	nop 
    4ce0:	01 00 00 00 	nop 
    4ce4:	01 00 00 00 	nop 
    4ce8:	01 00 00 00 	nop 
    4cec:	01 00 00 00 	nop 
    4cf0:	01 00 00 00 	nop 
    4cf4:	01 00 00 00 	nop 
    4cf8:	01 00 00 00 	nop 
    4cfc:	01 00 00 00 	nop 
    4d00:	01 00 00 00 	nop 
    4d04:	01 00 00 00 	nop 
    4d08:	01 00 00 00 	nop 
    4d0c:	01 00 00 00 	nop 
    4d10:	01 00 00 00 	nop 
    4d14:	01 00 00 00 	nop 
    4d18:	01 00 00 00 	nop 
    4d1c:	01 00 00 00 	nop 
    4d20:	01 00 00 00 	nop 
    4d24:	01 00 00 00 	nop 
    4d28:	01 00 00 00 	nop 
    4d2c:	01 00 00 00 	nop 
    4d30:	01 00 00 00 	nop 
    4d34:	01 00 00 00 	nop 
    4d38:	01 00 00 00 	nop 
    4d3c:	01 00 00 00 	nop 
    4d40:	01 00 00 00 	nop 
    4d44:	01 00 00 00 	nop 
    4d48:	01 00 00 00 	nop 
    4d4c:	01 00 00 00 	nop 
    4d50:	01 00 00 00 	nop 
    4d54:	01 00 00 00 	nop 
    4d58:	01 00 00 00 	nop 
    4d5c:	01 00 00 00 	nop 
    4d60:	01 00 00 00 	nop 
    4d64:	01 00 00 00 	nop 
    4d68:	01 00 00 00 	nop 
    4d6c:	01 00 00 00 	nop 
    4d70:	01 00 00 00 	nop 
    4d74:	01 00 00 00 	nop 
    4d78:	01 00 00 00 	nop 
    4d7c:	01 00 00 00 	nop 
    4d80:	01 00 00 00 	nop 
    4d84:	01 00 00 00 	nop 
    4d88:	01 00 00 00 	nop 
    4d8c:	01 00 00 00 	nop 
    4d90:	01 00 00 00 	nop 
    4d94:	01 00 00 00 	nop 
    4d98:	01 00 00 00 	nop 
    4d9c:	01 00 00 00 	nop 
    4da0:	01 00 00 00 	nop 
    4da4:	01 00 00 00 	nop 
    4da8:	01 00 00 00 	nop 
    4dac:	01 00 00 00 	nop 
    4db0:	01 00 00 00 	nop 
    4db4:	01 00 00 00 	nop 
    4db8:	01 00 00 00 	nop 
    4dbc:	01 00 00 00 	nop 
    4dc0:	01 00 00 00 	nop 
    4dc4:	01 00 00 00 	nop 
    4dc8:	01 00 00 00 	nop 
    4dcc:	01 00 00 00 	nop 
    4dd0:	01 00 00 00 	nop 
    4dd4:	01 00 00 00 	nop 
    4dd8:	01 00 00 00 	nop 
    4ddc:	01 00 00 00 	nop 
    4de0:	01 00 00 00 	nop 
    4de4:	01 00 00 00 	nop 
    4de8:	01 00 00 00 	nop 
    4dec:	01 00 00 00 	nop 
    4df0:	01 00 00 00 	nop 
    4df4:	01 00 00 00 	nop 
    4df8:	01 00 00 00 	nop 
    4dfc:	01 00 00 00 	nop 
    4e00:	01 00 00 00 	nop 
    4e04:	01 00 00 00 	nop 
    4e08:	01 00 00 00 	nop 
    4e0c:	01 00 00 00 	nop 
    4e10:	01 00 00 00 	nop 
    4e14:	01 00 00 00 	nop 
    4e18:	01 00 00 00 	nop 
    4e1c:	01 00 00 00 	nop 
    4e20:	01 00 00 00 	nop 
    4e24:	01 00 00 00 	nop 
    4e28:	01 00 00 00 	nop 
    4e2c:	01 00 00 00 	nop 
    4e30:	01 00 00 00 	nop 
    4e34:	01 00 00 00 	nop 
    4e38:	01 00 00 00 	nop 
    4e3c:	01 00 00 00 	nop 
    4e40:	01 00 00 00 	nop 
    4e44:	01 00 00 00 	nop 
    4e48:	01 00 00 00 	nop 
    4e4c:	01 00 00 00 	nop 
    4e50:	01 00 00 00 	nop 
    4e54:	01 00 00 00 	nop 
    4e58:	01 00 00 00 	nop 
    4e5c:	01 00 00 00 	nop 
    4e60:	01 00 00 00 	nop 
    4e64:	01 00 00 00 	nop 
    4e68:	01 00 00 00 	nop 
    4e6c:	01 00 00 00 	nop 
    4e70:	01 00 00 00 	nop 
    4e74:	01 00 00 00 	nop 
    4e78:	01 00 00 00 	nop 
    4e7c:	01 00 00 00 	nop 
    4e80:	01 00 00 00 	nop 
    4e84:	01 00 00 00 	nop 
    4e88:	01 00 00 00 	nop 
    4e8c:	01 00 00 00 	nop 
    4e90:	01 00 00 00 	nop 
    4e94:	01 00 00 00 	nop 
    4e98:	01 00 00 00 	nop 
    4e9c:	01 00 00 00 	nop 
    4ea0:	01 00 00 00 	nop 
    4ea4:	01 00 00 00 	nop 
    4ea8:	01 00 00 00 	nop 
    4eac:	01 00 00 00 	nop 
    4eb0:	01 00 00 00 	nop 
    4eb4:	01 00 00 00 	nop 
    4eb8:	01 00 00 00 	nop 
    4ebc:	01 00 00 00 	nop 
    4ec0:	01 00 00 00 	nop 
    4ec4:	01 00 00 00 	nop 
    4ec8:	01 00 00 00 	nop 
    4ecc:	01 00 00 00 	nop 
    4ed0:	01 00 00 00 	nop 
    4ed4:	01 00 00 00 	nop 
    4ed8:	01 00 00 00 	nop 
    4edc:	01 00 00 00 	nop 
    4ee0:	01 00 00 00 	nop 
    4ee4:	01 00 00 00 	nop 
    4ee8:	01 00 00 00 	nop 
    4eec:	01 00 00 00 	nop 
    4ef0:	01 00 00 00 	nop 
    4ef4:	01 00 00 00 	nop 
    4ef8:	01 00 00 00 	nop 
    4efc:	01 00 00 00 	nop 
    4f00:	01 00 00 00 	nop 
    4f04:	01 00 00 00 	nop 
    4f08:	01 00 00 00 	nop 
    4f0c:	01 00 00 00 	nop 
    4f10:	01 00 00 00 	nop 
    4f14:	01 00 00 00 	nop 
    4f18:	01 00 00 00 	nop 
    4f1c:	01 00 00 00 	nop 
    4f20:	01 00 00 00 	nop 
    4f24:	01 00 00 00 	nop 
    4f28:	01 00 00 00 	nop 
    4f2c:	01 00 00 00 	nop 
    4f30:	01 00 00 00 	nop 
    4f34:	01 00 00 00 	nop 
    4f38:	01 00 00 00 	nop 
    4f3c:	01 00 00 00 	nop 
    4f40:	01 00 00 00 	nop 
    4f44:	01 00 00 00 	nop 
    4f48:	01 00 00 00 	nop 
    4f4c:	01 00 00 00 	nop 
    4f50:	01 00 00 00 	nop 
    4f54:	01 00 00 00 	nop 
    4f58:	01 00 00 00 	nop 
    4f5c:	01 00 00 00 	nop 
    4f60:	01 00 00 00 	nop 
    4f64:	01 00 00 00 	nop 
    4f68:	01 00 00 00 	nop 
    4f6c:	01 00 00 00 	nop 
    4f70:	01 00 00 00 	nop 
    4f74:	01 00 00 00 	nop 
    4f78:	01 00 00 00 	nop 
    4f7c:	01 00 00 00 	nop 
    4f80:	01 00 00 00 	nop 
    4f84:	01 00 00 00 	nop 
    4f88:	01 00 00 00 	nop 
    4f8c:	01 00 00 00 	nop 
    4f90:	01 00 00 00 	nop 
    4f94:	01 00 00 00 	nop 
    4f98:	01 00 00 00 	nop 
    4f9c:	01 00 00 00 	nop 
    4fa0:	01 00 00 00 	nop 
    4fa4:	01 00 00 00 	nop 
    4fa8:	01 00 00 00 	nop 
    4fac:	01 00 00 00 	nop 
    4fb0:	01 00 00 00 	nop 
    4fb4:	01 00 00 00 	nop 
    4fb8:	01 00 00 00 	nop 
    4fbc:	01 00 00 00 	nop 
    4fc0:	01 00 00 00 	nop 
    4fc4:	01 00 00 00 	nop 
    4fc8:	01 00 00 00 	nop 
    4fcc:	01 00 00 00 	nop 
    4fd0:	01 00 00 00 	nop 
    4fd4:	01 00 00 00 	nop 
    4fd8:	01 00 00 00 	nop 
    4fdc:	01 00 00 00 	nop 
    4fe0:	01 00 00 00 	nop 
    4fe4:	01 00 00 00 	nop 
    4fe8:	01 00 00 00 	nop 
    4fec:	01 00 00 00 	nop 
    4ff0:	01 00 00 00 	nop 
    4ff4:	01 00 00 00 	nop 
    4ff8:	01 00 00 00 	nop 
    4ffc:	01 00 00 00 	nop 

00005000 <trap_table_base>:
    5000:	91 d0 20 00 	ta  0
    5004:	01 00 00 00 	nop 
    5008:	01 00 00 00 	nop 
    500c:	01 00 00 00 	nop 

00005010 <HW_trap_0x01>:
    5010:	91 d0 20 00 	ta  0
    5014:	01 00 00 00 	nop 
    5018:	01 00 00 00 	nop 
    501c:	01 00 00 00 	nop 

00005020 <HW_trap_0x02>:
    5020:	91 d0 20 00 	ta  0
    5024:	01 00 00 00 	nop 
    5028:	01 00 00 00 	nop 
    502c:	01 00 00 00 	nop 

00005030 <HW_trap_0x03>:
    5030:	91 d0 20 00 	ta  0
    5034:	01 00 00 00 	nop 
    5038:	01 00 00 00 	nop 
    503c:	01 00 00 00 	nop 

00005040 <HW_trap_0x04>:
    5040:	91 d0 20 00 	ta  0
    5044:	01 00 00 00 	nop 
    5048:	01 00 00 00 	nop 
    504c:	01 00 00 00 	nop 

00005050 <HW_trap_0x05>:
    5050:	10 bf fb ec 	b  4000 <window_overflow_trap_handler>
    5054:	01 00 00 00 	nop 
    5058:	01 00 00 00 	nop 
    505c:	01 00 00 00 	nop 

00005060 <HW_trap_0x06>:
    5060:	10 bf fc 01 	b  4064 <window_underflow_trap_handler>
    5064:	01 00 00 00 	nop 
    5068:	01 00 00 00 	nop 
    506c:	01 00 00 00 	nop 

00005070 <HW_trap_0x07>:
    5070:	91 d0 20 00 	ta  0
    5074:	01 00 00 00 	nop 
    5078:	01 00 00 00 	nop 
    507c:	01 00 00 00 	nop 

00005080 <HW_trap_0x08>:
    5080:	91 d0 20 00 	ta  0
    5084:	01 00 00 00 	nop 
    5088:	01 00 00 00 	nop 
    508c:	01 00 00 00 	nop 

00005090 <HW_trap_0x09>:
    5090:	91 d0 20 00 	ta  0
    5094:	01 00 00 00 	nop 
    5098:	01 00 00 00 	nop 
    509c:	01 00 00 00 	nop 

000050a0 <HW_trap_0x0a>:
    50a0:	91 d0 20 00 	ta  0
    50a4:	01 00 00 00 	nop 
    50a8:	01 00 00 00 	nop 
    50ac:	01 00 00 00 	nop 

000050b0 <HW_trap_0x0b>:
    50b0:	91 d0 20 00 	ta  0
    50b4:	01 00 00 00 	nop 
    50b8:	01 00 00 00 	nop 
    50bc:	01 00 00 00 	nop 

000050c0 <HW_trap_0x0c>:
    50c0:	91 d0 20 00 	ta  0
    50c4:	01 00 00 00 	nop 
    50c8:	01 00 00 00 	nop 
    50cc:	01 00 00 00 	nop 

000050d0 <HW_trap_0x0d>:
    50d0:	91 d0 20 00 	ta  0
    50d4:	01 00 00 00 	nop 
    50d8:	01 00 00 00 	nop 
    50dc:	01 00 00 00 	nop 

000050e0 <HW_trap_0x0e>:
    50e0:	91 d0 20 00 	ta  0
    50e4:	01 00 00 00 	nop 
    50e8:	01 00 00 00 	nop 
    50ec:	01 00 00 00 	nop 

000050f0 <HW_trap_0x0f>:
    50f0:	91 d0 20 00 	ta  0
    50f4:	01 00 00 00 	nop 
    50f8:	01 00 00 00 	nop 
    50fc:	01 00 00 00 	nop 

00005100 <HW_trap_0x10>:
    5100:	91 d0 20 00 	ta  0
    5104:	01 00 00 00 	nop 
    5108:	01 00 00 00 	nop 
    510c:	01 00 00 00 	nop 

00005110 <HW_trap_0x11>:
    5110:	91 d0 20 00 	ta  0
    5114:	01 00 00 00 	nop 
    5118:	01 00 00 00 	nop 
    511c:	01 00 00 00 	nop 

00005120 <HW_trap_0x12>:
    5120:	91 d0 20 00 	ta  0
    5124:	01 00 00 00 	nop 
    5128:	01 00 00 00 	nop 
    512c:	01 00 00 00 	nop 

00005130 <HW_trap_0x13>:
    5130:	91 d0 20 00 	ta  0
    5134:	01 00 00 00 	nop 
    5138:	01 00 00 00 	nop 
    513c:	01 00 00 00 	nop 

00005140 <HW_trap_0x14>:
    5140:	91 d0 20 00 	ta  0
    5144:	01 00 00 00 	nop 
    5148:	01 00 00 00 	nop 
    514c:	01 00 00 00 	nop 

00005150 <HW_trap_0x15>:
    5150:	91 d0 20 00 	ta  0
    5154:	01 00 00 00 	nop 
    5158:	01 00 00 00 	nop 
    515c:	01 00 00 00 	nop 

00005160 <HW_trap_0x16>:
    5160:	91 d0 20 00 	ta  0
    5164:	01 00 00 00 	nop 
    5168:	01 00 00 00 	nop 
    516c:	01 00 00 00 	nop 

00005170 <HW_trap_0x17>:
    5170:	91 d0 20 00 	ta  0
    5174:	01 00 00 00 	nop 
    5178:	01 00 00 00 	nop 
    517c:	01 00 00 00 	nop 

00005180 <HW_trap_0x18>:
    5180:	91 d0 20 00 	ta  0
    5184:	01 00 00 00 	nop 
    5188:	01 00 00 00 	nop 
    518c:	01 00 00 00 	nop 

00005190 <HW_trap_0x19>:
    5190:	91 d0 20 00 	ta  0
    5194:	01 00 00 00 	nop 
    5198:	01 00 00 00 	nop 
    519c:	01 00 00 00 	nop 

000051a0 <HW_trap_0x1a>:
    51a0:	91 d0 20 00 	ta  0
    51a4:	01 00 00 00 	nop 
    51a8:	01 00 00 00 	nop 
    51ac:	01 00 00 00 	nop 

000051b0 <HW_trap_0x1b>:
    51b0:	91 d0 20 00 	ta  0
    51b4:	01 00 00 00 	nop 
    51b8:	01 00 00 00 	nop 
    51bc:	01 00 00 00 	nop 

000051c0 <HW_trap_0x1c>:
    51c0:	91 d0 20 00 	ta  0
    51c4:	01 00 00 00 	nop 
    51c8:	01 00 00 00 	nop 
    51cc:	01 00 00 00 	nop 

000051d0 <HW_trap_0x1d>:
    51d0:	91 d0 20 00 	ta  0
    51d4:	01 00 00 00 	nop 
    51d8:	01 00 00 00 	nop 
    51dc:	01 00 00 00 	nop 

000051e0 <HW_trap_0x1e>:
    51e0:	91 d0 20 00 	ta  0
    51e4:	01 00 00 00 	nop 
    51e8:	01 00 00 00 	nop 
    51ec:	01 00 00 00 	nop 

000051f0 <HW_trap_0x1f>:
    51f0:	91 d0 20 00 	ta  0
    51f4:	01 00 00 00 	nop 
    51f8:	01 00 00 00 	nop 
    51fc:	01 00 00 00 	nop 

00005200 <HW_trap_0x20>:
    5200:	91 d0 20 00 	ta  0
    5204:	01 00 00 00 	nop 
    5208:	01 00 00 00 	nop 
    520c:	01 00 00 00 	nop 

00005210 <HW_trap_0x21>:
    5210:	91 d0 20 00 	ta  0
    5214:	01 00 00 00 	nop 
    5218:	01 00 00 00 	nop 
    521c:	01 00 00 00 	nop 

00005220 <HW_trap_0x22>:
    5220:	91 d0 20 00 	ta  0
    5224:	01 00 00 00 	nop 
    5228:	01 00 00 00 	nop 
    522c:	01 00 00 00 	nop 

00005230 <HW_trap_0x23>:
    5230:	91 d0 20 00 	ta  0
    5234:	01 00 00 00 	nop 
    5238:	01 00 00 00 	nop 
    523c:	01 00 00 00 	nop 

00005240 <HW_trap_0x24>:
    5240:	91 d0 20 00 	ta  0
    5244:	01 00 00 00 	nop 
    5248:	01 00 00 00 	nop 
    524c:	01 00 00 00 	nop 

00005250 <HW_trap_0x25>:
    5250:	91 d0 20 00 	ta  0
    5254:	01 00 00 00 	nop 
    5258:	01 00 00 00 	nop 
    525c:	01 00 00 00 	nop 

00005260 <HW_trap_0x26>:
    5260:	91 d0 20 00 	ta  0
    5264:	01 00 00 00 	nop 
    5268:	01 00 00 00 	nop 
    526c:	01 00 00 00 	nop 

00005270 <HW_trap_0x27>:
    5270:	91 d0 20 00 	ta  0
    5274:	01 00 00 00 	nop 
    5278:	01 00 00 00 	nop 
    527c:	01 00 00 00 	nop 

00005280 <HW_trap_0x28>:
    5280:	91 d0 20 00 	ta  0
    5284:	01 00 00 00 	nop 
    5288:	01 00 00 00 	nop 
    528c:	01 00 00 00 	nop 

00005290 <HW_trap_0x29>:
    5290:	91 d0 20 00 	ta  0
    5294:	01 00 00 00 	nop 
    5298:	01 00 00 00 	nop 
    529c:	01 00 00 00 	nop 

000052a0 <HW_trap_0x2a>:
    52a0:	91 d0 20 00 	ta  0
    52a4:	01 00 00 00 	nop 
    52a8:	01 00 00 00 	nop 
    52ac:	01 00 00 00 	nop 

000052b0 <HW_trap_0x2b>:
    52b0:	91 d0 20 00 	ta  0
    52b4:	01 00 00 00 	nop 
    52b8:	01 00 00 00 	nop 
    52bc:	01 00 00 00 	nop 

000052c0 <HW_trap_0x2c>:
    52c0:	91 d0 20 00 	ta  0
    52c4:	01 00 00 00 	nop 
    52c8:	01 00 00 00 	nop 
    52cc:	01 00 00 00 	nop 

000052d0 <HW_trap_0x2d>:
    52d0:	91 d0 20 00 	ta  0
    52d4:	01 00 00 00 	nop 
    52d8:	01 00 00 00 	nop 
    52dc:	01 00 00 00 	nop 

000052e0 <HW_trap_0x2e>:
    52e0:	91 d0 20 00 	ta  0
    52e4:	01 00 00 00 	nop 
    52e8:	01 00 00 00 	nop 
    52ec:	01 00 00 00 	nop 

000052f0 <HW_trap_0x2f>:
    52f0:	91 d0 20 00 	ta  0
    52f4:	01 00 00 00 	nop 
    52f8:	01 00 00 00 	nop 
    52fc:	01 00 00 00 	nop 

00005300 <HW_trap_0x30>:
    5300:	91 d0 20 00 	ta  0
    5304:	01 00 00 00 	nop 
    5308:	01 00 00 00 	nop 
    530c:	01 00 00 00 	nop 

00005310 <HW_trap_0x31>:
    5310:	91 d0 20 00 	ta  0
    5314:	01 00 00 00 	nop 
    5318:	01 00 00 00 	nop 
    531c:	01 00 00 00 	nop 

00005320 <HW_trap_0x32>:
    5320:	91 d0 20 00 	ta  0
    5324:	01 00 00 00 	nop 
    5328:	01 00 00 00 	nop 
    532c:	01 00 00 00 	nop 

00005330 <HW_trap_0x33>:
    5330:	91 d0 20 00 	ta  0
    5334:	01 00 00 00 	nop 
    5338:	01 00 00 00 	nop 
    533c:	01 00 00 00 	nop 

00005340 <HW_trap_0x34>:
    5340:	91 d0 20 00 	ta  0
    5344:	01 00 00 00 	nop 
    5348:	01 00 00 00 	nop 
    534c:	01 00 00 00 	nop 

00005350 <HW_trap_0x35>:
    5350:	91 d0 20 00 	ta  0
    5354:	01 00 00 00 	nop 
    5358:	01 00 00 00 	nop 
    535c:	01 00 00 00 	nop 

00005360 <HW_trap_0x36>:
    5360:	91 d0 20 00 	ta  0
    5364:	01 00 00 00 	nop 
    5368:	01 00 00 00 	nop 
    536c:	01 00 00 00 	nop 

00005370 <HW_trap_0x37>:
    5370:	91 d0 20 00 	ta  0
    5374:	01 00 00 00 	nop 
    5378:	01 00 00 00 	nop 
    537c:	01 00 00 00 	nop 

00005380 <HW_trap_0x38>:
    5380:	91 d0 20 00 	ta  0
    5384:	01 00 00 00 	nop 
    5388:	01 00 00 00 	nop 
    538c:	01 00 00 00 	nop 

00005390 <HW_trap_0x39>:
    5390:	91 d0 20 00 	ta  0
    5394:	01 00 00 00 	nop 
    5398:	01 00 00 00 	nop 
    539c:	01 00 00 00 	nop 

000053a0 <HW_trap_0x3a>:
    53a0:	91 d0 20 00 	ta  0
    53a4:	01 00 00 00 	nop 
    53a8:	01 00 00 00 	nop 
    53ac:	01 00 00 00 	nop 

000053b0 <HW_trap_0x3b>:
    53b0:	91 d0 20 00 	ta  0
    53b4:	01 00 00 00 	nop 
    53b8:	01 00 00 00 	nop 
    53bc:	01 00 00 00 	nop 

000053c0 <HW_trap_0x3c>:
    53c0:	91 d0 20 00 	ta  0
    53c4:	01 00 00 00 	nop 
    53c8:	01 00 00 00 	nop 
    53cc:	01 00 00 00 	nop 

000053d0 <HW_trap_0x3d>:
    53d0:	91 d0 20 00 	ta  0
    53d4:	01 00 00 00 	nop 
    53d8:	01 00 00 00 	nop 
    53dc:	01 00 00 00 	nop 

000053e0 <HW_trap_0x3e>:
    53e0:	91 d0 20 00 	ta  0
    53e4:	01 00 00 00 	nop 
    53e8:	01 00 00 00 	nop 
    53ec:	01 00 00 00 	nop 

000053f0 <HW_trap_0x3f>:
    53f0:	91 d0 20 00 	ta  0
    53f4:	01 00 00 00 	nop 
    53f8:	01 00 00 00 	nop 
    53fc:	01 00 00 00 	nop 

00005400 <HW_trap_0x40>:
    5400:	91 d0 20 00 	ta  0
    5404:	01 00 00 00 	nop 
    5408:	01 00 00 00 	nop 
    540c:	01 00 00 00 	nop 

00005410 <HW_trap_0x41>:
    5410:	91 d0 20 00 	ta  0
    5414:	01 00 00 00 	nop 
    5418:	01 00 00 00 	nop 
    541c:	01 00 00 00 	nop 

00005420 <HW_trap_0x42>:
    5420:	91 d0 20 00 	ta  0
    5424:	01 00 00 00 	nop 
    5428:	01 00 00 00 	nop 
    542c:	01 00 00 00 	nop 

00005430 <HW_trap_0x43>:
    5430:	91 d0 20 00 	ta  0
    5434:	01 00 00 00 	nop 
    5438:	01 00 00 00 	nop 
    543c:	01 00 00 00 	nop 

00005440 <HW_trap_0x44>:
    5440:	91 d0 20 00 	ta  0
    5444:	01 00 00 00 	nop 
    5448:	01 00 00 00 	nop 
    544c:	01 00 00 00 	nop 

00005450 <HW_trap_0x45>:
    5450:	91 d0 20 00 	ta  0
    5454:	01 00 00 00 	nop 
    5458:	01 00 00 00 	nop 
    545c:	01 00 00 00 	nop 

00005460 <HW_trap_0x46>:
    5460:	91 d0 20 00 	ta  0
    5464:	01 00 00 00 	nop 
    5468:	01 00 00 00 	nop 
    546c:	01 00 00 00 	nop 

00005470 <HW_trap_0x47>:
    5470:	91 d0 20 00 	ta  0
    5474:	01 00 00 00 	nop 
    5478:	01 00 00 00 	nop 
    547c:	01 00 00 00 	nop 

00005480 <HW_trap_0x48>:
    5480:	91 d0 20 00 	ta  0
    5484:	01 00 00 00 	nop 
    5488:	01 00 00 00 	nop 
    548c:	01 00 00 00 	nop 

00005490 <HW_trap_0x49>:
    5490:	91 d0 20 00 	ta  0
    5494:	01 00 00 00 	nop 
    5498:	01 00 00 00 	nop 
    549c:	01 00 00 00 	nop 

000054a0 <HW_trap_0x4a>:
    54a0:	91 d0 20 00 	ta  0
    54a4:	01 00 00 00 	nop 
    54a8:	01 00 00 00 	nop 
    54ac:	01 00 00 00 	nop 

000054b0 <HW_trap_0x4b>:
    54b0:	91 d0 20 00 	ta  0
    54b4:	01 00 00 00 	nop 
    54b8:	01 00 00 00 	nop 
    54bc:	01 00 00 00 	nop 

000054c0 <HW_trap_0x4c>:
    54c0:	91 d0 20 00 	ta  0
    54c4:	01 00 00 00 	nop 
    54c8:	01 00 00 00 	nop 
    54cc:	01 00 00 00 	nop 

000054d0 <HW_trap_0x4d>:
    54d0:	91 d0 20 00 	ta  0
    54d4:	01 00 00 00 	nop 
    54d8:	01 00 00 00 	nop 
    54dc:	01 00 00 00 	nop 

000054e0 <HW_trap_0x4e>:
    54e0:	91 d0 20 00 	ta  0
    54e4:	01 00 00 00 	nop 
    54e8:	01 00 00 00 	nop 
    54ec:	01 00 00 00 	nop 

000054f0 <HW_trap_0x4f>:
    54f0:	91 d0 20 00 	ta  0
    54f4:	01 00 00 00 	nop 
    54f8:	01 00 00 00 	nop 
    54fc:	01 00 00 00 	nop 

00005500 <HW_trap_0x50>:
    5500:	91 d0 20 00 	ta  0
    5504:	01 00 00 00 	nop 
    5508:	01 00 00 00 	nop 
    550c:	01 00 00 00 	nop 

00005510 <HW_trap_0x51>:
    5510:	91 d0 20 00 	ta  0
    5514:	01 00 00 00 	nop 
    5518:	01 00 00 00 	nop 
    551c:	01 00 00 00 	nop 

00005520 <HW_trap_0x52>:
    5520:	91 d0 20 00 	ta  0
    5524:	01 00 00 00 	nop 
    5528:	01 00 00 00 	nop 
    552c:	01 00 00 00 	nop 

00005530 <HW_trap_0x53>:
    5530:	91 d0 20 00 	ta  0
    5534:	01 00 00 00 	nop 
    5538:	01 00 00 00 	nop 
    553c:	01 00 00 00 	nop 

00005540 <HW_trap_0x54>:
    5540:	91 d0 20 00 	ta  0
    5544:	01 00 00 00 	nop 
    5548:	01 00 00 00 	nop 
    554c:	01 00 00 00 	nop 

00005550 <HW_trap_0x55>:
    5550:	91 d0 20 00 	ta  0
    5554:	01 00 00 00 	nop 
    5558:	01 00 00 00 	nop 
    555c:	01 00 00 00 	nop 

00005560 <HW_trap_0x56>:
    5560:	91 d0 20 00 	ta  0
    5564:	01 00 00 00 	nop 
    5568:	01 00 00 00 	nop 
    556c:	01 00 00 00 	nop 

00005570 <HW_trap_0x57>:
    5570:	91 d0 20 00 	ta  0
    5574:	01 00 00 00 	nop 
    5578:	01 00 00 00 	nop 
    557c:	01 00 00 00 	nop 

00005580 <HW_trap_0x58>:
    5580:	91 d0 20 00 	ta  0
    5584:	01 00 00 00 	nop 
    5588:	01 00 00 00 	nop 
    558c:	01 00 00 00 	nop 

00005590 <HW_trap_0x59>:
    5590:	91 d0 20 00 	ta  0
    5594:	01 00 00 00 	nop 
    5598:	01 00 00 00 	nop 
    559c:	01 00 00 00 	nop 

000055a0 <HW_trap_0x5a>:
    55a0:	91 d0 20 00 	ta  0
    55a4:	01 00 00 00 	nop 
    55a8:	01 00 00 00 	nop 
    55ac:	01 00 00 00 	nop 

000055b0 <HW_trap_0x5b>:
    55b0:	91 d0 20 00 	ta  0
    55b4:	01 00 00 00 	nop 
    55b8:	01 00 00 00 	nop 
    55bc:	01 00 00 00 	nop 

000055c0 <HW_trap_0x5c>:
    55c0:	91 d0 20 00 	ta  0
    55c4:	01 00 00 00 	nop 
    55c8:	01 00 00 00 	nop 
    55cc:	01 00 00 00 	nop 

000055d0 <HW_trap_0x5d>:
    55d0:	91 d0 20 00 	ta  0
    55d4:	01 00 00 00 	nop 
    55d8:	01 00 00 00 	nop 
    55dc:	01 00 00 00 	nop 

000055e0 <HW_trap_0x5e>:
    55e0:	91 d0 20 00 	ta  0
    55e4:	01 00 00 00 	nop 
    55e8:	01 00 00 00 	nop 
    55ec:	01 00 00 00 	nop 

000055f0 <HW_trap_0x5f>:
    55f0:	91 d0 20 00 	ta  0
    55f4:	01 00 00 00 	nop 
    55f8:	01 00 00 00 	nop 
    55fc:	01 00 00 00 	nop 

00005600 <HW_trap_0x60>:
    5600:	91 d0 20 00 	ta  0
    5604:	01 00 00 00 	nop 
    5608:	01 00 00 00 	nop 
    560c:	01 00 00 00 	nop 

00005610 <HW_trap_0x61>:
    5610:	91 d0 20 00 	ta  0
    5614:	01 00 00 00 	nop 
    5618:	01 00 00 00 	nop 
    561c:	01 00 00 00 	nop 

00005620 <HW_trap_0x62>:
    5620:	91 d0 20 00 	ta  0
    5624:	01 00 00 00 	nop 
    5628:	01 00 00 00 	nop 
    562c:	01 00 00 00 	nop 

00005630 <HW_trap_0x63>:
    5630:	91 d0 20 00 	ta  0
    5634:	01 00 00 00 	nop 
    5638:	01 00 00 00 	nop 
    563c:	01 00 00 00 	nop 

00005640 <HW_trap_0x64>:
    5640:	91 d0 20 00 	ta  0
    5644:	01 00 00 00 	nop 
    5648:	01 00 00 00 	nop 
    564c:	01 00 00 00 	nop 

00005650 <HW_trap_0x65>:
    5650:	91 d0 20 00 	ta  0
    5654:	01 00 00 00 	nop 
    5658:	01 00 00 00 	nop 
    565c:	01 00 00 00 	nop 

00005660 <HW_trap_0x66>:
    5660:	91 d0 20 00 	ta  0
    5664:	01 00 00 00 	nop 
    5668:	01 00 00 00 	nop 
    566c:	01 00 00 00 	nop 

00005670 <HW_trap_0x67>:
    5670:	91 d0 20 00 	ta  0
    5674:	01 00 00 00 	nop 
    5678:	01 00 00 00 	nop 
    567c:	01 00 00 00 	nop 

00005680 <HW_trap_0x68>:
    5680:	91 d0 20 00 	ta  0
    5684:	01 00 00 00 	nop 
    5688:	01 00 00 00 	nop 
    568c:	01 00 00 00 	nop 

00005690 <HW_trap_0x69>:
    5690:	91 d0 20 00 	ta  0
    5694:	01 00 00 00 	nop 
    5698:	01 00 00 00 	nop 
    569c:	01 00 00 00 	nop 

000056a0 <HW_trap_0x6a>:
    56a0:	91 d0 20 00 	ta  0
    56a4:	01 00 00 00 	nop 
    56a8:	01 00 00 00 	nop 
    56ac:	01 00 00 00 	nop 

000056b0 <HW_trap_0x6b>:
    56b0:	91 d0 20 00 	ta  0
    56b4:	01 00 00 00 	nop 
    56b8:	01 00 00 00 	nop 
    56bc:	01 00 00 00 	nop 

000056c0 <HW_trap_0x6c>:
    56c0:	91 d0 20 00 	ta  0
    56c4:	01 00 00 00 	nop 
    56c8:	01 00 00 00 	nop 
    56cc:	01 00 00 00 	nop 

000056d0 <HW_trap_0x6d>:
    56d0:	91 d0 20 00 	ta  0
    56d4:	01 00 00 00 	nop 
    56d8:	01 00 00 00 	nop 
    56dc:	01 00 00 00 	nop 

000056e0 <HW_trap_0x6e>:
    56e0:	91 d0 20 00 	ta  0
    56e4:	01 00 00 00 	nop 
    56e8:	01 00 00 00 	nop 
    56ec:	01 00 00 00 	nop 

000056f0 <HW_trap_0x6f>:
    56f0:	91 d0 20 00 	ta  0
    56f4:	01 00 00 00 	nop 
    56f8:	01 00 00 00 	nop 
    56fc:	01 00 00 00 	nop 

00005700 <HW_trap_0x70>:
    5700:	91 d0 20 00 	ta  0
    5704:	01 00 00 00 	nop 
    5708:	01 00 00 00 	nop 
    570c:	01 00 00 00 	nop 

00005710 <HW_trap_0x71>:
    5710:	91 d0 20 00 	ta  0
    5714:	01 00 00 00 	nop 
    5718:	01 00 00 00 	nop 
    571c:	01 00 00 00 	nop 

00005720 <HW_trap_0x72>:
    5720:	91 d0 20 00 	ta  0
    5724:	01 00 00 00 	nop 
    5728:	01 00 00 00 	nop 
    572c:	01 00 00 00 	nop 

00005730 <HW_trap_0x73>:
    5730:	91 d0 20 00 	ta  0
    5734:	01 00 00 00 	nop 
    5738:	01 00 00 00 	nop 
    573c:	01 00 00 00 	nop 

00005740 <HW_trap_0x74>:
    5740:	91 d0 20 00 	ta  0
    5744:	01 00 00 00 	nop 
    5748:	01 00 00 00 	nop 
    574c:	01 00 00 00 	nop 

00005750 <HW_trap_0x75>:
    5750:	91 d0 20 00 	ta  0
    5754:	01 00 00 00 	nop 
    5758:	01 00 00 00 	nop 
    575c:	01 00 00 00 	nop 

00005760 <HW_trap_0x76>:
    5760:	91 d0 20 00 	ta  0
    5764:	01 00 00 00 	nop 
    5768:	01 00 00 00 	nop 
    576c:	01 00 00 00 	nop 

00005770 <HW_trap_0x77>:
    5770:	91 d0 20 00 	ta  0
    5774:	01 00 00 00 	nop 
    5778:	01 00 00 00 	nop 
    577c:	01 00 00 00 	nop 

00005780 <HW_trap_0x78>:
    5780:	91 d0 20 00 	ta  0
    5784:	01 00 00 00 	nop 
    5788:	01 00 00 00 	nop 
    578c:	01 00 00 00 	nop 

00005790 <HW_trap_0x79>:
    5790:	91 d0 20 00 	ta  0
    5794:	01 00 00 00 	nop 
    5798:	01 00 00 00 	nop 
    579c:	01 00 00 00 	nop 

000057a0 <HW_trap_0x7a>:
    57a0:	91 d0 20 00 	ta  0
    57a4:	01 00 00 00 	nop 
    57a8:	01 00 00 00 	nop 
    57ac:	01 00 00 00 	nop 

000057b0 <HW_trap_0x7b>:
    57b0:	91 d0 20 00 	ta  0
    57b4:	01 00 00 00 	nop 
    57b8:	01 00 00 00 	nop 
    57bc:	01 00 00 00 	nop 

000057c0 <HW_trap_0x7c>:
    57c0:	91 d0 20 00 	ta  0
    57c4:	01 00 00 00 	nop 
    57c8:	01 00 00 00 	nop 
    57cc:	01 00 00 00 	nop 

000057d0 <HW_trap_0x7d>:
    57d0:	91 d0 20 00 	ta  0
    57d4:	01 00 00 00 	nop 
    57d8:	01 00 00 00 	nop 
    57dc:	01 00 00 00 	nop 

000057e0 <HW_trap_0x7e>:
    57e0:	91 d0 20 00 	ta  0
    57e4:	01 00 00 00 	nop 
    57e8:	01 00 00 00 	nop 
    57ec:	01 00 00 00 	nop 

000057f0 <HW_trap_0x7f>:
    57f0:	91 d0 20 00 	ta  0
    57f4:	01 00 00 00 	nop 
    57f8:	01 00 00 00 	nop 
    57fc:	01 00 00 00 	nop 

00005800 <SW_trap_0x80>:
    5800:	91 d0 20 00 	ta  0
    5804:	01 00 00 00 	nop 
    5808:	01 00 00 00 	nop 
    580c:	01 00 00 00 	nop 

00005810 <SW_trap_0x81>:
    5810:	91 d0 20 00 	ta  0
    5814:	01 00 00 00 	nop 
    5818:	01 00 00 00 	nop 
    581c:	01 00 00 00 	nop 

00005820 <SW_trap_0x82>:
    5820:	91 d0 20 00 	ta  0
    5824:	01 00 00 00 	nop 
    5828:	01 00 00 00 	nop 
    582c:	01 00 00 00 	nop 

00005830 <SW_trap_0x83>:
    5830:	91 d0 20 00 	ta  0
    5834:	01 00 00 00 	nop 
    5838:	01 00 00 00 	nop 
    583c:	01 00 00 00 	nop 

00005840 <SW_trap_0x84>:
    5840:	91 d0 20 00 	ta  0
    5844:	01 00 00 00 	nop 
    5848:	01 00 00 00 	nop 
    584c:	01 00 00 00 	nop 

00005850 <SW_trap_0x85>:
    5850:	91 d0 20 00 	ta  0
    5854:	01 00 00 00 	nop 
    5858:	01 00 00 00 	nop 
    585c:	01 00 00 00 	nop 

00005860 <SW_trap_0x86>:
    5860:	91 d0 20 00 	ta  0
    5864:	01 00 00 00 	nop 
    5868:	01 00 00 00 	nop 
    586c:	01 00 00 00 	nop 

00005870 <SW_trap_0x87>:
    5870:	91 d0 20 00 	ta  0
    5874:	01 00 00 00 	nop 
    5878:	01 00 00 00 	nop 
    587c:	01 00 00 00 	nop 

00005880 <SW_trap_0x88>:
    5880:	91 d0 20 00 	ta  0
    5884:	01 00 00 00 	nop 
    5888:	01 00 00 00 	nop 
    588c:	01 00 00 00 	nop 

00005890 <SW_trap_0x89>:
    5890:	91 d0 20 00 	ta  0
    5894:	01 00 00 00 	nop 
    5898:	01 00 00 00 	nop 
    589c:	01 00 00 00 	nop 

000058a0 <SW_trap_0x8a>:
    58a0:	91 d0 20 00 	ta  0
    58a4:	01 00 00 00 	nop 
    58a8:	01 00 00 00 	nop 
    58ac:	01 00 00 00 	nop 

000058b0 <SW_trap_0x8b>:
    58b0:	91 d0 20 00 	ta  0
    58b4:	01 00 00 00 	nop 
    58b8:	01 00 00 00 	nop 
    58bc:	01 00 00 00 	nop 

000058c0 <SW_trap_0x8c>:
    58c0:	91 d0 20 00 	ta  0
    58c4:	01 00 00 00 	nop 
    58c8:	01 00 00 00 	nop 
    58cc:	01 00 00 00 	nop 

000058d0 <SW_trap_0x8d>:
    58d0:	91 d0 20 00 	ta  0
    58d4:	01 00 00 00 	nop 
    58d8:	01 00 00 00 	nop 
    58dc:	01 00 00 00 	nop 

000058e0 <SW_trap_0x8e>:
    58e0:	91 d0 20 00 	ta  0
    58e4:	01 00 00 00 	nop 
    58e8:	01 00 00 00 	nop 
    58ec:	01 00 00 00 	nop 

000058f0 <SW_trap_0x8f>:
    58f0:	91 d0 20 00 	ta  0
    58f4:	01 00 00 00 	nop 
    58f8:	01 00 00 00 	nop 
    58fc:	01 00 00 00 	nop 

00005900 <SW_trap_0x90>:
    5900:	91 d0 20 00 	ta  0
    5904:	01 00 00 00 	nop 
    5908:	01 00 00 00 	nop 
    590c:	01 00 00 00 	nop 

00005910 <SW_trap_0x91>:
    5910:	91 d0 20 00 	ta  0
    5914:	01 00 00 00 	nop 
    5918:	01 00 00 00 	nop 
    591c:	01 00 00 00 	nop 

00005920 <SW_trap_0x92>:
    5920:	91 d0 20 00 	ta  0
    5924:	01 00 00 00 	nop 
    5928:	01 00 00 00 	nop 
    592c:	01 00 00 00 	nop 

00005930 <SW_trap_0x93>:
    5930:	91 d0 20 00 	ta  0
    5934:	01 00 00 00 	nop 
    5938:	01 00 00 00 	nop 
    593c:	01 00 00 00 	nop 

00005940 <SW_trap_0x94>:
    5940:	91 d0 20 00 	ta  0
    5944:	01 00 00 00 	nop 
    5948:	01 00 00 00 	nop 
    594c:	01 00 00 00 	nop 

00005950 <SW_trap_0x95>:
    5950:	91 d0 20 00 	ta  0
    5954:	01 00 00 00 	nop 
    5958:	01 00 00 00 	nop 
    595c:	01 00 00 00 	nop 

00005960 <SW_trap_0x96>:
    5960:	91 d0 20 00 	ta  0
    5964:	01 00 00 00 	nop 
    5968:	01 00 00 00 	nop 
    596c:	01 00 00 00 	nop 

00005970 <SW_trap_0x97>:
    5970:	91 d0 20 00 	ta  0
    5974:	01 00 00 00 	nop 
    5978:	01 00 00 00 	nop 
    597c:	01 00 00 00 	nop 

00005980 <SW_trap_0x98>:
    5980:	91 d0 20 00 	ta  0
    5984:	01 00 00 00 	nop 
    5988:	01 00 00 00 	nop 
    598c:	01 00 00 00 	nop 

00005990 <SW_trap_0x99>:
    5990:	91 d0 20 00 	ta  0
    5994:	01 00 00 00 	nop 
    5998:	01 00 00 00 	nop 
    599c:	01 00 00 00 	nop 

000059a0 <SW_trap_0x9a>:
    59a0:	91 d0 20 00 	ta  0
    59a4:	01 00 00 00 	nop 
    59a8:	01 00 00 00 	nop 
    59ac:	01 00 00 00 	nop 

000059b0 <SW_trap_0x9b>:
    59b0:	91 d0 20 00 	ta  0
    59b4:	01 00 00 00 	nop 
    59b8:	01 00 00 00 	nop 
    59bc:	01 00 00 00 	nop 

000059c0 <SW_trap_0x9c>:
    59c0:	91 d0 20 00 	ta  0
    59c4:	01 00 00 00 	nop 
    59c8:	01 00 00 00 	nop 
    59cc:	01 00 00 00 	nop 

000059d0 <SW_trap_0x9d>:
    59d0:	91 d0 20 00 	ta  0
    59d4:	01 00 00 00 	nop 
    59d8:	01 00 00 00 	nop 
    59dc:	01 00 00 00 	nop 

000059e0 <SW_trap_0x9e>:
    59e0:	91 d0 20 00 	ta  0
    59e4:	01 00 00 00 	nop 
    59e8:	01 00 00 00 	nop 
    59ec:	01 00 00 00 	nop 

000059f0 <SW_trap_0x9f>:
    59f0:	91 d0 20 00 	ta  0
    59f4:	01 00 00 00 	nop 
    59f8:	01 00 00 00 	nop 
    59fc:	01 00 00 00 	nop 

00005a00 <SW_trap_0xa0>:
    5a00:	91 d0 20 00 	ta  0
    5a04:	01 00 00 00 	nop 
    5a08:	01 00 00 00 	nop 
    5a0c:	01 00 00 00 	nop 

00005a10 <SW_trap_0xa1>:
    5a10:	91 d0 20 00 	ta  0
    5a14:	01 00 00 00 	nop 
    5a18:	01 00 00 00 	nop 
    5a1c:	01 00 00 00 	nop 

00005a20 <SW_trap_0xa2>:
    5a20:	91 d0 20 00 	ta  0
    5a24:	01 00 00 00 	nop 
    5a28:	01 00 00 00 	nop 
    5a2c:	01 00 00 00 	nop 

00005a30 <SW_trap_0xa3>:
    5a30:	91 d0 20 00 	ta  0
    5a34:	01 00 00 00 	nop 
    5a38:	01 00 00 00 	nop 
    5a3c:	01 00 00 00 	nop 

00005a40 <SW_trap_0xa4>:
    5a40:	91 d0 20 00 	ta  0
    5a44:	01 00 00 00 	nop 
    5a48:	01 00 00 00 	nop 
    5a4c:	01 00 00 00 	nop 

00005a50 <SW_trap_0xa5>:
    5a50:	91 d0 20 00 	ta  0
    5a54:	01 00 00 00 	nop 
    5a58:	01 00 00 00 	nop 
    5a5c:	01 00 00 00 	nop 

00005a60 <SW_trap_0xa6>:
    5a60:	91 d0 20 00 	ta  0
    5a64:	01 00 00 00 	nop 
    5a68:	01 00 00 00 	nop 
    5a6c:	01 00 00 00 	nop 

00005a70 <SW_trap_0xa7>:
    5a70:	91 d0 20 00 	ta  0
    5a74:	01 00 00 00 	nop 
    5a78:	01 00 00 00 	nop 
    5a7c:	01 00 00 00 	nop 

00005a80 <SW_trap_0xa8>:
    5a80:	91 d0 20 00 	ta  0
    5a84:	01 00 00 00 	nop 
    5a88:	01 00 00 00 	nop 
    5a8c:	01 00 00 00 	nop 

00005a90 <SW_trap_0xa9>:
    5a90:	91 d0 20 00 	ta  0
    5a94:	01 00 00 00 	nop 
    5a98:	01 00 00 00 	nop 
    5a9c:	01 00 00 00 	nop 

00005aa0 <SW_trap_0xaa>:
    5aa0:	91 d0 20 00 	ta  0
    5aa4:	01 00 00 00 	nop 
    5aa8:	01 00 00 00 	nop 
    5aac:	01 00 00 00 	nop 

00005ab0 <SW_trap_0xab>:
    5ab0:	91 d0 20 00 	ta  0
    5ab4:	01 00 00 00 	nop 
    5ab8:	01 00 00 00 	nop 
    5abc:	01 00 00 00 	nop 

00005ac0 <SW_trap_0xac>:
    5ac0:	91 d0 20 00 	ta  0
    5ac4:	01 00 00 00 	nop 
    5ac8:	01 00 00 00 	nop 
    5acc:	01 00 00 00 	nop 

00005ad0 <SW_trap_0xad>:
    5ad0:	91 d0 20 00 	ta  0
    5ad4:	01 00 00 00 	nop 
    5ad8:	01 00 00 00 	nop 
    5adc:	01 00 00 00 	nop 

00005ae0 <SW_trap_0xae>:
    5ae0:	91 d0 20 00 	ta  0
    5ae4:	01 00 00 00 	nop 
    5ae8:	01 00 00 00 	nop 
    5aec:	01 00 00 00 	nop 

00005af0 <SW_trap_0xaf>:
    5af0:	91 d0 20 00 	ta  0
    5af4:	01 00 00 00 	nop 
    5af8:	01 00 00 00 	nop 
    5afc:	01 00 00 00 	nop 

00005b00 <SW_trap_0xb0>:
    5b00:	91 d0 20 00 	ta  0
    5b04:	01 00 00 00 	nop 
    5b08:	01 00 00 00 	nop 
    5b0c:	01 00 00 00 	nop 

00005b10 <SW_trap_0xb1>:
    5b10:	91 d0 20 00 	ta  0
    5b14:	01 00 00 00 	nop 
    5b18:	01 00 00 00 	nop 
    5b1c:	01 00 00 00 	nop 

00005b20 <SW_trap_0xb2>:
    5b20:	91 d0 20 00 	ta  0
    5b24:	01 00 00 00 	nop 
    5b28:	01 00 00 00 	nop 
    5b2c:	01 00 00 00 	nop 

00005b30 <SW_trap_0xb3>:
    5b30:	91 d0 20 00 	ta  0
    5b34:	01 00 00 00 	nop 
    5b38:	01 00 00 00 	nop 
    5b3c:	01 00 00 00 	nop 

00005b40 <SW_trap_0xb4>:
    5b40:	91 d0 20 00 	ta  0
    5b44:	01 00 00 00 	nop 
    5b48:	01 00 00 00 	nop 
    5b4c:	01 00 00 00 	nop 

00005b50 <SW_trap_0xb5>:
    5b50:	91 d0 20 00 	ta  0
    5b54:	01 00 00 00 	nop 
    5b58:	01 00 00 00 	nop 
    5b5c:	01 00 00 00 	nop 

00005b60 <SW_trap_0xb6>:
    5b60:	91 d0 20 00 	ta  0
    5b64:	01 00 00 00 	nop 
    5b68:	01 00 00 00 	nop 
    5b6c:	01 00 00 00 	nop 

00005b70 <SW_trap_0xb7>:
    5b70:	91 d0 20 00 	ta  0
    5b74:	01 00 00 00 	nop 
    5b78:	01 00 00 00 	nop 
    5b7c:	01 00 00 00 	nop 

00005b80 <SW_trap_0xb8>:
    5b80:	91 d0 20 00 	ta  0
    5b84:	01 00 00 00 	nop 
    5b88:	01 00 00 00 	nop 
    5b8c:	01 00 00 00 	nop 

00005b90 <SW_trap_0xb9>:
    5b90:	91 d0 20 00 	ta  0
    5b94:	01 00 00 00 	nop 
    5b98:	01 00 00 00 	nop 
    5b9c:	01 00 00 00 	nop 

00005ba0 <SW_trap_0xba>:
    5ba0:	91 d0 20 00 	ta  0
    5ba4:	01 00 00 00 	nop 
    5ba8:	01 00 00 00 	nop 
    5bac:	01 00 00 00 	nop 

00005bb0 <SW_trap_0xbb>:
    5bb0:	91 d0 20 00 	ta  0
    5bb4:	01 00 00 00 	nop 
    5bb8:	01 00 00 00 	nop 
    5bbc:	01 00 00 00 	nop 

00005bc0 <SW_trap_0xbc>:
    5bc0:	91 d0 20 00 	ta  0
    5bc4:	01 00 00 00 	nop 
    5bc8:	01 00 00 00 	nop 
    5bcc:	01 00 00 00 	nop 

00005bd0 <SW_trap_0xbd>:
    5bd0:	91 d0 20 00 	ta  0
    5bd4:	01 00 00 00 	nop 
    5bd8:	01 00 00 00 	nop 
    5bdc:	01 00 00 00 	nop 

00005be0 <SW_trap_0xbe>:
    5be0:	91 d0 20 00 	ta  0
    5be4:	01 00 00 00 	nop 
    5be8:	01 00 00 00 	nop 
    5bec:	01 00 00 00 	nop 

00005bf0 <SW_trap_0xbf>:
    5bf0:	91 d0 20 00 	ta  0
    5bf4:	01 00 00 00 	nop 
    5bf8:	01 00 00 00 	nop 
    5bfc:	01 00 00 00 	nop 

00005c00 <SW_trap_0xc0>:
    5c00:	91 d0 20 00 	ta  0
    5c04:	01 00 00 00 	nop 
    5c08:	01 00 00 00 	nop 
    5c0c:	01 00 00 00 	nop 

00005c10 <SW_trap_0xc1>:
    5c10:	91 d0 20 00 	ta  0
    5c14:	01 00 00 00 	nop 
    5c18:	01 00 00 00 	nop 
    5c1c:	01 00 00 00 	nop 

00005c20 <SW_trap_0xc2>:
    5c20:	91 d0 20 00 	ta  0
    5c24:	01 00 00 00 	nop 
    5c28:	01 00 00 00 	nop 
    5c2c:	01 00 00 00 	nop 

00005c30 <SW_trap_0xc3>:
    5c30:	91 d0 20 00 	ta  0
    5c34:	01 00 00 00 	nop 
    5c38:	01 00 00 00 	nop 
    5c3c:	01 00 00 00 	nop 

00005c40 <SW_trap_0xc4>:
    5c40:	91 d0 20 00 	ta  0
    5c44:	01 00 00 00 	nop 
    5c48:	01 00 00 00 	nop 
    5c4c:	01 00 00 00 	nop 

00005c50 <SW_trap_0xc5>:
    5c50:	91 d0 20 00 	ta  0
    5c54:	01 00 00 00 	nop 
    5c58:	01 00 00 00 	nop 
    5c5c:	01 00 00 00 	nop 

00005c60 <SW_trap_0xc6>:
    5c60:	91 d0 20 00 	ta  0
    5c64:	01 00 00 00 	nop 
    5c68:	01 00 00 00 	nop 
    5c6c:	01 00 00 00 	nop 

00005c70 <SW_trap_0xc7>:
    5c70:	91 d0 20 00 	ta  0
    5c74:	01 00 00 00 	nop 
    5c78:	01 00 00 00 	nop 
    5c7c:	01 00 00 00 	nop 

00005c80 <SW_trap_0xc8>:
    5c80:	91 d0 20 00 	ta  0
    5c84:	01 00 00 00 	nop 
    5c88:	01 00 00 00 	nop 
    5c8c:	01 00 00 00 	nop 

00005c90 <SW_trap_0xc9>:
    5c90:	91 d0 20 00 	ta  0
    5c94:	01 00 00 00 	nop 
    5c98:	01 00 00 00 	nop 
    5c9c:	01 00 00 00 	nop 

00005ca0 <SW_trap_0xca>:
    5ca0:	91 d0 20 00 	ta  0
    5ca4:	01 00 00 00 	nop 
    5ca8:	01 00 00 00 	nop 
    5cac:	01 00 00 00 	nop 

00005cb0 <SW_trap_0xcb>:
    5cb0:	91 d0 20 00 	ta  0
    5cb4:	01 00 00 00 	nop 
    5cb8:	01 00 00 00 	nop 
    5cbc:	01 00 00 00 	nop 

00005cc0 <SW_trap_0xcc>:
    5cc0:	91 d0 20 00 	ta  0
    5cc4:	01 00 00 00 	nop 
    5cc8:	01 00 00 00 	nop 
    5ccc:	01 00 00 00 	nop 

00005cd0 <SW_trap_0xcd>:
    5cd0:	91 d0 20 00 	ta  0
    5cd4:	01 00 00 00 	nop 
    5cd8:	01 00 00 00 	nop 
    5cdc:	01 00 00 00 	nop 

00005ce0 <SW_trap_0xce>:
    5ce0:	91 d0 20 00 	ta  0
    5ce4:	01 00 00 00 	nop 
    5ce8:	01 00 00 00 	nop 
    5cec:	01 00 00 00 	nop 

00005cf0 <SW_trap_0xcf>:
    5cf0:	91 d0 20 00 	ta  0
    5cf4:	01 00 00 00 	nop 
    5cf8:	01 00 00 00 	nop 
    5cfc:	01 00 00 00 	nop 

00005d00 <SW_trap_0xd0>:
    5d00:	91 d0 20 00 	ta  0
    5d04:	01 00 00 00 	nop 
    5d08:	01 00 00 00 	nop 
    5d0c:	01 00 00 00 	nop 

00005d10 <SW_trap_0xd1>:
    5d10:	91 d0 20 00 	ta  0
    5d14:	01 00 00 00 	nop 
    5d18:	01 00 00 00 	nop 
    5d1c:	01 00 00 00 	nop 

00005d20 <SW_trap_0xd2>:
    5d20:	91 d0 20 00 	ta  0
    5d24:	01 00 00 00 	nop 
    5d28:	01 00 00 00 	nop 
    5d2c:	01 00 00 00 	nop 

00005d30 <SW_trap_0xd3>:
    5d30:	91 d0 20 00 	ta  0
    5d34:	01 00 00 00 	nop 
    5d38:	01 00 00 00 	nop 
    5d3c:	01 00 00 00 	nop 

00005d40 <SW_trap_0xd4>:
    5d40:	91 d0 20 00 	ta  0
    5d44:	01 00 00 00 	nop 
    5d48:	01 00 00 00 	nop 
    5d4c:	01 00 00 00 	nop 

00005d50 <SW_trap_0xd5>:
    5d50:	91 d0 20 00 	ta  0
    5d54:	01 00 00 00 	nop 
    5d58:	01 00 00 00 	nop 
    5d5c:	01 00 00 00 	nop 

00005d60 <SW_trap_0xd6>:
    5d60:	91 d0 20 00 	ta  0
    5d64:	01 00 00 00 	nop 
    5d68:	01 00 00 00 	nop 
    5d6c:	01 00 00 00 	nop 

00005d70 <SW_trap_0xd7>:
    5d70:	91 d0 20 00 	ta  0
    5d74:	01 00 00 00 	nop 
    5d78:	01 00 00 00 	nop 
    5d7c:	01 00 00 00 	nop 

00005d80 <SW_trap_0xd8>:
    5d80:	91 d0 20 00 	ta  0
    5d84:	01 00 00 00 	nop 
    5d88:	01 00 00 00 	nop 
    5d8c:	01 00 00 00 	nop 

00005d90 <SW_trap_0xd9>:
    5d90:	91 d0 20 00 	ta  0
    5d94:	01 00 00 00 	nop 
    5d98:	01 00 00 00 	nop 
    5d9c:	01 00 00 00 	nop 

00005da0 <SW_trap_0xda>:
    5da0:	91 d0 20 00 	ta  0
    5da4:	01 00 00 00 	nop 
    5da8:	01 00 00 00 	nop 
    5dac:	01 00 00 00 	nop 

00005db0 <SW_trap_0xdb>:
    5db0:	91 d0 20 00 	ta  0
    5db4:	01 00 00 00 	nop 
    5db8:	01 00 00 00 	nop 
    5dbc:	01 00 00 00 	nop 

00005dc0 <SW_trap_0xdc>:
    5dc0:	91 d0 20 00 	ta  0
    5dc4:	01 00 00 00 	nop 
    5dc8:	01 00 00 00 	nop 
    5dcc:	01 00 00 00 	nop 

00005dd0 <SW_trap_0xdd>:
    5dd0:	91 d0 20 00 	ta  0
    5dd4:	01 00 00 00 	nop 
    5dd8:	01 00 00 00 	nop 
    5ddc:	01 00 00 00 	nop 

00005de0 <SW_trap_0xde>:
    5de0:	91 d0 20 00 	ta  0
    5de4:	01 00 00 00 	nop 
    5de8:	01 00 00 00 	nop 
    5dec:	01 00 00 00 	nop 

00005df0 <SW_trap_0xdf>:
    5df0:	91 d0 20 00 	ta  0
    5df4:	01 00 00 00 	nop 
    5df8:	01 00 00 00 	nop 
    5dfc:	01 00 00 00 	nop 

00005e00 <SW_trap_0xe0>:
    5e00:	91 d0 20 00 	ta  0
    5e04:	01 00 00 00 	nop 
    5e08:	01 00 00 00 	nop 
    5e0c:	01 00 00 00 	nop 

00005e10 <SW_trap_0xe1>:
    5e10:	91 d0 20 00 	ta  0
    5e14:	01 00 00 00 	nop 
    5e18:	01 00 00 00 	nop 
    5e1c:	01 00 00 00 	nop 

00005e20 <SW_trap_0xe2>:
    5e20:	91 d0 20 00 	ta  0
    5e24:	01 00 00 00 	nop 
    5e28:	01 00 00 00 	nop 
    5e2c:	01 00 00 00 	nop 

00005e30 <SW_trap_0xe3>:
    5e30:	91 d0 20 00 	ta  0
    5e34:	01 00 00 00 	nop 
    5e38:	01 00 00 00 	nop 
    5e3c:	01 00 00 00 	nop 

00005e40 <SW_trap_0xe4>:
    5e40:	91 d0 20 00 	ta  0
    5e44:	01 00 00 00 	nop 
    5e48:	01 00 00 00 	nop 
    5e4c:	01 00 00 00 	nop 

00005e50 <SW_trap_0xe5>:
    5e50:	91 d0 20 00 	ta  0
    5e54:	01 00 00 00 	nop 
    5e58:	01 00 00 00 	nop 
    5e5c:	01 00 00 00 	nop 

00005e60 <SW_trap_0xe6>:
    5e60:	91 d0 20 00 	ta  0
    5e64:	01 00 00 00 	nop 
    5e68:	01 00 00 00 	nop 
    5e6c:	01 00 00 00 	nop 

00005e70 <SW_trap_0xe7>:
    5e70:	91 d0 20 00 	ta  0
    5e74:	01 00 00 00 	nop 
    5e78:	01 00 00 00 	nop 
    5e7c:	01 00 00 00 	nop 

00005e80 <SW_trap_0xe8>:
    5e80:	91 d0 20 00 	ta  0
    5e84:	01 00 00 00 	nop 
    5e88:	01 00 00 00 	nop 
    5e8c:	01 00 00 00 	nop 

00005e90 <SW_trap_0xe9>:
    5e90:	91 d0 20 00 	ta  0
    5e94:	01 00 00 00 	nop 
    5e98:	01 00 00 00 	nop 
    5e9c:	01 00 00 00 	nop 

00005ea0 <SW_trap_0xea>:
    5ea0:	91 d0 20 00 	ta  0
    5ea4:	01 00 00 00 	nop 
    5ea8:	01 00 00 00 	nop 
    5eac:	01 00 00 00 	nop 

00005eb0 <SW_trap_0xeb>:
    5eb0:	91 d0 20 00 	ta  0
    5eb4:	01 00 00 00 	nop 
    5eb8:	01 00 00 00 	nop 
    5ebc:	01 00 00 00 	nop 

00005ec0 <SW_trap_0xec>:
    5ec0:	91 d0 20 00 	ta  0
    5ec4:	01 00 00 00 	nop 
    5ec8:	01 00 00 00 	nop 
    5ecc:	01 00 00 00 	nop 

00005ed0 <SW_trap_0xed>:
    5ed0:	91 d0 20 00 	ta  0
    5ed4:	01 00 00 00 	nop 
    5ed8:	01 00 00 00 	nop 
    5edc:	01 00 00 00 	nop 

00005ee0 <SW_trap_0xee>:
    5ee0:	91 d0 20 00 	ta  0
    5ee4:	01 00 00 00 	nop 
    5ee8:	01 00 00 00 	nop 
    5eec:	01 00 00 00 	nop 

00005ef0 <SW_trap_0xef>:
    5ef0:	91 d0 20 00 	ta  0
    5ef4:	01 00 00 00 	nop 
    5ef8:	01 00 00 00 	nop 
    5efc:	01 00 00 00 	nop 

00005f00 <SW_trap_0xf0>:
    5f00:	91 d0 20 00 	ta  0
    5f04:	01 00 00 00 	nop 
    5f08:	01 00 00 00 	nop 
    5f0c:	01 00 00 00 	nop 

00005f10 <SW_trap_0xf1>:
    5f10:	91 d0 20 00 	ta  0
    5f14:	01 00 00 00 	nop 
    5f18:	01 00 00 00 	nop 
    5f1c:	01 00 00 00 	nop 

00005f20 <SW_trap_0xf2>:
    5f20:	91 d0 20 00 	ta  0
    5f24:	01 00 00 00 	nop 
    5f28:	01 00 00 00 	nop 
    5f2c:	01 00 00 00 	nop 

00005f30 <SW_trap_0xf3>:
    5f30:	91 d0 20 00 	ta  0
    5f34:	01 00 00 00 	nop 
    5f38:	01 00 00 00 	nop 
    5f3c:	01 00 00 00 	nop 

00005f40 <SW_trap_0xf4>:
    5f40:	91 d0 20 00 	ta  0
    5f44:	01 00 00 00 	nop 
    5f48:	01 00 00 00 	nop 
    5f4c:	01 00 00 00 	nop 

00005f50 <SW_trap_0xf5>:
    5f50:	91 d0 20 00 	ta  0
    5f54:	01 00 00 00 	nop 
    5f58:	01 00 00 00 	nop 
    5f5c:	01 00 00 00 	nop 

00005f60 <SW_trap_0xf6>:
    5f60:	91 d0 20 00 	ta  0
    5f64:	01 00 00 00 	nop 
    5f68:	01 00 00 00 	nop 
    5f6c:	01 00 00 00 	nop 

00005f70 <SW_trap_0xf7>:
    5f70:	91 d0 20 00 	ta  0
    5f74:	01 00 00 00 	nop 
    5f78:	01 00 00 00 	nop 
    5f7c:	01 00 00 00 	nop 

00005f80 <SW_trap_0xf8>:
    5f80:	91 d0 20 00 	ta  0
    5f84:	01 00 00 00 	nop 
    5f88:	01 00 00 00 	nop 
    5f8c:	01 00 00 00 	nop 

00005f90 <SW_trap_0xf9>:
    5f90:	91 d0 20 00 	ta  0
    5f94:	01 00 00 00 	nop 
    5f98:	01 00 00 00 	nop 
    5f9c:	01 00 00 00 	nop 

00005fa0 <SW_trap_0xfa>:
    5fa0:	91 d0 20 00 	ta  0
    5fa4:	01 00 00 00 	nop 
    5fa8:	01 00 00 00 	nop 
    5fac:	01 00 00 00 	nop 

00005fb0 <SW_trap_0xfb>:
    5fb0:	91 d0 20 00 	ta  0
    5fb4:	01 00 00 00 	nop 
    5fb8:	01 00 00 00 	nop 
    5fbc:	01 00 00 00 	nop 

00005fc0 <SW_trap_0xfc>:
    5fc0:	91 d0 20 00 	ta  0
    5fc4:	01 00 00 00 	nop 
    5fc8:	01 00 00 00 	nop 
    5fcc:	01 00 00 00 	nop 

00005fd0 <SW_trap_0xfd>:
    5fd0:	91 d0 20 00 	ta  0
    5fd4:	01 00 00 00 	nop 
    5fd8:	01 00 00 00 	nop 
    5fdc:	01 00 00 00 	nop 

00005fe0 <SW_trap_0xfe>:
    5fe0:	91 d0 20 00 	ta  0
    5fe4:	01 00 00 00 	nop 
    5fe8:	01 00 00 00 	nop 
    5fec:	01 00 00 00 	nop 
    5ff0:	01 00 00 00 	nop 
    5ff4:	01 00 00 00 	nop 

00005ff8 <checker>:
    5ff8:	9d e3 bf 70 	save  %sp, -144, %sp
    5ffc:	f0 27 a0 44 	st  %i0, [ %fp + 0x44 ]
    6000:	f2 27 a0 48 	st  %i1, [ %fp + 0x48 ]
    6004:	90 10 20 03 	mov  3, %o0
    6008:	40 00 07 92 	call  7e50 <__ajit_write_serial_control_register__>
    600c:	01 00 00 00 	nop 
    6010:	03 10 00 00 	sethi  %hi(0x40000000), %g1
    6014:	90 10 60 00 	mov  %g1, %o0	! 40000000 <__sparc_get_pc_thunk.l7+0x3fff6014>
    6018:	40 00 06 3e 	call  7910 <ee_printf>
    601c:	01 00 00 00 	nop 
    6020:	c0 27 bf fc 	clr  [ %fp + -4 ]
    6024:	10 80 00 9f 	b  62a0 <checker+0x2a8>
    6028:	01 00 00 00 	nop 
    602c:	c2 07 bf fc 	ld  [ %fp + -4 ], %g1
    6030:	83 28 60 04 	sll  %g1, 4, %g1
    6034:	82 00 60 04 	add  %g1, 4, %g1
    6038:	c4 07 a0 44 	ld  [ %fp + 0x44 ], %g2
    603c:	82 00 80 01 	add  %g2, %g1, %g1
    6040:	c2 00 40 00 	ld  [ %g1 ], %g1
    6044:	c2 27 bf f4 	st  %g1, [ %fp + -12 ]
    6048:	c2 07 bf fc 	ld  [ %fp + -4 ], %g1
    604c:	83 28 60 04 	sll  %g1, 4, %g1
    6050:	c4 07 a0 44 	ld  [ %fp + 0x44 ], %g2
    6054:	82 00 80 01 	add  %g2, %g1, %g1
    6058:	c2 00 40 00 	ld  [ %g1 ], %g1
    605c:	c2 27 bf f0 	st  %g1, [ %fp + -16 ]
    6060:	c2 07 bf fc 	ld  [ %fp + -4 ], %g1
    6064:	83 28 60 04 	sll  %g1, 4, %g1
    6068:	82 00 60 08 	add  %g1, 8, %g1
    606c:	c4 07 a0 44 	ld  [ %fp + 0x44 ], %g2
    6070:	82 00 80 01 	add  %g2, %g1, %g1
    6074:	c2 00 40 00 	ld  [ %g1 ], %g1
    6078:	c2 27 bf ec 	st  %g1, [ %fp + -20 ]
    607c:	c2 07 bf fc 	ld  [ %fp + -4 ], %g1
    6080:	83 28 60 04 	sll  %g1, 4, %g1
    6084:	82 00 60 0c 	add  %g1, 0xc, %g1
    6088:	c4 07 a0 44 	ld  [ %fp + 0x44 ], %g2
    608c:	82 00 80 01 	add  %g2, %g1, %g1
    6090:	c2 00 40 00 	ld  [ %g1 ], %g1
    6094:	c2 27 bf e8 	st  %g1, [ %fp + -24 ]
    6098:	c0 2f bf fb 	clrb  [ %fp + -5 ]
    609c:	c0 2f bf fa 	clrb  [ %fp + -6 ]
    60a0:	c4 07 bf f4 	ld  [ %fp + -12 ], %g2
    60a4:	c2 07 bf ec 	ld  [ %fp + -20 ], %g1
    60a8:	80 a0 80 01 	cmp  %g2, %g1
    60ac:	12 80 00 06 	bne  60c4 <checker+0xcc>
    60b0:	01 00 00 00 	nop 
    60b4:	82 10 20 01 	mov  1, %g1	! 1 <_start+0x1>
    60b8:	c2 2f bf fb 	stb  %g1, [ %fp + -5 ]
    60bc:	10 80 00 1b 	b  6128 <checker+0x130>
    60c0:	01 00 00 00 	nop 
    60c4:	c2 07 bf fc 	ld  [ %fp + -4 ], %g1
    60c8:	82 00 60 01 	inc  %g1
    60cc:	05 10 00 00 	sethi  %hi(0x40000000), %g2
    60d0:	90 10 a0 40 	or  %g2, 0x40, %o0	! 40000040 <__sparc_get_pc_thunk.l7+0x3fff6054>
    60d4:	92 10 00 01 	mov  %g1, %o1
    60d8:	d4 07 a0 48 	ld  [ %fp + 0x48 ], %o2
    60dc:	40 00 06 0d 	call  7910 <ee_printf>
    60e0:	01 00 00 00 	nop 
    60e4:	03 10 00 00 	sethi  %hi(0x40000000), %g1
    60e8:	90 10 60 58 	or  %g1, 0x58, %o0	! 40000058 <__sparc_get_pc_thunk.l7+0x3fff606c>
    60ec:	d2 07 bf f4 	ld  [ %fp + -12 ], %o1
    60f0:	d4 07 bf f0 	ld  [ %fp + -16 ], %o2
    60f4:	40 00 06 07 	call  7910 <ee_printf>
    60f8:	01 00 00 00 	nop 
    60fc:	03 10 00 00 	sethi  %hi(0x40000000), %g1
    6100:	90 10 60 78 	or  %g1, 0x78, %o0	! 40000078 <__sparc_get_pc_thunk.l7+0x3fff608c>
    6104:	d2 07 bf ec 	ld  [ %fp + -20 ], %o1
    6108:	d4 07 bf e8 	ld  [ %fp + -24 ], %o2
    610c:	40 00 06 01 	call  7910 <ee_printf>
    6110:	01 00 00 00 	nop 
    6114:	03 10 00 00 	sethi  %hi(0x40000000), %g1
    6118:	90 10 60 98 	or  %g1, 0x98, %o0	! 40000098 <__sparc_get_pc_thunk.l7+0x3fff60ac>
    611c:	40 00 05 fd 	call  7910 <ee_printf>
    6120:	01 00 00 00 	nop 
    6124:	91 d0 20 00 	ta  0
    6128:	c4 07 bf f0 	ld  [ %fp + -16 ], %g2
    612c:	c2 07 bf e8 	ld  [ %fp + -24 ], %g1
    6130:	80 a0 80 01 	cmp  %g2, %g1
    6134:	12 80 00 06 	bne  614c <checker+0x154>
    6138:	01 00 00 00 	nop 
    613c:	82 10 20 01 	mov  1, %g1	! 1 <_start+0x1>
    6140:	c2 2f bf fa 	stb  %g1, [ %fp + -6 ]
    6144:	10 80 00 1b 	b  61b0 <checker+0x1b8>
    6148:	01 00 00 00 	nop 
    614c:	c2 07 bf fc 	ld  [ %fp + -4 ], %g1
    6150:	82 00 60 01 	inc  %g1
    6154:	05 10 00 00 	sethi  %hi(0x40000000), %g2
    6158:	90 10 a0 40 	or  %g2, 0x40, %o0	! 40000040 <__sparc_get_pc_thunk.l7+0x3fff6054>
    615c:	92 10 00 01 	mov  %g1, %o1
    6160:	d4 07 a0 48 	ld  [ %fp + 0x48 ], %o2
    6164:	40 00 05 eb 	call  7910 <ee_printf>
    6168:	01 00 00 00 	nop 
    616c:	03 10 00 00 	sethi  %hi(0x40000000), %g1
    6170:	90 10 60 58 	or  %g1, 0x58, %o0	! 40000058 <__sparc_get_pc_thunk.l7+0x3fff606c>
    6174:	d2 07 bf f4 	ld  [ %fp + -12 ], %o1
    6178:	d4 07 bf f0 	ld  [ %fp + -16 ], %o2
    617c:	40 00 05 e5 	call  7910 <ee_printf>
    6180:	01 00 00 00 	nop 
    6184:	03 10 00 00 	sethi  %hi(0x40000000), %g1
    6188:	90 10 60 78 	or  %g1, 0x78, %o0	! 40000078 <__sparc_get_pc_thunk.l7+0x3fff608c>
    618c:	d2 07 bf ec 	ld  [ %fp + -20 ], %o1
    6190:	d4 07 bf e8 	ld  [ %fp + -24 ], %o2
    6194:	40 00 05 df 	call  7910 <ee_printf>
    6198:	01 00 00 00 	nop 
    619c:	03 10 00 00 	sethi  %hi(0x40000000), %g1
    61a0:	90 10 60 98 	or  %g1, 0x98, %o0	! 40000098 <__sparc_get_pc_thunk.l7+0x3fff60ac>
    61a4:	40 00 05 db 	call  7910 <ee_printf>
    61a8:	01 00 00 00 	nop 
    61ac:	91 d0 20 00 	ta  0
    61b0:	c2 0f bf fb 	ldub  [ %fp + -5 ], %g1
    61b4:	83 28 60 18 	sll  %g1, 0x18, %g1
    61b8:	83 38 60 18 	sra  %g1, 0x18, %g1
    61bc:	80 a0 60 00 	cmp  %g1, 0
    61c0:	02 80 00 35 	be  6294 <checker+0x29c>
    61c4:	01 00 00 00 	nop 
    61c8:	c2 0f bf fa 	ldub  [ %fp + -6 ], %g1
    61cc:	83 28 60 18 	sll  %g1, 0x18, %g1
    61d0:	83 38 60 18 	sra  %g1, 0x18, %g1
    61d4:	80 a0 60 00 	cmp  %g1, 0
    61d8:	02 80 00 2f 	be  6294 <checker+0x29c>
    61dc:	01 00 00 00 	nop 
    61e0:	c2 07 bf fc 	ld  [ %fp + -4 ], %g1
    61e4:	82 00 60 01 	inc  %g1
    61e8:	c2 27 bf dc 	st  %g1, [ %fp + -36 ]
    61ec:	d5 07 bf dc 	ld  [ %fp + -36 ], %f10
    61f0:	91 a0 19 0a 	fitod  %f10, %f8
    61f4:	d1 3f bf d0 	std  %f8, [ %fp + -48 ]
    61f8:	d0 1f bf d0 	ldd  [ %fp + -48 ], %o0
    61fc:	40 00 0d e0 	call  997c <__ieee754_log2>
    6200:	01 00 00 00 	nop 
    6204:	91 a0 00 20 	fmovs  %f0, %f8
    6208:	93 a0 00 21 	fmovs  %f1, %f9
    620c:	d1 3f bf d0 	std  %f8, [ %fp + -48 ]
    6210:	d0 1f bf d0 	ldd  [ %fp + -48 ], %o0
    6214:	40 00 0e 90 	call  9c54 <__GI_ceil>
    6218:	01 00 00 00 	nop 
    621c:	c1 3f bf e0 	std  %f0, [ %fp + -32 ]
    6220:	c2 07 bf fc 	ld  [ %fp + -4 ], %g1
    6224:	82 00 60 01 	inc  %g1
    6228:	c2 27 bf dc 	st  %g1, [ %fp + -36 ]
    622c:	d7 07 bf dc 	ld  [ %fp + -36 ], %f11
    6230:	91 a0 19 0b 	fitod  %f11, %f8
    6234:	d1 3f bf d0 	std  %f8, [ %fp + -48 ]
    6238:	d0 1f bf d0 	ldd  [ %fp + -48 ], %o0
    623c:	40 00 0d d0 	call  997c <__ieee754_log2>
    6240:	01 00 00 00 	nop 
    6244:	91 a0 00 20 	fmovs  %f0, %f8
    6248:	93 a0 00 21 	fmovs  %f1, %f9
    624c:	d1 3f bf d0 	std  %f8, [ %fp + -48 ]
    6250:	d0 1f bf d0 	ldd  [ %fp + -48 ], %o0
    6254:	40 00 0e f1 	call  9e18 <__GI_floor>
    6258:	01 00 00 00 	nop 
    625c:	91 a0 00 20 	fmovs  %f0, %f8
    6260:	93 a0 00 21 	fmovs  %f1, %f9
    6264:	d5 1f bf e0 	ldd  [ %fp + -32 ], %f10
    6268:	81 aa 8a 48 	fcmpd  %f10, %f8
    626c:	01 00 00 00 	nop 
    6270:	03 80 00 09 	fbne  6294 <checker+0x29c>
    6274:	01 00 00 00 	nop 
    6278:	c2 07 bf fc 	ld  [ %fp + -4 ], %g1
    627c:	82 00 60 01 	inc  %g1
    6280:	05 10 00 00 	sethi  %hi(0x40000000), %g2
    6284:	90 10 a0 d0 	or  %g2, 0xd0, %o0	! 400000d0 <__sparc_get_pc_thunk.l7+0x3fff60e4>
    6288:	92 10 00 01 	mov  %g1, %o1
    628c:	40 00 05 a1 	call  7910 <ee_printf>
    6290:	01 00 00 00 	nop 
    6294:	c2 07 bf fc 	ld  [ %fp + -4 ], %g1
    6298:	82 00 60 01 	inc  %g1
    629c:	c2 27 bf fc 	st  %g1, [ %fp + -4 ]
    62a0:	c4 07 bf fc 	ld  [ %fp + -4 ], %g2
    62a4:	c2 07 a0 48 	ld  [ %fp + 0x48 ], %g1
    62a8:	80 a0 80 01 	cmp  %g2, %g1
    62ac:	06 bf ff 60 	bl  602c <checker+0x34>
    62b0:	01 00 00 00 	nop 
    62b4:	82 10 20 00 	clr  %g1	! 0 <_start>
    62b8:	b0 10 00 01 	mov  %g1, %i0
    62bc:	81 e8 00 00 	restore 
    62c0:	81 c3 e0 08 	retl 
    62c4:	01 00 00 00 	nop 
    62c8:	00 00 76 24 	unimp  0x7624
    62cc:	00 00 76 f8 	unimp  0x76f8
    62d0:	00 00 76 f8 	unimp  0x76f8
    62d4:	00 00 76 f8 	unimp  0x76f8
    62d8:	00 00 76 f8 	unimp  0x76f8
    62dc:	00 00 76 f8 	unimp  0x76f8
    62e0:	00 00 76 f8 	unimp  0x76f8
    62e4:	00 00 76 f8 	unimp  0x76f8
    62e8:	00 00 76 f8 	unimp  0x76f8
    62ec:	00 00 76 f8 	unimp  0x76f8
    62f0:	00 00 76 f8 	unimp  0x76f8
    62f4:	00 00 76 f8 	unimp  0x76f8
    62f8:	00 00 76 f8 	unimp  0x76f8
    62fc:	00 00 76 f8 	unimp  0x76f8
    6300:	00 00 76 f8 	unimp  0x76f8
    6304:	00 00 76 f8 	unimp  0x76f8
    6308:	00 00 76 f8 	unimp  0x76f8
    630c:	00 00 76 f8 	unimp  0x76f8
    6310:	00 00 76 f8 	unimp  0x76f8
    6314:	00 00 76 f8 	unimp  0x76f8
    6318:	00 00 76 f8 	unimp  0x76f8
    631c:	00 00 76 f8 	unimp  0x76f8
    6320:	00 00 76 f8 	unimp  0x76f8
    6324:	00 00 76 c8 	unimp  0x76c8
    6328:	00 00 76 f8 	unimp  0x76f8
    632c:	00 00 76 f8 	unimp  0x76f8
    6330:	00 00 76 f8 	unimp  0x76f8
    6334:	00 00 76 f8 	unimp  0x76f8
    6338:	00 00 76 f8 	unimp  0x76f8
    633c:	00 00 76 f8 	unimp  0x76f8
    6340:	00 00 76 f8 	unimp  0x76f8
    6344:	00 00 76 f8 	unimp  0x76f8
    6348:	00 00 76 30 	unimp  0x7630
    634c:	00 00 76 f8 	unimp  0x76f8
    6350:	00 00 73 90 	unimp  0x7390
    6354:	00 00 76 e4 	unimp  0x76e4
    6358:	00 00 76 f8 	unimp  0x76f8
    635c:	00 00 76 f8 	unimp  0x76f8
    6360:	00 00 76 f8 	unimp  0x76f8
    6364:	00 00 76 f8 	unimp  0x76f8
    6368:	00 00 76 e4 	unimp  0x76e4
    636c:	00 00 76 f8 	unimp  0x76f8
    6370:	00 00 76 f8 	unimp  0x76f8
    6374:	00 00 76 f8 	unimp  0x76f8
    6378:	00 00 76 f8 	unimp  0x76f8
    637c:	00 00 76 f8 	unimp  0x76f8
    6380:	00 00 76 b8 	unimp  0x76b8
    6384:	00 00 75 c0 	unimp  0x75c0
    6388:	00 00 76 f8 	unimp  0x76f8
    638c:	00 00 76 f8 	unimp  0x76f8
    6390:	00 00 74 50 	unimp  0x7450
    6394:	00 00 76 f8 	unimp  0x76f8
    6398:	00 00 77 80 	unimp  0x7780
    639c:	00 00 76 f8 	unimp  0x76f8
    63a0:	00 00 76 f8 	unimp  0x76f8
    63a4:	00 00 76 d4 	unimp  0x76d4
    63a8:	00 00 71 18 	unimp  0x7118
    63ac:	00 00 71 54 	unimp  0x7154
    63b0:	00 00 71 54 	unimp  0x7154
    63b4:	00 00 71 2c 	unimp  0x712c
    63b8:	00 00 71 54 	unimp  0x7154
    63bc:	00 00 71 54 	unimp  0x7154
    63c0:	00 00 71 54 	unimp  0x7154
    63c4:	00 00 71 54 	unimp  0x7154
    63c8:	00 00 71 54 	unimp  0x7154
    63cc:	00 00 71 54 	unimp  0x7154
    63d0:	00 00 71 54 	unimp  0x7154
    63d4:	00 00 71 04 	unimp  0x7104
    63d8:	00 00 71 54 	unimp  0x7154
    63dc:	00 00 70 f0 	unimp  0x70f0
    63e0:	00 00 71 54 	unimp  0x7154
    63e4:	00 00 71 54 	unimp  0x7154
    63e8:	00 00 71 40 	unimp  0x7140

000063ec <strnlen>:
    63ec:	9d e3 bf 98 	save  %sp, -104, %sp
    63f0:	f0 27 a0 44 	st  %i0, [ %fp + 0x44 ]
    63f4:	f2 27 a0 48 	st  %i1, [ %fp + 0x48 ]
    63f8:	c2 07 a0 44 	ld  [ %fp + 0x44 ], %g1
    63fc:	c2 27 bf fc 	st  %g1, [ %fp + -4 ]
    6400:	10 80 00 05 	b  6414 <strnlen+0x28>
    6404:	01 00 00 00 	nop 
    6408:	c2 07 bf fc 	ld  [ %fp + -4 ], %g1
    640c:	82 00 60 01 	inc  %g1
    6410:	c2 27 bf fc 	st  %g1, [ %fp + -4 ]
    6414:	c2 07 bf fc 	ld  [ %fp + -4 ], %g1
    6418:	c2 08 40 00 	ldub  [ %g1 ], %g1
    641c:	83 28 60 18 	sll  %g1, 0x18, %g1
    6420:	83 38 60 18 	sra  %g1, 0x18, %g1
    6424:	80 a0 60 00 	cmp  %g1, 0
    6428:	02 80 00 0d 	be  645c <strnlen+0x70>
    642c:	01 00 00 00 	nop 
    6430:	c2 07 a0 48 	ld  [ %fp + 0x48 ], %g1
    6434:	82 18 60 00 	xor  %g1, 0, %g1
    6438:	80 a0 00 01 	cmp  %g0, %g1
    643c:	82 40 20 00 	addx  %g0, 0, %g1
    6440:	c4 07 a0 48 	ld  [ %fp + 0x48 ], %g2
    6444:	84 00 bf ff 	add  %g2, -1, %g2
    6448:	c4 27 a0 48 	st  %g2, [ %fp + 0x48 ]
    644c:	82 08 60 ff 	and  %g1, 0xff, %g1
    6450:	80 a0 60 00 	cmp  %g1, 0
    6454:	12 bf ff ed 	bne  6408 <strnlen+0x1c>
    6458:	01 00 00 00 	nop 
    645c:	c4 07 bf fc 	ld  [ %fp + -4 ], %g2
    6460:	c2 07 a0 44 	ld  [ %fp + 0x44 ], %g1
    6464:	82 20 80 01 	sub  %g2, %g1, %g1
    6468:	b0 10 00 01 	mov  %g1, %i0
    646c:	81 e8 00 00 	restore 
    6470:	81 c3 e0 08 	retl 
    6474:	01 00 00 00 	nop 

00006478 <skip_atoi>:
    6478:	9d e3 bf 98 	save  %sp, -104, %sp
    647c:	f0 27 a0 44 	st  %i0, [ %fp + 0x44 ]
    6480:	c0 27 bf fc 	clr  [ %fp + -4 ]
    6484:	10 80 00 11 	b  64c8 <skip_atoi+0x50>
    6488:	01 00 00 00 	nop 
    648c:	c2 07 bf fc 	ld  [ %fp + -4 ], %g1
    6490:	82 00 40 01 	add  %g1, %g1, %g1
    6494:	85 28 60 02 	sll  %g1, 2, %g2
    6498:	86 00 40 02 	add  %g1, %g2, %g3
    649c:	c2 07 a0 44 	ld  [ %fp + 0x44 ], %g1
    64a0:	c2 00 40 00 	ld  [ %g1 ], %g1
    64a4:	c4 08 40 00 	ldub  [ %g1 ], %g2
    64a8:	85 28 a0 18 	sll  %g2, 0x18, %g2
    64ac:	85 38 a0 18 	sra  %g2, 0x18, %g2
    64b0:	84 00 c0 02 	add  %g3, %g2, %g2
    64b4:	84 00 bf d0 	add  %g2, -48, %g2
    64b8:	c4 27 bf fc 	st  %g2, [ %fp + -4 ]
    64bc:	84 00 60 01 	add  %g1, 1, %g2
    64c0:	c2 07 a0 44 	ld  [ %fp + 0x44 ], %g1
    64c4:	c4 20 40 00 	st  %g2, [ %g1 ]
    64c8:	c2 07 a0 44 	ld  [ %fp + 0x44 ], %g1
    64cc:	c2 00 40 00 	ld  [ %g1 ], %g1
    64d0:	c2 08 40 00 	ldub  [ %g1 ], %g1
    64d4:	83 28 60 18 	sll  %g1, 0x18, %g1
    64d8:	83 38 60 18 	sra  %g1, 0x18, %g1
    64dc:	80 a0 60 2f 	cmp  %g1, 0x2f
    64e0:	04 80 00 0a 	ble  6508 <skip_atoi+0x90>
    64e4:	01 00 00 00 	nop 
    64e8:	c2 07 a0 44 	ld  [ %fp + 0x44 ], %g1
    64ec:	c2 00 40 00 	ld  [ %g1 ], %g1
    64f0:	c2 08 40 00 	ldub  [ %g1 ], %g1
    64f4:	83 28 60 18 	sll  %g1, 0x18, %g1
    64f8:	83 38 60 18 	sra  %g1, 0x18, %g1
    64fc:	80 a0 60 39 	cmp  %g1, 0x39
    6500:	04 bf ff e3 	ble  648c <skip_atoi+0x14>
    6504:	01 00 00 00 	nop 
    6508:	c2 07 bf fc 	ld  [ %fp + -4 ], %g1
    650c:	b0 10 00 01 	mov  %g1, %i0
    6510:	81 e8 00 00 	restore 
    6514:	81 c3 e0 08 	retl 
    6518:	01 00 00 00 	nop 

0000651c <number>:
    651c:	9d e3 bf 50 	save  %sp, -176, %sp
    6520:	f0 27 a0 44 	st  %i0, [ %fp + 0x44 ]
    6524:	f2 27 a0 48 	st  %i1, [ %fp + 0x48 ]
    6528:	f4 27 a0 4c 	st  %i2, [ %fp + 0x4c ]
    652c:	f6 27 a0 50 	st  %i3, [ %fp + 0x50 ]
    6530:	f8 27 a0 54 	st  %i4, [ %fp + 0x54 ]
    6534:	fa 27 a0 58 	st  %i5, [ %fp + 0x58 ]
    6538:	03 10 00 00 	sethi  %hi(0x40000000), %g1
    653c:	82 10 62 78 	or  %g1, 0x278, %g1	! 40000278 <digits>
    6540:	c2 00 40 00 	ld  [ %g1 ], %g1
    6544:	c2 27 bf f8 	st  %g1, [ %fp + -8 ]
    6548:	c2 07 a0 58 	ld  [ %fp + 0x58 ], %g1
    654c:	82 08 60 40 	and  %g1, 0x40, %g1
    6550:	80 a0 60 00 	cmp  %g1, 0
    6554:	02 80 00 06 	be  656c <number+0x50>
    6558:	01 00 00 00 	nop 
    655c:	03 10 00 00 	sethi  %hi(0x40000000), %g1
    6560:	82 10 62 7c 	or  %g1, 0x27c, %g1	! 4000027c <upper_digits>
    6564:	c2 00 40 00 	ld  [ %g1 ], %g1
    6568:	c2 27 bf f8 	st  %g1, [ %fp + -8 ]
    656c:	c2 07 a0 58 	ld  [ %fp + 0x58 ], %g1
    6570:	82 08 60 10 	and  %g1, 0x10, %g1
    6574:	80 a0 60 00 	cmp  %g1, 0
    6578:	02 80 00 05 	be  658c <number+0x70>
    657c:	01 00 00 00 	nop 
    6580:	c2 07 a0 58 	ld  [ %fp + 0x58 ], %g1
    6584:	82 08 7f fe 	and  %g1, -2, %g1
    6588:	c2 27 a0 58 	st  %g1, [ %fp + 0x58 ]
    658c:	c2 07 a0 4c 	ld  [ %fp + 0x4c ], %g1
    6590:	80 a0 60 01 	cmp  %g1, 1
    6594:	04 80 00 06 	ble  65ac <number+0x90>
    6598:	01 00 00 00 	nop 
    659c:	c2 07 a0 4c 	ld  [ %fp + 0x4c ], %g1
    65a0:	80 a0 60 24 	cmp  %g1, 0x24
    65a4:	04 80 00 05 	ble  65b8 <number+0x9c>
    65a8:	01 00 00 00 	nop 
    65ac:	82 10 20 00 	clr  %g1	! 0 <_start>
    65b0:	10 80 01 28 	b  6a50 <number+0x534>
    65b4:	01 00 00 00 	nop 
    65b8:	c2 07 a0 58 	ld  [ %fp + 0x58 ], %g1
    65bc:	82 08 60 01 	and  %g1, 1, %g1
    65c0:	80 a0 60 00 	cmp  %g1, 0
    65c4:	02 80 00 05 	be  65d8 <number+0xbc>
    65c8:	01 00 00 00 	nop 
    65cc:	82 10 20 30 	mov  0x30, %g1	! 30 <_start+0x30>
    65d0:	10 80 00 03 	b  65dc <number+0xc0>
    65d4:	01 00 00 00 	nop 
    65d8:	82 10 20 20 	mov  0x20, %g1	! 20 <_start+0x20>
    65dc:	c2 2f bf f3 	stb  %g1, [ %fp + -13 ]
    65e0:	c0 2f bf ff 	clrb  [ %fp + -1 ]
    65e4:	c2 07 a0 58 	ld  [ %fp + 0x58 ], %g1
    65e8:	82 08 60 02 	and  %g1, 2, %g1
    65ec:	80 a0 60 00 	cmp  %g1, 0
    65f0:	02 80 00 26 	be  6688 <number+0x16c>
    65f4:	01 00 00 00 	nop 
    65f8:	c2 07 a0 48 	ld  [ %fp + 0x48 ], %g1
    65fc:	80 a0 60 00 	cmp  %g1, 0
    6600:	16 80 00 0c 	bge  6630 <number+0x114>
    6604:	01 00 00 00 	nop 
    6608:	82 10 20 2d 	mov  0x2d, %g1	! 2d <_start+0x2d>
    660c:	c2 2f bf ff 	stb  %g1, [ %fp + -1 ]
    6610:	c2 07 a0 48 	ld  [ %fp + 0x48 ], %g1
    6614:	82 20 00 01 	neg  %g1
    6618:	c2 27 a0 48 	st  %g1, [ %fp + 0x48 ]
    661c:	c2 07 a0 50 	ld  [ %fp + 0x50 ], %g1
    6620:	82 00 7f ff 	add  %g1, -1, %g1
    6624:	c2 27 a0 50 	st  %g1, [ %fp + 0x50 ]
    6628:	10 80 00 18 	b  6688 <number+0x16c>
    662c:	01 00 00 00 	nop 
    6630:	c2 07 a0 58 	ld  [ %fp + 0x58 ], %g1
    6634:	82 08 60 04 	and  %g1, 4, %g1
    6638:	80 a0 60 00 	cmp  %g1, 0
    663c:	02 80 00 09 	be  6660 <number+0x144>
    6640:	01 00 00 00 	nop 
    6644:	82 10 20 2b 	mov  0x2b, %g1	! 2b <_start+0x2b>
    6648:	c2 2f bf ff 	stb  %g1, [ %fp + -1 ]
    664c:	c2 07 a0 50 	ld  [ %fp + 0x50 ], %g1
    6650:	82 00 7f ff 	add  %g1, -1, %g1
    6654:	c2 27 a0 50 	st  %g1, [ %fp + 0x50 ]
    6658:	10 80 00 0c 	b  6688 <number+0x16c>
    665c:	01 00 00 00 	nop 
    6660:	c2 07 a0 58 	ld  [ %fp + 0x58 ], %g1
    6664:	82 08 60 08 	and  %g1, 8, %g1
    6668:	80 a0 60 00 	cmp  %g1, 0
    666c:	02 80 00 07 	be  6688 <number+0x16c>
    6670:	01 00 00 00 	nop 
    6674:	82 10 20 20 	mov  0x20, %g1	! 20 <_start+0x20>
    6678:	c2 2f bf ff 	stb  %g1, [ %fp + -1 ]
    667c:	c2 07 a0 50 	ld  [ %fp + 0x50 ], %g1
    6680:	82 00 7f ff 	add  %g1, -1, %g1
    6684:	c2 27 a0 50 	st  %g1, [ %fp + 0x50 ]
    6688:	c2 07 a0 58 	ld  [ %fp + 0x58 ], %g1
    668c:	82 08 60 20 	and  %g1, 0x20, %g1
    6690:	80 a0 60 00 	cmp  %g1, 0
    6694:	02 80 00 12 	be  66dc <number+0x1c0>
    6698:	01 00 00 00 	nop 
    669c:	c2 07 a0 4c 	ld  [ %fp + 0x4c ], %g1
    66a0:	80 a0 60 10 	cmp  %g1, 0x10
    66a4:	12 80 00 07 	bne  66c0 <number+0x1a4>
    66a8:	01 00 00 00 	nop 
    66ac:	c2 07 a0 50 	ld  [ %fp + 0x50 ], %g1
    66b0:	82 00 7f fe 	add  %g1, -2, %g1
    66b4:	c2 27 a0 50 	st  %g1, [ %fp + 0x50 ]
    66b8:	10 80 00 09 	b  66dc <number+0x1c0>
    66bc:	01 00 00 00 	nop 
    66c0:	c2 07 a0 4c 	ld  [ %fp + 0x4c ], %g1
    66c4:	80 a0 60 08 	cmp  %g1, 8
    66c8:	12 80 00 05 	bne  66dc <number+0x1c0>
    66cc:	01 00 00 00 	nop 
    66d0:	c2 07 a0 50 	ld  [ %fp + 0x50 ], %g1
    66d4:	82 00 7f ff 	add  %g1, -1, %g1
    66d8:	c2 27 a0 50 	st  %g1, [ %fp + 0x50 ]
    66dc:	c0 27 bf f4 	clr  [ %fp + -12 ]
    66e0:	c2 07 a0 48 	ld  [ %fp + 0x48 ], %g1
    66e4:	80 a0 60 00 	cmp  %g1, 0
    66e8:	12 80 00 25 	bne  677c <number+0x260>
    66ec:	01 00 00 00 	nop 
    66f0:	c2 07 bf f4 	ld  [ %fp + -12 ], %g1
    66f4:	82 07 80 01 	add  %fp, %g1, %g1
    66f8:	84 10 20 30 	mov  0x30, %g2
    66fc:	c4 28 7f b0 	stb  %g2, [ %g1 + -80 ]
    6700:	c2 07 bf f4 	ld  [ %fp + -12 ], %g1
    6704:	82 00 60 01 	inc  %g1
    6708:	c2 27 bf f4 	st  %g1, [ %fp + -12 ]
    670c:	10 80 00 20 	b  678c <number+0x270>
    6710:	01 00 00 00 	nop 
    6714:	c2 07 a0 48 	ld  [ %fp + 0x48 ], %g1
    6718:	c4 07 a0 4c 	ld  [ %fp + 0x4c ], %g2
    671c:	81 80 20 00 	mov  %g0, %y
    6720:	01 00 00 00 	nop 
    6724:	01 00 00 00 	nop 
    6728:	01 00 00 00 	nop 
    672c:	86 70 40 02 	udiv  %g1, %g2, %g3
    6730:	84 58 c0 02 	smul  %g3, %g2, %g2
    6734:	82 20 40 02 	sub  %g1, %g2, %g1
    6738:	c4 07 bf f8 	ld  [ %fp + -8 ], %g2
    673c:	82 00 80 01 	add  %g2, %g1, %g1
    6740:	c4 08 40 00 	ldub  [ %g1 ], %g2
    6744:	c2 07 bf f4 	ld  [ %fp + -12 ], %g1
    6748:	82 07 80 01 	add  %fp, %g1, %g1
    674c:	c4 28 7f b0 	stb  %g2, [ %g1 + -80 ]
    6750:	c2 07 bf f4 	ld  [ %fp + -12 ], %g1
    6754:	82 00 60 01 	inc  %g1
    6758:	c2 27 bf f4 	st  %g1, [ %fp + -12 ]
    675c:	c6 07 a0 48 	ld  [ %fp + 0x48 ], %g3
    6760:	c4 07 a0 4c 	ld  [ %fp + 0x4c ], %g2
    6764:	81 80 20 00 	mov  %g0, %y
    6768:	01 00 00 00 	nop 
    676c:	01 00 00 00 	nop 
    6770:	01 00 00 00 	nop 
    6774:	82 70 c0 02 	udiv  %g3, %g2, %g1
    6778:	c2 27 a0 48 	st  %g1, [ %fp + 0x48 ]
    677c:	c2 07 a0 48 	ld  [ %fp + 0x48 ], %g1
    6780:	80 a0 60 00 	cmp  %g1, 0
    6784:	12 bf ff e4 	bne  6714 <number+0x1f8>
    6788:	01 00 00 00 	nop 
    678c:	c4 07 bf f4 	ld  [ %fp + -12 ], %g2
    6790:	c2 07 a0 54 	ld  [ %fp + 0x54 ], %g1
    6794:	80 a0 80 01 	cmp  %g2, %g1
    6798:	04 80 00 04 	ble  67a8 <number+0x28c>
    679c:	01 00 00 00 	nop 
    67a0:	c2 07 bf f4 	ld  [ %fp + -12 ], %g1
    67a4:	c2 27 a0 54 	st  %g1, [ %fp + 0x54 ]
    67a8:	c4 07 a0 50 	ld  [ %fp + 0x50 ], %g2
    67ac:	c2 07 a0 54 	ld  [ %fp + 0x54 ], %g1
    67b0:	82 20 80 01 	sub  %g2, %g1, %g1
    67b4:	c2 27 a0 50 	st  %g1, [ %fp + 0x50 ]
    67b8:	c2 07 a0 58 	ld  [ %fp + 0x58 ], %g1
    67bc:	82 08 60 11 	and  %g1, 0x11, %g1
    67c0:	80 a0 60 00 	cmp  %g1, 0
    67c4:	12 80 00 16 	bne  681c <number+0x300>
    67c8:	01 00 00 00 	nop 
    67cc:	10 80 00 08 	b  67ec <number+0x2d0>
    67d0:	01 00 00 00 	nop 
    67d4:	c2 07 a0 44 	ld  [ %fp + 0x44 ], %g1
    67d8:	84 10 20 20 	mov  0x20, %g2
    67dc:	c4 28 40 00 	stb  %g2, [ %g1 ]
    67e0:	c2 07 a0 44 	ld  [ %fp + 0x44 ], %g1
    67e4:	82 00 60 01 	inc  %g1
    67e8:	c2 27 a0 44 	st  %g1, [ %fp + 0x44 ]
    67ec:	c2 07 a0 50 	ld  [ %fp + 0x50 ], %g1
    67f0:	85 38 60 1f 	sra  %g1, 0x1f, %g2
    67f4:	c2 07 a0 50 	ld  [ %fp + 0x50 ], %g1
    67f8:	82 20 80 01 	sub  %g2, %g1, %g1
    67fc:	83 30 60 1f 	srl  %g1, 0x1f, %g1
    6800:	c4 07 a0 50 	ld  [ %fp + 0x50 ], %g2
    6804:	84 00 bf ff 	add  %g2, -1, %g2
    6808:	c4 27 a0 50 	st  %g2, [ %fp + 0x50 ]
    680c:	82 08 60 ff 	and  %g1, 0xff, %g1
    6810:	80 a0 60 00 	cmp  %g1, 0
    6814:	12 bf ff f0 	bne  67d4 <number+0x2b8>
    6818:	01 00 00 00 	nop 
    681c:	c2 0f bf ff 	ldub  [ %fp + -1 ], %g1
    6820:	83 28 60 18 	sll  %g1, 0x18, %g1
    6824:	83 38 60 18 	sra  %g1, 0x18, %g1
    6828:	80 a0 60 00 	cmp  %g1, 0
    682c:	02 80 00 08 	be  684c <number+0x330>
    6830:	01 00 00 00 	nop 
    6834:	c2 07 a0 44 	ld  [ %fp + 0x44 ], %g1
    6838:	c4 0f bf ff 	ldub  [ %fp + -1 ], %g2
    683c:	c4 28 40 00 	stb  %g2, [ %g1 ]
    6840:	c2 07 a0 44 	ld  [ %fp + 0x44 ], %g1
    6844:	82 00 60 01 	inc  %g1
    6848:	c2 27 a0 44 	st  %g1, [ %fp + 0x44 ]
    684c:	c2 07 a0 58 	ld  [ %fp + 0x58 ], %g1
    6850:	82 08 60 20 	and  %g1, 0x20, %g1
    6854:	80 a0 60 00 	cmp  %g1, 0
    6858:	02 80 00 21 	be  68dc <number+0x3c0>
    685c:	01 00 00 00 	nop 
    6860:	c2 07 a0 4c 	ld  [ %fp + 0x4c ], %g1
    6864:	80 a0 60 08 	cmp  %g1, 8
    6868:	12 80 00 0a 	bne  6890 <number+0x374>
    686c:	01 00 00 00 	nop 
    6870:	c2 07 a0 44 	ld  [ %fp + 0x44 ], %g1
    6874:	84 10 20 30 	mov  0x30, %g2
    6878:	c4 28 40 00 	stb  %g2, [ %g1 ]
    687c:	c2 07 a0 44 	ld  [ %fp + 0x44 ], %g1
    6880:	82 00 60 01 	inc  %g1
    6884:	c2 27 a0 44 	st  %g1, [ %fp + 0x44 ]
    6888:	10 80 00 15 	b  68dc <number+0x3c0>
    688c:	01 00 00 00 	nop 
    6890:	c2 07 a0 4c 	ld  [ %fp + 0x4c ], %g1
    6894:	80 a0 60 10 	cmp  %g1, 0x10
    6898:	12 80 00 11 	bne  68dc <number+0x3c0>
    689c:	01 00 00 00 	nop 
    68a0:	c2 07 a0 44 	ld  [ %fp + 0x44 ], %g1
    68a4:	84 10 20 30 	mov  0x30, %g2
    68a8:	c4 28 40 00 	stb  %g2, [ %g1 ]
    68ac:	c2 07 a0 44 	ld  [ %fp + 0x44 ], %g1
    68b0:	82 00 60 01 	inc  %g1
    68b4:	c2 27 a0 44 	st  %g1, [ %fp + 0x44 ]
    68b8:	03 10 00 00 	sethi  %hi(0x40000000), %g1
    68bc:	82 10 62 78 	or  %g1, 0x278, %g1	! 40000278 <digits>
    68c0:	c2 00 40 00 	ld  [ %g1 ], %g1
    68c4:	c4 08 60 21 	ldub  [ %g1 + 0x21 ], %g2
    68c8:	c2 07 a0 44 	ld  [ %fp + 0x44 ], %g1
    68cc:	c4 28 40 00 	stb  %g2, [ %g1 ]
    68d0:	c2 07 a0 44 	ld  [ %fp + 0x44 ], %g1
    68d4:	82 00 60 01 	inc  %g1
    68d8:	c2 27 a0 44 	st  %g1, [ %fp + 0x44 ]
    68dc:	c2 07 a0 58 	ld  [ %fp + 0x58 ], %g1
    68e0:	82 08 60 10 	and  %g1, 0x10, %g1
    68e4:	80 a0 60 00 	cmp  %g1, 0
    68e8:	12 80 00 20 	bne  6968 <number+0x44c>
    68ec:	01 00 00 00 	nop 
    68f0:	10 80 00 08 	b  6910 <number+0x3f4>
    68f4:	01 00 00 00 	nop 
    68f8:	c2 07 a0 44 	ld  [ %fp + 0x44 ], %g1
    68fc:	c4 0f bf f3 	ldub  [ %fp + -13 ], %g2
    6900:	c4 28 40 00 	stb  %g2, [ %g1 ]
    6904:	c2 07 a0 44 	ld  [ %fp + 0x44 ], %g1
    6908:	82 00 60 01 	inc  %g1
    690c:	c2 27 a0 44 	st  %g1, [ %fp + 0x44 ]
    6910:	c2 07 a0 50 	ld  [ %fp + 0x50 ], %g1
    6914:	85 38 60 1f 	sra  %g1, 0x1f, %g2
    6918:	c2 07 a0 50 	ld  [ %fp + 0x50 ], %g1
    691c:	82 20 80 01 	sub  %g2, %g1, %g1
    6920:	83 30 60 1f 	srl  %g1, 0x1f, %g1
    6924:	c4 07 a0 50 	ld  [ %fp + 0x50 ], %g2
    6928:	84 00 bf ff 	add  %g2, -1, %g2
    692c:	c4 27 a0 50 	st  %g2, [ %fp + 0x50 ]
    6930:	82 08 60 ff 	and  %g1, 0xff, %g1
    6934:	80 a0 60 00 	cmp  %g1, 0
    6938:	12 bf ff f0 	bne  68f8 <number+0x3dc>
    693c:	01 00 00 00 	nop 
    6940:	10 80 00 0a 	b  6968 <number+0x44c>
    6944:	01 00 00 00 	nop 
    6948:	c2 07 a0 44 	ld  [ %fp + 0x44 ], %g1
    694c:	84 10 20 30 	mov  0x30, %g2
    6950:	c4 28 40 00 	stb  %g2, [ %g1 ]
    6954:	c2 07 a0 44 	ld  [ %fp + 0x44 ], %g1
    6958:	82 00 60 01 	inc  %g1
    695c:	c2 27 a0 44 	st  %g1, [ %fp + 0x44 ]
    6960:	10 80 00 03 	b  696c <number+0x450>
    6964:	01 00 00 00 	nop 
    6968:	01 00 00 00 	nop 
    696c:	82 10 20 01 	mov  1, %g1	! 1 <_start+0x1>
    6970:	c6 07 a0 54 	ld  [ %fp + 0x54 ], %g3
    6974:	c4 07 bf f4 	ld  [ %fp + -12 ], %g2
    6978:	80 a0 c0 02 	cmp  %g3, %g2
    697c:	14 80 00 03 	bg  6988 <number+0x46c>
    6980:	01 00 00 00 	nop 
    6984:	82 10 20 00 	clr  %g1	! 0 <_start>
    6988:	c4 07 a0 54 	ld  [ %fp + 0x54 ], %g2
    698c:	84 00 bf ff 	add  %g2, -1, %g2
    6990:	c4 27 a0 54 	st  %g2, [ %fp + 0x54 ]
    6994:	82 08 60 ff 	and  %g1, 0xff, %g1
    6998:	80 a0 60 00 	cmp  %g1, 0
    699c:	12 bf ff eb 	bne  6948 <number+0x42c>
    69a0:	01 00 00 00 	nop 
    69a4:	10 80 00 0a 	b  69cc <number+0x4b0>
    69a8:	01 00 00 00 	nop 
    69ac:	c2 07 bf f4 	ld  [ %fp + -12 ], %g1
    69b0:	82 07 80 01 	add  %fp, %g1, %g1
    69b4:	c4 08 7f b0 	ldub  [ %g1 + -80 ], %g2
    69b8:	c2 07 a0 44 	ld  [ %fp + 0x44 ], %g1
    69bc:	c4 28 40 00 	stb  %g2, [ %g1 ]
    69c0:	c2 07 a0 44 	ld  [ %fp + 0x44 ], %g1
    69c4:	82 00 60 01 	inc  %g1
    69c8:	c2 27 a0 44 	st  %g1, [ %fp + 0x44 ]
    69cc:	c2 07 bf f4 	ld  [ %fp + -12 ], %g1
    69d0:	85 38 60 1f 	sra  %g1, 0x1f, %g2
    69d4:	c2 07 bf f4 	ld  [ %fp + -12 ], %g1
    69d8:	82 20 80 01 	sub  %g2, %g1, %g1
    69dc:	83 30 60 1f 	srl  %g1, 0x1f, %g1
    69e0:	c4 07 bf f4 	ld  [ %fp + -12 ], %g2
    69e4:	84 00 bf ff 	add  %g2, -1, %g2
    69e8:	c4 27 bf f4 	st  %g2, [ %fp + -12 ]
    69ec:	82 08 60 ff 	and  %g1, 0xff, %g1
    69f0:	80 a0 60 00 	cmp  %g1, 0
    69f4:	12 bf ff ee 	bne  69ac <number+0x490>
    69f8:	01 00 00 00 	nop 
    69fc:	10 80 00 08 	b  6a1c <number+0x500>
    6a00:	01 00 00 00 	nop 
    6a04:	c2 07 a0 44 	ld  [ %fp + 0x44 ], %g1
    6a08:	84 10 20 20 	mov  0x20, %g2
    6a0c:	c4 28 40 00 	stb  %g2, [ %g1 ]
    6a10:	c2 07 a0 44 	ld  [ %fp + 0x44 ], %g1
    6a14:	82 00 60 01 	inc  %g1
    6a18:	c2 27 a0 44 	st  %g1, [ %fp + 0x44 ]
    6a1c:	c2 07 a0 50 	ld  [ %fp + 0x50 ], %g1
    6a20:	85 38 60 1f 	sra  %g1, 0x1f, %g2
    6a24:	c2 07 a0 50 	ld  [ %fp + 0x50 ], %g1
    6a28:	82 20 80 01 	sub  %g2, %g1, %g1
    6a2c:	83 30 60 1f 	srl  %g1, 0x1f, %g1
    6a30:	c4 07 a0 50 	ld  [ %fp + 0x50 ], %g2
    6a34:	84 00 bf ff 	add  %g2, -1, %g2
    6a38:	c4 27 a0 50 	st  %g2, [ %fp + 0x50 ]
    6a3c:	82 08 60 ff 	and  %g1, 0xff, %g1
    6a40:	80 a0 60 00 	cmp  %g1, 0
    6a44:	12 bf ff f0 	bne  6a04 <number+0x4e8>
    6a48:	01 00 00 00 	nop 
    6a4c:	c2 07 a0 44 	ld  [ %fp + 0x44 ], %g1
    6a50:	b0 10 00 01 	mov  %g1, %i0
    6a54:	81 e8 00 00 	restore 
    6a58:	81 c3 e0 08 	retl 
    6a5c:	01 00 00 00 	nop 

00006a60 <eaddr>:
    6a60:	9d e3 bf 78 	save  %sp, -136, %sp
    6a64:	f0 27 a0 44 	st  %i0, [ %fp + 0x44 ]
    6a68:	f2 27 a0 48 	st  %i1, [ %fp + 0x48 ]
    6a6c:	f4 27 a0 4c 	st  %i2, [ %fp + 0x4c ]
    6a70:	f6 27 a0 50 	st  %i3, [ %fp + 0x50 ]
    6a74:	f8 27 a0 54 	st  %i4, [ %fp + 0x54 ]
    6a78:	03 10 00 00 	sethi  %hi(0x40000000), %g1
    6a7c:	82 10 62 78 	or  %g1, 0x278, %g1	! 40000278 <digits>
    6a80:	c2 00 40 00 	ld  [ %g1 ], %g1
    6a84:	c2 27 bf fc 	st  %g1, [ %fp + -4 ]
    6a88:	c2 07 a0 54 	ld  [ %fp + 0x54 ], %g1
    6a8c:	82 08 60 40 	and  %g1, 0x40, %g1
    6a90:	80 a0 60 00 	cmp  %g1, 0
    6a94:	02 80 00 06 	be  6aac <eaddr+0x4c>
    6a98:	01 00 00 00 	nop 
    6a9c:	03 10 00 00 	sethi  %hi(0x40000000), %g1
    6aa0:	82 10 62 7c 	or  %g1, 0x27c, %g1	! 4000027c <upper_digits>
    6aa4:	c2 00 40 00 	ld  [ %g1 ], %g1
    6aa8:	c2 27 bf fc 	st  %g1, [ %fp + -4 ]
    6aac:	c0 27 bf f4 	clr  [ %fp + -12 ]
    6ab0:	c0 27 bf f8 	clr  [ %fp + -8 ]
    6ab4:	10 80 00 2f 	b  6b70 <eaddr+0x110>
    6ab8:	01 00 00 00 	nop 
    6abc:	c2 07 bf f8 	ld  [ %fp + -8 ], %g1
    6ac0:	80 a0 60 00 	cmp  %g1, 0
    6ac4:	02 80 00 09 	be  6ae8 <eaddr+0x88>
    6ac8:	01 00 00 00 	nop 
    6acc:	c2 07 bf f4 	ld  [ %fp + -12 ], %g1
    6ad0:	82 07 80 01 	add  %fp, %g1, %g1
    6ad4:	84 10 20 3a 	mov  0x3a, %g2
    6ad8:	c4 28 7f d8 	stb  %g2, [ %g1 + -40 ]
    6adc:	c2 07 bf f4 	ld  [ %fp + -12 ], %g1
    6ae0:	82 00 60 01 	inc  %g1
    6ae4:	c2 27 bf f4 	st  %g1, [ %fp + -12 ]
    6ae8:	c2 07 bf f8 	ld  [ %fp + -8 ], %g1
    6aec:	c4 07 a0 48 	ld  [ %fp + 0x48 ], %g2
    6af0:	82 00 80 01 	add  %g2, %g1, %g1
    6af4:	c2 08 40 00 	ldub  [ %g1 ], %g1
    6af8:	82 08 60 ff 	and  %g1, 0xff, %g1
    6afc:	83 30 60 04 	srl  %g1, 4, %g1
    6b00:	82 08 60 ff 	and  %g1, 0xff, %g1
    6b04:	c4 07 bf fc 	ld  [ %fp + -4 ], %g2
    6b08:	82 00 80 01 	add  %g2, %g1, %g1
    6b0c:	c4 08 40 00 	ldub  [ %g1 ], %g2
    6b10:	c2 07 bf f4 	ld  [ %fp + -12 ], %g1
    6b14:	82 07 80 01 	add  %fp, %g1, %g1
    6b18:	c4 28 7f d8 	stb  %g2, [ %g1 + -40 ]
    6b1c:	c2 07 bf f4 	ld  [ %fp + -12 ], %g1
    6b20:	82 00 60 01 	inc  %g1
    6b24:	c2 27 bf f4 	st  %g1, [ %fp + -12 ]
    6b28:	c2 07 bf f8 	ld  [ %fp + -8 ], %g1
    6b2c:	c4 07 a0 48 	ld  [ %fp + 0x48 ], %g2
    6b30:	82 00 80 01 	add  %g2, %g1, %g1
    6b34:	c2 08 40 00 	ldub  [ %g1 ], %g1
    6b38:	82 08 60 ff 	and  %g1, 0xff, %g1
    6b3c:	82 08 60 0f 	and  %g1, 0xf, %g1
    6b40:	c4 07 bf fc 	ld  [ %fp + -4 ], %g2
    6b44:	82 00 80 01 	add  %g2, %g1, %g1
    6b48:	c4 08 40 00 	ldub  [ %g1 ], %g2
    6b4c:	c2 07 bf f4 	ld  [ %fp + -12 ], %g1
    6b50:	82 07 80 01 	add  %fp, %g1, %g1
    6b54:	c4 28 7f d8 	stb  %g2, [ %g1 + -40 ]
    6b58:	c2 07 bf f4 	ld  [ %fp + -12 ], %g1
    6b5c:	82 00 60 01 	inc  %g1
    6b60:	c2 27 bf f4 	st  %g1, [ %fp + -12 ]
    6b64:	c2 07 bf f8 	ld  [ %fp + -8 ], %g1
    6b68:	82 00 60 01 	inc  %g1
    6b6c:	c2 27 bf f8 	st  %g1, [ %fp + -8 ]
    6b70:	c2 07 bf f8 	ld  [ %fp + -8 ], %g1
    6b74:	80 a0 60 05 	cmp  %g1, 5
    6b78:	04 bf ff d1 	ble  6abc <eaddr+0x5c>
    6b7c:	01 00 00 00 	nop 
    6b80:	c2 07 a0 54 	ld  [ %fp + 0x54 ], %g1
    6b84:	82 08 60 10 	and  %g1, 0x10, %g1
    6b88:	80 a0 60 00 	cmp  %g1, 0
    6b8c:	12 80 00 18 	bne  6bec <eaddr+0x18c>
    6b90:	01 00 00 00 	nop 
    6b94:	10 80 00 08 	b  6bb4 <eaddr+0x154>
    6b98:	01 00 00 00 	nop 
    6b9c:	c2 07 a0 44 	ld  [ %fp + 0x44 ], %g1
    6ba0:	84 10 20 20 	mov  0x20, %g2
    6ba4:	c4 28 40 00 	stb  %g2, [ %g1 ]
    6ba8:	c2 07 a0 44 	ld  [ %fp + 0x44 ], %g1
    6bac:	82 00 60 01 	inc  %g1
    6bb0:	c2 27 a0 44 	st  %g1, [ %fp + 0x44 ]
    6bb4:	82 10 20 01 	mov  1, %g1
    6bb8:	c6 07 a0 4c 	ld  [ %fp + 0x4c ], %g3
    6bbc:	c4 07 bf f4 	ld  [ %fp + -12 ], %g2
    6bc0:	80 a0 c0 02 	cmp  %g3, %g2
    6bc4:	14 80 00 03 	bg  6bd0 <eaddr+0x170>
    6bc8:	01 00 00 00 	nop 
    6bcc:	82 10 20 00 	clr  %g1	! 0 <_start>
    6bd0:	c4 07 a0 4c 	ld  [ %fp + 0x4c ], %g2
    6bd4:	84 00 bf ff 	add  %g2, -1, %g2
    6bd8:	c4 27 a0 4c 	st  %g2, [ %fp + 0x4c ]
    6bdc:	82 08 60 ff 	and  %g1, 0xff, %g1
    6be0:	80 a0 60 00 	cmp  %g1, 0
    6be4:	12 bf ff ee 	bne  6b9c <eaddr+0x13c>
    6be8:	01 00 00 00 	nop 
    6bec:	c0 27 bf f8 	clr  [ %fp + -8 ]
    6bf0:	10 80 00 0d 	b  6c24 <eaddr+0x1c4>
    6bf4:	01 00 00 00 	nop 
    6bf8:	c2 07 bf f8 	ld  [ %fp + -8 ], %g1
    6bfc:	82 07 80 01 	add  %fp, %g1, %g1
    6c00:	c4 08 7f d8 	ldub  [ %g1 + -40 ], %g2
    6c04:	c2 07 a0 44 	ld  [ %fp + 0x44 ], %g1
    6c08:	c4 28 40 00 	stb  %g2, [ %g1 ]
    6c0c:	c2 07 a0 44 	ld  [ %fp + 0x44 ], %g1
    6c10:	82 00 60 01 	inc  %g1
    6c14:	c2 27 a0 44 	st  %g1, [ %fp + 0x44 ]
    6c18:	c2 07 bf f8 	ld  [ %fp + -8 ], %g1
    6c1c:	82 00 60 01 	inc  %g1
    6c20:	c2 27 bf f8 	st  %g1, [ %fp + -8 ]
    6c24:	c4 07 bf f8 	ld  [ %fp + -8 ], %g2
    6c28:	c2 07 bf f4 	ld  [ %fp + -12 ], %g1
    6c2c:	80 a0 80 01 	cmp  %g2, %g1
    6c30:	06 bf ff f2 	bl  6bf8 <eaddr+0x198>
    6c34:	01 00 00 00 	nop 
    6c38:	10 80 00 08 	b  6c58 <eaddr+0x1f8>
    6c3c:	01 00 00 00 	nop 
    6c40:	c2 07 a0 44 	ld  [ %fp + 0x44 ], %g1
    6c44:	84 10 20 20 	mov  0x20, %g2
    6c48:	c4 28 40 00 	stb  %g2, [ %g1 ]
    6c4c:	c2 07 a0 44 	ld  [ %fp + 0x44 ], %g1
    6c50:	82 00 60 01 	inc  %g1
    6c54:	c2 27 a0 44 	st  %g1, [ %fp + 0x44 ]
    6c58:	82 10 20 01 	mov  1, %g1
    6c5c:	c6 07 a0 4c 	ld  [ %fp + 0x4c ], %g3
    6c60:	c4 07 bf f4 	ld  [ %fp + -12 ], %g2
    6c64:	80 a0 c0 02 	cmp  %g3, %g2
    6c68:	14 80 00 03 	bg  6c74 <eaddr+0x214>
    6c6c:	01 00 00 00 	nop 
    6c70:	82 10 20 00 	clr  %g1	! 0 <_start>
    6c74:	c4 07 a0 4c 	ld  [ %fp + 0x4c ], %g2
    6c78:	84 00 bf ff 	add  %g2, -1, %g2
    6c7c:	c4 27 a0 4c 	st  %g2, [ %fp + 0x4c ]
    6c80:	82 08 60 ff 	and  %g1, 0xff, %g1
    6c84:	80 a0 60 00 	cmp  %g1, 0
    6c88:	12 bf ff ee 	bne  6c40 <eaddr+0x1e0>
    6c8c:	01 00 00 00 	nop 
    6c90:	c2 07 a0 44 	ld  [ %fp + 0x44 ], %g1
    6c94:	b0 10 00 01 	mov  %g1, %i0
    6c98:	81 e8 00 00 	restore 
    6c9c:	81 c3 e0 08 	retl 
    6ca0:	01 00 00 00 	nop 

00006ca4 <iaddr>:
    6ca4:	9d e3 bf 78 	save  %sp, -136, %sp
    6ca8:	f0 27 a0 44 	st  %i0, [ %fp + 0x44 ]
    6cac:	f2 27 a0 48 	st  %i1, [ %fp + 0x48 ]
    6cb0:	f4 27 a0 4c 	st  %i2, [ %fp + 0x4c ]
    6cb4:	f6 27 a0 50 	st  %i3, [ %fp + 0x50 ]
    6cb8:	f8 27 a0 54 	st  %i4, [ %fp + 0x54 ]
    6cbc:	c0 27 bf f4 	clr  [ %fp + -12 ]
    6cc0:	c0 27 bf fc 	clr  [ %fp + -4 ]
    6cc4:	10 80 00 94 	b  6f14 <iaddr+0x270>
    6cc8:	01 00 00 00 	nop 
    6ccc:	c2 07 bf fc 	ld  [ %fp + -4 ], %g1
    6cd0:	80 a0 60 00 	cmp  %g1, 0
    6cd4:	02 80 00 09 	be  6cf8 <iaddr+0x54>
    6cd8:	01 00 00 00 	nop 
    6cdc:	c2 07 bf f4 	ld  [ %fp + -12 ], %g1
    6ce0:	82 07 80 01 	add  %fp, %g1, %g1
    6ce4:	84 10 20 2e 	mov  0x2e, %g2
    6ce8:	c4 28 7f d8 	stb  %g2, [ %g1 + -40 ]
    6cec:	c2 07 bf f4 	ld  [ %fp + -12 ], %g1
    6cf0:	82 00 60 01 	inc  %g1
    6cf4:	c2 27 bf f4 	st  %g1, [ %fp + -12 ]
    6cf8:	c2 07 bf fc 	ld  [ %fp + -4 ], %g1
    6cfc:	c4 07 a0 48 	ld  [ %fp + 0x48 ], %g2
    6d00:	82 00 80 01 	add  %g2, %g1, %g1
    6d04:	c2 08 40 00 	ldub  [ %g1 ], %g1
    6d08:	82 08 60 ff 	and  %g1, 0xff, %g1
    6d0c:	c2 27 bf f8 	st  %g1, [ %fp + -8 ]
    6d10:	c2 07 bf f8 	ld  [ %fp + -8 ], %g1
    6d14:	80 a0 60 00 	cmp  %g1, 0
    6d18:	12 80 00 0e 	bne  6d50 <iaddr+0xac>
    6d1c:	01 00 00 00 	nop 
    6d20:	03 10 00 00 	sethi  %hi(0x40000000), %g1
    6d24:	82 10 62 78 	or  %g1, 0x278, %g1	! 40000278 <digits>
    6d28:	c2 00 40 00 	ld  [ %g1 ], %g1
    6d2c:	c4 08 40 00 	ldub  [ %g1 ], %g2
    6d30:	c2 07 bf f4 	ld  [ %fp + -12 ], %g1
    6d34:	82 07 80 01 	add  %fp, %g1, %g1
    6d38:	c4 28 7f d8 	stb  %g2, [ %g1 + -40 ]
    6d3c:	c2 07 bf f4 	ld  [ %fp + -12 ], %g1
    6d40:	82 00 60 01 	inc  %g1
    6d44:	c2 27 bf f4 	st  %g1, [ %fp + -12 ]
    6d48:	10 80 00 70 	b  6f08 <iaddr+0x264>
    6d4c:	01 00 00 00 	nop 
    6d50:	c2 07 bf f8 	ld  [ %fp + -8 ], %g1
    6d54:	80 a0 60 63 	cmp  %g1, 0x63
    6d58:	04 80 00 3e 	ble  6e50 <iaddr+0x1ac>
    6d5c:	01 00 00 00 	nop 
    6d60:	03 10 00 00 	sethi  %hi(0x40000000), %g1
    6d64:	82 10 62 78 	or  %g1, 0x278, %g1	! 40000278 <digits>
    6d68:	c4 00 40 00 	ld  [ %g1 ], %g2
    6d6c:	c2 07 bf f8 	ld  [ %fp + -8 ], %g1
    6d70:	87 38 60 1f 	sra  %g1, 0x1f, %g3
    6d74:	81 80 e0 00 	mov  %g3, %y
    6d78:	01 00 00 00 	nop 
    6d7c:	01 00 00 00 	nop 
    6d80:	01 00 00 00 	nop 
    6d84:	82 78 60 64 	sdiv  %g1, 0x64, %g1
    6d88:	82 00 80 01 	add  %g2, %g1, %g1
    6d8c:	c4 08 40 00 	ldub  [ %g1 ], %g2
    6d90:	c2 07 bf f4 	ld  [ %fp + -12 ], %g1
    6d94:	82 07 80 01 	add  %fp, %g1, %g1
    6d98:	c4 28 7f d8 	stb  %g2, [ %g1 + -40 ]
    6d9c:	c2 07 bf f4 	ld  [ %fp + -12 ], %g1
    6da0:	82 00 60 01 	inc  %g1
    6da4:	c2 27 bf f4 	st  %g1, [ %fp + -12 ]
    6da8:	c2 07 bf f8 	ld  [ %fp + -8 ], %g1
    6dac:	87 38 60 1f 	sra  %g1, 0x1f, %g3
    6db0:	81 80 e0 00 	mov  %g3, %y
    6db4:	01 00 00 00 	nop 
    6db8:	01 00 00 00 	nop 
    6dbc:	01 00 00 00 	nop 
    6dc0:	84 78 60 64 	sdiv  %g1, 0x64, %g2
    6dc4:	84 58 a0 64 	smul  %g2, 0x64, %g2
    6dc8:	82 20 40 02 	sub  %g1, %g2, %g1
    6dcc:	c2 27 bf f8 	st  %g1, [ %fp + -8 ]
    6dd0:	03 10 00 00 	sethi  %hi(0x40000000), %g1
    6dd4:	82 10 62 78 	or  %g1, 0x278, %g1	! 40000278 <digits>
    6dd8:	c4 00 40 00 	ld  [ %g1 ], %g2
    6ddc:	c2 07 bf f8 	ld  [ %fp + -8 ], %g1
    6de0:	87 38 60 1f 	sra  %g1, 0x1f, %g3
    6de4:	81 80 e0 00 	mov  %g3, %y
    6de8:	01 00 00 00 	nop 
    6dec:	01 00 00 00 	nop 
    6df0:	01 00 00 00 	nop 
    6df4:	82 78 60 0a 	sdiv  %g1, 0xa, %g1
    6df8:	82 00 80 01 	add  %g2, %g1, %g1
    6dfc:	c4 08 40 00 	ldub  [ %g1 ], %g2
    6e00:	c2 07 bf f4 	ld  [ %fp + -12 ], %g1
    6e04:	82 07 80 01 	add  %fp, %g1, %g1
    6e08:	c4 28 7f d8 	stb  %g2, [ %g1 + -40 ]
    6e0c:	c2 07 bf f4 	ld  [ %fp + -12 ], %g1
    6e10:	82 00 60 01 	inc  %g1
    6e14:	c2 27 bf f4 	st  %g1, [ %fp + -12 ]
    6e18:	c4 07 bf f8 	ld  [ %fp + -8 ], %g2
    6e1c:	87 38 a0 1f 	sra  %g2, 0x1f, %g3
    6e20:	81 80 e0 00 	mov  %g3, %y
    6e24:	01 00 00 00 	nop 
    6e28:	01 00 00 00 	nop 
    6e2c:	01 00 00 00 	nop 
    6e30:	82 78 a0 0a 	sdiv  %g2, 0xa, %g1
    6e34:	82 00 40 01 	add  %g1, %g1, %g1
    6e38:	87 28 60 02 	sll  %g1, 2, %g3
    6e3c:	82 00 40 03 	add  %g1, %g3, %g1
    6e40:	82 20 80 01 	sub  %g2, %g1, %g1
    6e44:	c2 27 bf f8 	st  %g1, [ %fp + -8 ]
    6e48:	10 80 00 24 	b  6ed8 <iaddr+0x234>
    6e4c:	01 00 00 00 	nop 
    6e50:	c2 07 bf f8 	ld  [ %fp + -8 ], %g1
    6e54:	80 a0 60 09 	cmp  %g1, 9
    6e58:	04 80 00 20 	ble  6ed8 <iaddr+0x234>
    6e5c:	01 00 00 00 	nop 
    6e60:	03 10 00 00 	sethi  %hi(0x40000000), %g1
    6e64:	82 10 62 78 	or  %g1, 0x278, %g1	! 40000278 <digits>
    6e68:	c4 00 40 00 	ld  [ %g1 ], %g2
    6e6c:	c2 07 bf f8 	ld  [ %fp + -8 ], %g1
    6e70:	87 38 60 1f 	sra  %g1, 0x1f, %g3
    6e74:	81 80 e0 00 	mov  %g3, %y
    6e78:	01 00 00 00 	nop 
    6e7c:	01 00 00 00 	nop 
    6e80:	01 00 00 00 	nop 
    6e84:	82 78 60 0a 	sdiv  %g1, 0xa, %g1
    6e88:	82 00 80 01 	add  %g2, %g1, %g1
    6e8c:	c4 08 40 00 	ldub  [ %g1 ], %g2
    6e90:	c2 07 bf f4 	ld  [ %fp + -12 ], %g1
    6e94:	82 07 80 01 	add  %fp, %g1, %g1
    6e98:	c4 28 7f d8 	stb  %g2, [ %g1 + -40 ]
    6e9c:	c2 07 bf f4 	ld  [ %fp + -12 ], %g1
    6ea0:	82 00 60 01 	inc  %g1
    6ea4:	c2 27 bf f4 	st  %g1, [ %fp + -12 ]
    6ea8:	c4 07 bf f8 	ld  [ %fp + -8 ], %g2
    6eac:	87 38 a0 1f 	sra  %g2, 0x1f, %g3
    6eb0:	81 80 e0 00 	mov  %g3, %y
    6eb4:	01 00 00 00 	nop 
    6eb8:	01 00 00 00 	nop 
    6ebc:	01 00 00 00 	nop 
    6ec0:	82 78 a0 0a 	sdiv  %g2, 0xa, %g1
    6ec4:	82 00 40 01 	add  %g1, %g1, %g1
    6ec8:	87 28 60 02 	sll  %g1, 2, %g3
    6ecc:	82 00 40 03 	add  %g1, %g3, %g1
    6ed0:	82 20 80 01 	sub  %g2, %g1, %g1
    6ed4:	c2 27 bf f8 	st  %g1, [ %fp + -8 ]
    6ed8:	03 10 00 00 	sethi  %hi(0x40000000), %g1
    6edc:	82 10 62 78 	or  %g1, 0x278, %g1	! 40000278 <digits>
    6ee0:	c4 00 40 00 	ld  [ %g1 ], %g2
    6ee4:	c2 07 bf f8 	ld  [ %fp + -8 ], %g1
    6ee8:	82 00 80 01 	add  %g2, %g1, %g1
    6eec:	c4 08 40 00 	ldub  [ %g1 ], %g2
    6ef0:	c2 07 bf f4 	ld  [ %fp + -12 ], %g1
    6ef4:	82 07 80 01 	add  %fp, %g1, %g1
    6ef8:	c4 28 7f d8 	stb  %g2, [ %g1 + -40 ]
    6efc:	c2 07 bf f4 	ld  [ %fp + -12 ], %g1
    6f00:	82 00 60 01 	inc  %g1
    6f04:	c2 27 bf f4 	st  %g1, [ %fp + -12 ]
    6f08:	c2 07 bf fc 	ld  [ %fp + -4 ], %g1
    6f0c:	82 00 60 01 	inc  %g1
    6f10:	c2 27 bf fc 	st  %g1, [ %fp + -4 ]
    6f14:	c2 07 bf fc 	ld  [ %fp + -4 ], %g1
    6f18:	80 a0 60 03 	cmp  %g1, 3
    6f1c:	04 bf ff 6c 	ble  6ccc <iaddr+0x28>
    6f20:	01 00 00 00 	nop 
    6f24:	c2 07 a0 54 	ld  [ %fp + 0x54 ], %g1
    6f28:	82 08 60 10 	and  %g1, 0x10, %g1
    6f2c:	80 a0 60 00 	cmp  %g1, 0
    6f30:	12 80 00 18 	bne  6f90 <iaddr+0x2ec>
    6f34:	01 00 00 00 	nop 
    6f38:	10 80 00 08 	b  6f58 <iaddr+0x2b4>
    6f3c:	01 00 00 00 	nop 
    6f40:	c2 07 a0 44 	ld  [ %fp + 0x44 ], %g1
    6f44:	84 10 20 20 	mov  0x20, %g2
    6f48:	c4 28 40 00 	stb  %g2, [ %g1 ]
    6f4c:	c2 07 a0 44 	ld  [ %fp + 0x44 ], %g1
    6f50:	82 00 60 01 	inc  %g1
    6f54:	c2 27 a0 44 	st  %g1, [ %fp + 0x44 ]
    6f58:	82 10 20 01 	mov  1, %g1
    6f5c:	c6 07 a0 4c 	ld  [ %fp + 0x4c ], %g3
    6f60:	c4 07 bf f4 	ld  [ %fp + -12 ], %g2
    6f64:	80 a0 c0 02 	cmp  %g3, %g2
    6f68:	14 80 00 03 	bg  6f74 <iaddr+0x2d0>
    6f6c:	01 00 00 00 	nop 
    6f70:	82 10 20 00 	clr  %g1	! 0 <_start>
    6f74:	c4 07 a0 4c 	ld  [ %fp + 0x4c ], %g2
    6f78:	84 00 bf ff 	add  %g2, -1, %g2
    6f7c:	c4 27 a0 4c 	st  %g2, [ %fp + 0x4c ]
    6f80:	82 08 60 ff 	and  %g1, 0xff, %g1
    6f84:	80 a0 60 00 	cmp  %g1, 0
    6f88:	12 bf ff ee 	bne  6f40 <iaddr+0x29c>
    6f8c:	01 00 00 00 	nop 
    6f90:	c0 27 bf fc 	clr  [ %fp + -4 ]
    6f94:	10 80 00 0d 	b  6fc8 <iaddr+0x324>
    6f98:	01 00 00 00 	nop 
    6f9c:	c2 07 bf fc 	ld  [ %fp + -4 ], %g1
    6fa0:	82 07 80 01 	add  %fp, %g1, %g1
    6fa4:	c4 08 7f d8 	ldub  [ %g1 + -40 ], %g2
    6fa8:	c2 07 a0 44 	ld  [ %fp + 0x44 ], %g1
    6fac:	c4 28 40 00 	stb  %g2, [ %g1 ]
    6fb0:	c2 07 a0 44 	ld  [ %fp + 0x44 ], %g1
    6fb4:	82 00 60 01 	inc  %g1
    6fb8:	c2 27 a0 44 	st  %g1, [ %fp + 0x44 ]
    6fbc:	c2 07 bf fc 	ld  [ %fp + -4 ], %g1
    6fc0:	82 00 60 01 	inc  %g1
    6fc4:	c2 27 bf fc 	st  %g1, [ %fp + -4 ]
    6fc8:	c4 07 bf fc 	ld  [ %fp + -4 ], %g2
    6fcc:	c2 07 bf f4 	ld  [ %fp + -12 ], %g1
    6fd0:	80 a0 80 01 	cmp  %g2, %g1
    6fd4:	06 bf ff f2 	bl  6f9c <iaddr+0x2f8>
    6fd8:	01 00 00 00 	nop 
    6fdc:	10 80 00 08 	b  6ffc <iaddr+0x358>
    6fe0:	01 00 00 00 	nop 
    6fe4:	c2 07 a0 44 	ld  [ %fp + 0x44 ], %g1
    6fe8:	84 10 20 20 	mov  0x20, %g2
    6fec:	c4 28 40 00 	stb  %g2, [ %g1 ]
    6ff0:	c2 07 a0 44 	ld  [ %fp + 0x44 ], %g1
    6ff4:	82 00 60 01 	inc  %g1
    6ff8:	c2 27 a0 44 	st  %g1, [ %fp + 0x44 ]
    6ffc:	82 10 20 01 	mov  1, %g1
    7000:	c6 07 a0 4c 	ld  [ %fp + 0x4c ], %g3
    7004:	c4 07 bf f4 	ld  [ %fp + -12 ], %g2
    7008:	80 a0 c0 02 	cmp  %g3, %g2
    700c:	14 80 00 03 	bg  7018 <iaddr+0x374>
    7010:	01 00 00 00 	nop 
    7014:	82 10 20 00 	clr  %g1	! 0 <_start>
    7018:	c4 07 a0 4c 	ld  [ %fp + 0x4c ], %g2
    701c:	84 00 bf ff 	add  %g2, -1, %g2
    7020:	c4 27 a0 4c 	st  %g2, [ %fp + 0x4c ]
    7024:	82 08 60 ff 	and  %g1, 0xff, %g1
    7028:	80 a0 60 00 	cmp  %g1, 0
    702c:	12 bf ff ee 	bne  6fe4 <iaddr+0x340>
    7030:	01 00 00 00 	nop 
    7034:	c2 07 a0 44 	ld  [ %fp + 0x44 ], %g1
    7038:	b0 10 00 01 	mov  %g1, %i0
    703c:	81 e8 00 00 	restore 
    7040:	81 c3 e0 08 	retl 
    7044:	01 00 00 00 	nop 

00007048 <ee_vsprintf>:
    7048:	9d e3 bf 78 	save  %sp, -136, %sp
    704c:	f0 27 a0 44 	st  %i0, [ %fp + 0x44 ]
    7050:	f2 27 a0 48 	st  %i1, [ %fp + 0x48 ]
    7054:	f4 27 a0 4c 	st  %i2, [ %fp + 0x4c ]
    7058:	c2 07 a0 44 	ld  [ %fp + 0x44 ], %g1
    705c:	c2 27 bf f0 	st  %g1, [ %fp + -16 ]
    7060:	10 80 01 f5 	b  7834 <ee_vsprintf+0x7ec>
    7064:	01 00 00 00 	nop 
    7068:	c2 07 a0 48 	ld  [ %fp + 0x48 ], %g1
    706c:	c2 08 40 00 	ldub  [ %g1 ], %g1
    7070:	83 28 60 18 	sll  %g1, 0x18, %g1
    7074:	83 38 60 18 	sra  %g1, 0x18, %g1
    7078:	80 a0 60 25 	cmp  %g1, 0x25
    707c:	02 80 00 0b 	be  70a8 <ee_vsprintf+0x60>
    7080:	01 00 00 00 	nop 
    7084:	c2 07 a0 48 	ld  [ %fp + 0x48 ], %g1
    7088:	c4 08 40 00 	ldub  [ %g1 ], %g2
    708c:	c2 07 bf f0 	ld  [ %fp + -16 ], %g1
    7090:	c4 28 40 00 	stb  %g2, [ %g1 ]
    7094:	c2 07 bf f0 	ld  [ %fp + -16 ], %g1
    7098:	82 00 60 01 	inc  %g1
    709c:	c2 27 bf f0 	st  %g1, [ %fp + -16 ]
    70a0:	10 80 01 e2 	b  7828 <ee_vsprintf+0x7e0>
    70a4:	01 00 00 00 	nop 
    70a8:	c0 27 bf e8 	clr  [ %fp + -24 ]
    70ac:	c2 07 a0 48 	ld  [ %fp + 0x48 ], %g1
    70b0:	82 00 60 01 	inc  %g1
    70b4:	c2 27 a0 48 	st  %g1, [ %fp + 0x48 ]
    70b8:	c2 07 a0 48 	ld  [ %fp + 0x48 ], %g1
    70bc:	c2 08 40 00 	ldub  [ %g1 ], %g1
    70c0:	83 28 60 18 	sll  %g1, 0x18, %g1
    70c4:	83 38 60 18 	sra  %g1, 0x18, %g1
    70c8:	82 00 7f e0 	add  %g1, -32, %g1
    70cc:	80 a0 60 10 	cmp  %g1, 0x10
    70d0:	18 80 00 21 	bgu  7154 <ee_vsprintf+0x10c>
    70d4:	01 00 00 00 	nop 
    70d8:	85 28 60 02 	sll  %g1, 2, %g2
    70dc:	03 00 00 18 	sethi  %hi(0x6000), %g1
    70e0:	82 10 63 a8 	or  %g1, 0x3a8, %g1	! 63a8 <checker+0x3b0>
    70e4:	c2 00 80 01 	ld  [ %g2 + %g1 ], %g1
    70e8:	81 c0 40 00 	jmp  %g1
    70ec:	01 00 00 00 	nop 
    70f0:	c2 07 bf e8 	ld  [ %fp + -24 ], %g1
    70f4:	82 10 60 10 	or  %g1, 0x10, %g1
    70f8:	c2 27 bf e8 	st  %g1, [ %fp + -24 ]
    70fc:	10 bf ff ec 	b  70ac <ee_vsprintf+0x64>
    7100:	01 00 00 00 	nop 
    7104:	c2 07 bf e8 	ld  [ %fp + -24 ], %g1
    7108:	82 10 60 04 	or  %g1, 4, %g1
    710c:	c2 27 bf e8 	st  %g1, [ %fp + -24 ]
    7110:	10 bf ff e7 	b  70ac <ee_vsprintf+0x64>
    7114:	01 00 00 00 	nop 
    7118:	c2 07 bf e8 	ld  [ %fp + -24 ], %g1
    711c:	82 10 60 08 	or  %g1, 8, %g1
    7120:	c2 27 bf e8 	st  %g1, [ %fp + -24 ]
    7124:	10 bf ff e2 	b  70ac <ee_vsprintf+0x64>
    7128:	01 00 00 00 	nop 
    712c:	c2 07 bf e8 	ld  [ %fp + -24 ], %g1
    7130:	82 10 60 20 	or  %g1, 0x20, %g1
    7134:	c2 27 bf e8 	st  %g1, [ %fp + -24 ]
    7138:	10 bf ff dd 	b  70ac <ee_vsprintf+0x64>
    713c:	01 00 00 00 	nop 
    7140:	c2 07 bf e8 	ld  [ %fp + -24 ], %g1
    7144:	82 10 60 01 	or  %g1, 1, %g1
    7148:	c2 27 bf e8 	st  %g1, [ %fp + -24 ]
    714c:	10 bf ff d8 	b  70ac <ee_vsprintf+0x64>
    7150:	01 00 00 00 	nop 
    7154:	82 10 3f ff 	mov  -1, %g1	! ffffffff <_GLOBAL_OFFSET_TABLE_+0xbffffd7f>
    7158:	c2 27 bf e4 	st  %g1, [ %fp + -28 ]
    715c:	c2 07 a0 48 	ld  [ %fp + 0x48 ], %g1
    7160:	c2 08 40 00 	ldub  [ %g1 ], %g1
    7164:	83 28 60 18 	sll  %g1, 0x18, %g1
    7168:	83 38 60 18 	sra  %g1, 0x18, %g1
    716c:	80 a0 60 2f 	cmp  %g1, 0x2f
    7170:	04 80 00 10 	ble  71b0 <ee_vsprintf+0x168>
    7174:	01 00 00 00 	nop 
    7178:	c2 07 a0 48 	ld  [ %fp + 0x48 ], %g1
    717c:	c2 08 40 00 	ldub  [ %g1 ], %g1
    7180:	83 28 60 18 	sll  %g1, 0x18, %g1
    7184:	83 38 60 18 	sra  %g1, 0x18, %g1
    7188:	80 a0 60 39 	cmp  %g1, 0x39
    718c:	14 80 00 09 	bg  71b0 <ee_vsprintf+0x168>
    7190:	01 00 00 00 	nop 
    7194:	82 07 a0 48 	add  %fp, 0x48, %g1
    7198:	90 10 00 01 	mov  %g1, %o0
    719c:	7f ff fc b7 	call  6478 <skip_atoi>
    71a0:	01 00 00 00 	nop 
    71a4:	d0 27 bf e4 	st  %o0, [ %fp + -28 ]
    71a8:	10 80 00 1c 	b  7218 <ee_vsprintf+0x1d0>
    71ac:	01 00 00 00 	nop 
    71b0:	c2 07 a0 48 	ld  [ %fp + 0x48 ], %g1
    71b4:	c2 08 40 00 	ldub  [ %g1 ], %g1
    71b8:	83 28 60 18 	sll  %g1, 0x18, %g1
    71bc:	83 38 60 18 	sra  %g1, 0x18, %g1
    71c0:	80 a0 60 2a 	cmp  %g1, 0x2a
    71c4:	12 80 00 15 	bne  7218 <ee_vsprintf+0x1d0>
    71c8:	01 00 00 00 	nop 
    71cc:	c2 07 a0 48 	ld  [ %fp + 0x48 ], %g1
    71d0:	82 00 60 01 	inc  %g1
    71d4:	c2 27 a0 48 	st  %g1, [ %fp + 0x48 ]
    71d8:	c2 07 a0 4c 	ld  [ %fp + 0x4c ], %g1
    71dc:	c2 00 40 00 	ld  [ %g1 ], %g1
    71e0:	c2 27 bf e4 	st  %g1, [ %fp + -28 ]
    71e4:	c2 07 a0 4c 	ld  [ %fp + 0x4c ], %g1
    71e8:	82 00 60 04 	add  %g1, 4, %g1
    71ec:	c2 27 a0 4c 	st  %g1, [ %fp + 0x4c ]
    71f0:	c2 07 bf e4 	ld  [ %fp + -28 ], %g1
    71f4:	80 a0 60 00 	cmp  %g1, 0
    71f8:	16 80 00 08 	bge  7218 <ee_vsprintf+0x1d0>
    71fc:	01 00 00 00 	nop 
    7200:	c2 07 bf e4 	ld  [ %fp + -28 ], %g1
    7204:	82 20 00 01 	neg  %g1
    7208:	c2 27 bf e4 	st  %g1, [ %fp + -28 ]
    720c:	c2 07 bf e8 	ld  [ %fp + -24 ], %g1
    7210:	82 10 60 10 	or  %g1, 0x10, %g1
    7214:	c2 27 bf e8 	st  %g1, [ %fp + -24 ]
    7218:	82 10 3f ff 	mov  -1, %g1
    721c:	c2 27 bf e0 	st  %g1, [ %fp + -32 ]
    7220:	c2 07 a0 48 	ld  [ %fp + 0x48 ], %g1
    7224:	c2 08 40 00 	ldub  [ %g1 ], %g1
    7228:	83 28 60 18 	sll  %g1, 0x18, %g1
    722c:	83 38 60 18 	sra  %g1, 0x18, %g1
    7230:	80 a0 60 2e 	cmp  %g1, 0x2e
    7234:	12 80 00 2f 	bne  72f0 <ee_vsprintf+0x2a8>
    7238:	01 00 00 00 	nop 
    723c:	c2 07 a0 48 	ld  [ %fp + 0x48 ], %g1
    7240:	82 00 60 01 	inc  %g1
    7244:	c2 27 a0 48 	st  %g1, [ %fp + 0x48 ]
    7248:	c2 07 a0 48 	ld  [ %fp + 0x48 ], %g1
    724c:	c2 08 40 00 	ldub  [ %g1 ], %g1
    7250:	83 28 60 18 	sll  %g1, 0x18, %g1
    7254:	83 38 60 18 	sra  %g1, 0x18, %g1
    7258:	80 a0 60 2f 	cmp  %g1, 0x2f
    725c:	04 80 00 10 	ble  729c <ee_vsprintf+0x254>
    7260:	01 00 00 00 	nop 
    7264:	c2 07 a0 48 	ld  [ %fp + 0x48 ], %g1
    7268:	c2 08 40 00 	ldub  [ %g1 ], %g1
    726c:	83 28 60 18 	sll  %g1, 0x18, %g1
    7270:	83 38 60 18 	sra  %g1, 0x18, %g1
    7274:	80 a0 60 39 	cmp  %g1, 0x39
    7278:	14 80 00 09 	bg  729c <ee_vsprintf+0x254>
    727c:	01 00 00 00 	nop 
    7280:	82 07 a0 48 	add  %fp, 0x48, %g1
    7284:	90 10 00 01 	mov  %g1, %o0
    7288:	7f ff fc 7c 	call  6478 <skip_atoi>
    728c:	01 00 00 00 	nop 
    7290:	d0 27 bf e0 	st  %o0, [ %fp + -32 ]
    7294:	10 80 00 12 	b  72dc <ee_vsprintf+0x294>
    7298:	01 00 00 00 	nop 
    729c:	c2 07 a0 48 	ld  [ %fp + 0x48 ], %g1
    72a0:	c2 08 40 00 	ldub  [ %g1 ], %g1
    72a4:	83 28 60 18 	sll  %g1, 0x18, %g1
    72a8:	83 38 60 18 	sra  %g1, 0x18, %g1
    72ac:	80 a0 60 2a 	cmp  %g1, 0x2a
    72b0:	12 80 00 0b 	bne  72dc <ee_vsprintf+0x294>
    72b4:	01 00 00 00 	nop 
    72b8:	c2 07 a0 48 	ld  [ %fp + 0x48 ], %g1
    72bc:	82 00 60 01 	inc  %g1
    72c0:	c2 27 a0 48 	st  %g1, [ %fp + 0x48 ]
    72c4:	c2 07 a0 4c 	ld  [ %fp + 0x4c ], %g1
    72c8:	c2 00 40 00 	ld  [ %g1 ], %g1
    72cc:	c2 27 bf e0 	st  %g1, [ %fp + -32 ]
    72d0:	c2 07 a0 4c 	ld  [ %fp + 0x4c ], %g1
    72d4:	82 00 60 04 	add  %g1, 4, %g1
    72d8:	c2 27 a0 4c 	st  %g1, [ %fp + 0x4c ]
    72dc:	c2 07 bf e0 	ld  [ %fp + -32 ], %g1
    72e0:	80 a0 60 00 	cmp  %g1, 0
    72e4:	16 80 00 03 	bge  72f0 <ee_vsprintf+0x2a8>
    72e8:	01 00 00 00 	nop 
    72ec:	c0 27 bf e0 	clr  [ %fp + -32 ]
    72f0:	82 10 3f ff 	mov  -1, %g1
    72f4:	c2 27 bf dc 	st  %g1, [ %fp + -36 ]
    72f8:	c2 07 a0 48 	ld  [ %fp + 0x48 ], %g1
    72fc:	c2 08 40 00 	ldub  [ %g1 ], %g1
    7300:	83 28 60 18 	sll  %g1, 0x18, %g1
    7304:	83 38 60 18 	sra  %g1, 0x18, %g1
    7308:	80 a0 60 6c 	cmp  %g1, 0x6c
    730c:	02 80 00 09 	be  7330 <ee_vsprintf+0x2e8>
    7310:	01 00 00 00 	nop 
    7314:	c2 07 a0 48 	ld  [ %fp + 0x48 ], %g1
    7318:	c2 08 40 00 	ldub  [ %g1 ], %g1
    731c:	83 28 60 18 	sll  %g1, 0x18, %g1
    7320:	83 38 60 18 	sra  %g1, 0x18, %g1
    7324:	80 a0 60 4c 	cmp  %g1, 0x4c
    7328:	12 80 00 0a 	bne  7350 <ee_vsprintf+0x308>
    732c:	01 00 00 00 	nop 
    7330:	c2 07 a0 48 	ld  [ %fp + 0x48 ], %g1
    7334:	c2 08 40 00 	ldub  [ %g1 ], %g1
    7338:	83 28 60 18 	sll  %g1, 0x18, %g1
    733c:	83 38 60 18 	sra  %g1, 0x18, %g1
    7340:	c2 27 bf dc 	st  %g1, [ %fp + -36 ]
    7344:	c2 07 a0 48 	ld  [ %fp + 0x48 ], %g1
    7348:	82 00 60 01 	inc  %g1
    734c:	c2 27 a0 48 	st  %g1, [ %fp + 0x48 ]
    7350:	82 10 20 0a 	mov  0xa, %g1
    7354:	c2 27 bf f4 	st  %g1, [ %fp + -12 ]
    7358:	c2 07 a0 48 	ld  [ %fp + 0x48 ], %g1
    735c:	c2 08 40 00 	ldub  [ %g1 ], %g1
    7360:	83 28 60 18 	sll  %g1, 0x18, %g1
    7364:	83 38 60 18 	sra  %g1, 0x18, %g1
    7368:	82 00 7f bf 	add  %g1, -65, %g1
    736c:	80 a0 60 37 	cmp  %g1, 0x37
    7370:	18 80 00 e2 	bgu  76f8 <ee_vsprintf+0x6b0>
    7374:	01 00 00 00 	nop 
    7378:	85 28 60 02 	sll  %g1, 2, %g2
    737c:	03 00 00 18 	sethi  %hi(0x6000), %g1
    7380:	82 10 62 c8 	or  %g1, 0x2c8, %g1	! 62c8 <checker+0x2d0>
    7384:	c2 00 80 01 	ld  [ %g2 + %g1 ], %g1
    7388:	81 c0 40 00 	jmp  %g1
    738c:	01 00 00 00 	nop 
    7390:	c2 07 bf e8 	ld  [ %fp + -24 ], %g1
    7394:	82 08 60 10 	and  %g1, 0x10, %g1
    7398:	80 a0 60 00 	cmp  %g1, 0
    739c:	12 80 00 11 	bne  73e0 <ee_vsprintf+0x398>
    73a0:	01 00 00 00 	nop 
    73a4:	10 80 00 08 	b  73c4 <ee_vsprintf+0x37c>
    73a8:	01 00 00 00 	nop 
    73ac:	c2 07 bf f0 	ld  [ %fp + -16 ], %g1
    73b0:	84 10 20 20 	mov  0x20, %g2
    73b4:	c4 28 40 00 	stb  %g2, [ %g1 ]
    73b8:	c2 07 bf f0 	ld  [ %fp + -16 ], %g1
    73bc:	82 00 60 01 	inc  %g1
    73c0:	c2 27 bf f0 	st  %g1, [ %fp + -16 ]
    73c4:	c2 07 bf e4 	ld  [ %fp + -28 ], %g1
    73c8:	82 00 7f ff 	add  %g1, -1, %g1
    73cc:	c2 27 bf e4 	st  %g1, [ %fp + -28 ]
    73d0:	c2 07 bf e4 	ld  [ %fp + -28 ], %g1
    73d4:	80 a0 60 00 	cmp  %g1, 0
    73d8:	14 bf ff f5 	bg  73ac <ee_vsprintf+0x364>
    73dc:	01 00 00 00 	nop 
    73e0:	c2 07 a0 4c 	ld  [ %fp + 0x4c ], %g1
    73e4:	c2 00 40 00 	ld  [ %g1 ], %g1
    73e8:	84 10 00 01 	mov  %g1, %g2
    73ec:	c2 07 bf f0 	ld  [ %fp + -16 ], %g1
    73f0:	c4 28 40 00 	stb  %g2, [ %g1 ]
    73f4:	c2 07 bf f0 	ld  [ %fp + -16 ], %g1
    73f8:	82 00 60 01 	inc  %g1
    73fc:	c2 27 bf f0 	st  %g1, [ %fp + -16 ]
    7400:	c2 07 a0 4c 	ld  [ %fp + 0x4c ], %g1
    7404:	82 00 60 04 	add  %g1, 4, %g1
    7408:	c2 27 a0 4c 	st  %g1, [ %fp + 0x4c ]
    740c:	10 80 00 08 	b  742c <ee_vsprintf+0x3e4>
    7410:	01 00 00 00 	nop 
    7414:	c2 07 bf f0 	ld  [ %fp + -16 ], %g1
    7418:	84 10 20 20 	mov  0x20, %g2
    741c:	c4 28 40 00 	stb  %g2, [ %g1 ]
    7420:	c2 07 bf f0 	ld  [ %fp + -16 ], %g1
    7424:	82 00 60 01 	inc  %g1
    7428:	c2 27 bf f0 	st  %g1, [ %fp + -16 ]
    742c:	c2 07 bf e4 	ld  [ %fp + -28 ], %g1
    7430:	82 00 7f ff 	add  %g1, -1, %g1
    7434:	c2 27 bf e4 	st  %g1, [ %fp + -28 ]
    7438:	c2 07 bf e4 	ld  [ %fp + -28 ], %g1
    743c:	80 a0 60 00 	cmp  %g1, 0
    7440:	14 bf ff f5 	bg  7414 <ee_vsprintf+0x3cc>
    7444:	01 00 00 00 	nop 
    7448:	10 80 00 f8 	b  7828 <ee_vsprintf+0x7e0>
    744c:	01 00 00 00 	nop 
    7450:	c2 07 a0 4c 	ld  [ %fp + 0x4c ], %g1
    7454:	c2 00 40 00 	ld  [ %g1 ], %g1
    7458:	c2 27 bf ec 	st  %g1, [ %fp + -20 ]
    745c:	c2 07 a0 4c 	ld  [ %fp + 0x4c ], %g1
    7460:	82 00 60 04 	add  %g1, 4, %g1
    7464:	c2 27 a0 4c 	st  %g1, [ %fp + 0x4c ]
    7468:	c2 07 bf ec 	ld  [ %fp + -20 ], %g1
    746c:	80 a0 60 00 	cmp  %g1, 0
    7470:	12 80 00 05 	bne  7484 <ee_vsprintf+0x43c>
    7474:	01 00 00 00 	nop 
    7478:	03 10 00 00 	sethi  %hi(0x40000000), %g1
    747c:	82 10 61 30 	or  %g1, 0x130, %g1	! 40000130 <__sparc_get_pc_thunk.l7+0x3fff6144>
    7480:	c2 27 bf ec 	st  %g1, [ %fp + -20 ]
    7484:	c2 07 bf e0 	ld  [ %fp + -32 ], %g1
    7488:	d0 07 bf ec 	ld  [ %fp + -20 ], %o0
    748c:	92 10 00 01 	mov  %g1, %o1
    7490:	7f ff fb d7 	call  63ec <strnlen>
    7494:	01 00 00 00 	nop 
    7498:	82 10 00 08 	mov  %o0, %g1
    749c:	c2 27 bf d8 	st  %g1, [ %fp + -40 ]
    74a0:	c2 07 bf e8 	ld  [ %fp + -24 ], %g1
    74a4:	82 08 60 10 	and  %g1, 0x10, %g1
    74a8:	80 a0 60 00 	cmp  %g1, 0
    74ac:	12 80 00 18 	bne  750c <ee_vsprintf+0x4c4>
    74b0:	01 00 00 00 	nop 
    74b4:	10 80 00 08 	b  74d4 <ee_vsprintf+0x48c>
    74b8:	01 00 00 00 	nop 
    74bc:	c2 07 bf f0 	ld  [ %fp + -16 ], %g1
    74c0:	84 10 20 20 	mov  0x20, %g2
    74c4:	c4 28 40 00 	stb  %g2, [ %g1 ]
    74c8:	c2 07 bf f0 	ld  [ %fp + -16 ], %g1
    74cc:	82 00 60 01 	inc  %g1
    74d0:	c2 27 bf f0 	st  %g1, [ %fp + -16 ]
    74d4:	82 10 20 01 	mov  1, %g1
    74d8:	c6 07 bf e4 	ld  [ %fp + -28 ], %g3
    74dc:	c4 07 bf d8 	ld  [ %fp + -40 ], %g2
    74e0:	80 a0 c0 02 	cmp  %g3, %g2
    74e4:	14 80 00 03 	bg  74f0 <ee_vsprintf+0x4a8>
    74e8:	01 00 00 00 	nop 
    74ec:	82 10 20 00 	clr  %g1	! 0 <_start>
    74f0:	c4 07 bf e4 	ld  [ %fp + -28 ], %g2
    74f4:	84 00 bf ff 	add  %g2, -1, %g2
    74f8:	c4 27 bf e4 	st  %g2, [ %fp + -28 ]
    74fc:	82 08 60 ff 	and  %g1, 0xff, %g1
    7500:	80 a0 60 00 	cmp  %g1, 0
    7504:	12 bf ff ee 	bne  74bc <ee_vsprintf+0x474>
    7508:	01 00 00 00 	nop 
    750c:	c0 27 bf f8 	clr  [ %fp + -8 ]
    7510:	10 80 00 0f 	b  754c <ee_vsprintf+0x504>
    7514:	01 00 00 00 	nop 
    7518:	c2 07 bf ec 	ld  [ %fp + -20 ], %g1
    751c:	c4 08 40 00 	ldub  [ %g1 ], %g2
    7520:	c2 07 bf f0 	ld  [ %fp + -16 ], %g1
    7524:	c4 28 40 00 	stb  %g2, [ %g1 ]
    7528:	c2 07 bf f0 	ld  [ %fp + -16 ], %g1
    752c:	82 00 60 01 	inc  %g1
    7530:	c2 27 bf f0 	st  %g1, [ %fp + -16 ]
    7534:	c2 07 bf ec 	ld  [ %fp + -20 ], %g1
    7538:	82 00 60 01 	inc  %g1
    753c:	c2 27 bf ec 	st  %g1, [ %fp + -20 ]
    7540:	c2 07 bf f8 	ld  [ %fp + -8 ], %g1
    7544:	82 00 60 01 	inc  %g1
    7548:	c2 27 bf f8 	st  %g1, [ %fp + -8 ]
    754c:	c4 07 bf f8 	ld  [ %fp + -8 ], %g2
    7550:	c2 07 bf d8 	ld  [ %fp + -40 ], %g1
    7554:	80 a0 80 01 	cmp  %g2, %g1
    7558:	06 bf ff f0 	bl  7518 <ee_vsprintf+0x4d0>
    755c:	01 00 00 00 	nop 
    7560:	10 80 00 08 	b  7580 <ee_vsprintf+0x538>
    7564:	01 00 00 00 	nop 
    7568:	c2 07 bf f0 	ld  [ %fp + -16 ], %g1
    756c:	84 10 20 20 	mov  0x20, %g2
    7570:	c4 28 40 00 	stb  %g2, [ %g1 ]
    7574:	c2 07 bf f0 	ld  [ %fp + -16 ], %g1
    7578:	82 00 60 01 	inc  %g1
    757c:	c2 27 bf f0 	st  %g1, [ %fp + -16 ]
    7580:	82 10 20 01 	mov  1, %g1
    7584:	c6 07 bf e4 	ld  [ %fp + -28 ], %g3
    7588:	c4 07 bf d8 	ld  [ %fp + -40 ], %g2
    758c:	80 a0 c0 02 	cmp  %g3, %g2
    7590:	14 80 00 03 	bg  759c <ee_vsprintf+0x554>
    7594:	01 00 00 00 	nop 
    7598:	82 10 20 00 	clr  %g1	! 0 <_start>
    759c:	c4 07 bf e4 	ld  [ %fp + -28 ], %g2
    75a0:	84 00 bf ff 	add  %g2, -1, %g2
    75a4:	c4 27 bf e4 	st  %g2, [ %fp + -28 ]
    75a8:	82 08 60 ff 	and  %g1, 0xff, %g1
    75ac:	80 a0 60 00 	cmp  %g1, 0
    75b0:	12 bf ff ee 	bne  7568 <ee_vsprintf+0x520>
    75b4:	01 00 00 00 	nop 
    75b8:	10 80 00 9c 	b  7828 <ee_vsprintf+0x7e0>
    75bc:	01 00 00 00 	nop 
    75c0:	c2 07 bf e4 	ld  [ %fp + -28 ], %g1
    75c4:	80 a0 7f ff 	cmp  %g1, -1
    75c8:	12 80 00 07 	bne  75e4 <ee_vsprintf+0x59c>
    75cc:	01 00 00 00 	nop 
    75d0:	82 10 20 08 	mov  8, %g1	! 8 <_start+0x8>
    75d4:	c2 27 bf e4 	st  %g1, [ %fp + -28 ]
    75d8:	c2 07 bf e8 	ld  [ %fp + -24 ], %g1
    75dc:	82 10 60 01 	or  %g1, 1, %g1
    75e0:	c2 27 bf e8 	st  %g1, [ %fp + -24 ]
    75e4:	c2 07 a0 4c 	ld  [ %fp + 0x4c ], %g1
    75e8:	c2 00 40 00 	ld  [ %g1 ], %g1
    75ec:	c4 07 a0 4c 	ld  [ %fp + 0x4c ], %g2
    75f0:	84 00 a0 04 	add  %g2, 4, %g2
    75f4:	c4 27 a0 4c 	st  %g2, [ %fp + 0x4c ]
    75f8:	d0 07 bf f0 	ld  [ %fp + -16 ], %o0
    75fc:	92 10 00 01 	mov  %g1, %o1
    7600:	94 10 20 10 	mov  0x10, %o2
    7604:	d6 07 bf e4 	ld  [ %fp + -28 ], %o3
    7608:	d8 07 bf e0 	ld  [ %fp + -32 ], %o4
    760c:	da 07 bf e8 	ld  [ %fp + -24 ], %o5
    7610:	7f ff fb c3 	call  651c <number>
    7614:	01 00 00 00 	nop 
    7618:	d0 27 bf f0 	st  %o0, [ %fp + -16 ]
    761c:	10 80 00 83 	b  7828 <ee_vsprintf+0x7e0>
    7620:	01 00 00 00 	nop 
    7624:	c2 07 bf e8 	ld  [ %fp + -24 ], %g1
    7628:	82 10 60 40 	or  %g1, 0x40, %g1
    762c:	c2 27 bf e8 	st  %g1, [ %fp + -24 ]
    7630:	c2 07 bf dc 	ld  [ %fp + -36 ], %g1
    7634:	80 a0 60 6c 	cmp  %g1, 0x6c
    7638:	12 80 00 11 	bne  767c <ee_vsprintf+0x634>
    763c:	01 00 00 00 	nop 
    7640:	c2 07 a0 4c 	ld  [ %fp + 0x4c ], %g1
    7644:	c2 00 40 00 	ld  [ %g1 ], %g1
    7648:	c4 07 a0 4c 	ld  [ %fp + 0x4c ], %g2
    764c:	84 00 a0 04 	add  %g2, 4, %g2
    7650:	c4 27 a0 4c 	st  %g2, [ %fp + 0x4c ]
    7654:	d0 07 bf f0 	ld  [ %fp + -16 ], %o0
    7658:	92 10 00 01 	mov  %g1, %o1
    765c:	d4 07 bf e4 	ld  [ %fp + -28 ], %o2
    7660:	d6 07 bf e0 	ld  [ %fp + -32 ], %o3
    7664:	d8 07 bf e8 	ld  [ %fp + -24 ], %o4
    7668:	7f ff fc fe 	call  6a60 <eaddr>
    766c:	01 00 00 00 	nop 
    7670:	d0 27 bf f0 	st  %o0, [ %fp + -16 ]
    7674:	10 80 00 6d 	b  7828 <ee_vsprintf+0x7e0>
    7678:	01 00 00 00 	nop 
    767c:	c2 07 a0 4c 	ld  [ %fp + 0x4c ], %g1
    7680:	c2 00 40 00 	ld  [ %g1 ], %g1
    7684:	c4 07 a0 4c 	ld  [ %fp + 0x4c ], %g2
    7688:	84 00 a0 04 	add  %g2, 4, %g2
    768c:	c4 27 a0 4c 	st  %g2, [ %fp + 0x4c ]
    7690:	d0 07 bf f0 	ld  [ %fp + -16 ], %o0
    7694:	92 10 00 01 	mov  %g1, %o1
    7698:	d4 07 bf e4 	ld  [ %fp + -28 ], %o2
    769c:	d6 07 bf e0 	ld  [ %fp + -32 ], %o3
    76a0:	d8 07 bf e8 	ld  [ %fp + -24 ], %o4
    76a4:	7f ff fd 80 	call  6ca4 <iaddr>
    76a8:	01 00 00 00 	nop 
    76ac:	d0 27 bf f0 	st  %o0, [ %fp + -16 ]
    76b0:	10 80 00 5e 	b  7828 <ee_vsprintf+0x7e0>
    76b4:	01 00 00 00 	nop 
    76b8:	82 10 20 08 	mov  8, %g1	! 8 <_start+0x8>
    76bc:	c2 27 bf f4 	st  %g1, [ %fp + -12 ]
    76c0:	10 80 00 31 	b  7784 <ee_vsprintf+0x73c>
    76c4:	01 00 00 00 	nop 
    76c8:	c2 07 bf e8 	ld  [ %fp + -24 ], %g1
    76cc:	82 10 60 40 	or  %g1, 0x40, %g1
    76d0:	c2 27 bf e8 	st  %g1, [ %fp + -24 ]
    76d4:	82 10 20 10 	mov  0x10, %g1
    76d8:	c2 27 bf f4 	st  %g1, [ %fp + -12 ]
    76dc:	10 80 00 2a 	b  7784 <ee_vsprintf+0x73c>
    76e0:	01 00 00 00 	nop 
    76e4:	c2 07 bf e8 	ld  [ %fp + -24 ], %g1
    76e8:	82 10 60 02 	or  %g1, 2, %g1
    76ec:	c2 27 bf e8 	st  %g1, [ %fp + -24 ]
    76f0:	10 80 00 24 	b  7780 <ee_vsprintf+0x738>
    76f4:	01 00 00 00 	nop 
    76f8:	c2 07 a0 48 	ld  [ %fp + 0x48 ], %g1
    76fc:	c2 08 40 00 	ldub  [ %g1 ], %g1
    7700:	83 28 60 18 	sll  %g1, 0x18, %g1
    7704:	83 38 60 18 	sra  %g1, 0x18, %g1
    7708:	80 a0 60 25 	cmp  %g1, 0x25
    770c:	02 80 00 08 	be  772c <ee_vsprintf+0x6e4>
    7710:	01 00 00 00 	nop 
    7714:	c2 07 bf f0 	ld  [ %fp + -16 ], %g1
    7718:	84 10 20 25 	mov  0x25, %g2
    771c:	c4 28 40 00 	stb  %g2, [ %g1 ]
    7720:	c2 07 bf f0 	ld  [ %fp + -16 ], %g1
    7724:	82 00 60 01 	inc  %g1
    7728:	c2 27 bf f0 	st  %g1, [ %fp + -16 ]
    772c:	c2 07 a0 48 	ld  [ %fp + 0x48 ], %g1
    7730:	c2 08 40 00 	ldub  [ %g1 ], %g1
    7734:	83 28 60 18 	sll  %g1, 0x18, %g1
    7738:	83 38 60 18 	sra  %g1, 0x18, %g1
    773c:	80 a0 60 00 	cmp  %g1, 0
    7740:	02 80 00 0b 	be  776c <ee_vsprintf+0x724>
    7744:	01 00 00 00 	nop 
    7748:	c2 07 a0 48 	ld  [ %fp + 0x48 ], %g1
    774c:	c4 08 40 00 	ldub  [ %g1 ], %g2
    7750:	c2 07 bf f0 	ld  [ %fp + -16 ], %g1
    7754:	c4 28 40 00 	stb  %g2, [ %g1 ]
    7758:	c2 07 bf f0 	ld  [ %fp + -16 ], %g1
    775c:	82 00 60 01 	inc  %g1
    7760:	c2 27 bf f0 	st  %g1, [ %fp + -16 ]
    7764:	10 80 00 31 	b  7828 <ee_vsprintf+0x7e0>
    7768:	01 00 00 00 	nop 
    776c:	c2 07 a0 48 	ld  [ %fp + 0x48 ], %g1
    7770:	82 00 7f ff 	add  %g1, -1, %g1
    7774:	c2 27 a0 48 	st  %g1, [ %fp + 0x48 ]
    7778:	10 80 00 2c 	b  7828 <ee_vsprintf+0x7e0>
    777c:	01 00 00 00 	nop 
    7780:	01 00 00 00 	nop 
    7784:	c2 07 bf dc 	ld  [ %fp + -36 ], %g1
    7788:	80 a0 60 6c 	cmp  %g1, 0x6c
    778c:	12 80 00 0a 	bne  77b4 <ee_vsprintf+0x76c>
    7790:	01 00 00 00 	nop 
    7794:	c2 07 a0 4c 	ld  [ %fp + 0x4c ], %g1
    7798:	c2 00 40 00 	ld  [ %g1 ], %g1
    779c:	c2 27 bf fc 	st  %g1, [ %fp + -4 ]
    77a0:	c2 07 a0 4c 	ld  [ %fp + 0x4c ], %g1
    77a4:	82 00 60 04 	add  %g1, 4, %g1
    77a8:	c2 27 a0 4c 	st  %g1, [ %fp + 0x4c ]
    77ac:	10 80 00 15 	b  7800 <ee_vsprintf+0x7b8>
    77b0:	01 00 00 00 	nop 
    77b4:	c2 07 bf e8 	ld  [ %fp + -24 ], %g1
    77b8:	82 08 60 02 	and  %g1, 2, %g1
    77bc:	80 a0 60 00 	cmp  %g1, 0
    77c0:	02 80 00 0a 	be  77e8 <ee_vsprintf+0x7a0>
    77c4:	01 00 00 00 	nop 
    77c8:	c2 07 a0 4c 	ld  [ %fp + 0x4c ], %g1
    77cc:	c2 00 40 00 	ld  [ %g1 ], %g1
    77d0:	c2 27 bf fc 	st  %g1, [ %fp + -4 ]
    77d4:	c2 07 a0 4c 	ld  [ %fp + 0x4c ], %g1
    77d8:	82 00 60 04 	add  %g1, 4, %g1
    77dc:	c2 27 a0 4c 	st  %g1, [ %fp + 0x4c ]
    77e0:	10 80 00 08 	b  7800 <ee_vsprintf+0x7b8>
    77e4:	01 00 00 00 	nop 
    77e8:	c2 07 a0 4c 	ld  [ %fp + 0x4c ], %g1
    77ec:	c2 00 40 00 	ld  [ %g1 ], %g1
    77f0:	c2 27 bf fc 	st  %g1, [ %fp + -4 ]
    77f4:	c2 07 a0 4c 	ld  [ %fp + 0x4c ], %g1
    77f8:	82 00 60 04 	add  %g1, 4, %g1
    77fc:	c2 27 a0 4c 	st  %g1, [ %fp + 0x4c ]
    7800:	c2 07 bf fc 	ld  [ %fp + -4 ], %g1
    7804:	d0 07 bf f0 	ld  [ %fp + -16 ], %o0
    7808:	92 10 00 01 	mov  %g1, %o1
    780c:	d4 07 bf f4 	ld  [ %fp + -12 ], %o2
    7810:	d6 07 bf e4 	ld  [ %fp + -28 ], %o3
    7814:	d8 07 bf e0 	ld  [ %fp + -32 ], %o4
    7818:	da 07 bf e8 	ld  [ %fp + -24 ], %o5
    781c:	7f ff fb 40 	call  651c <number>
    7820:	01 00 00 00 	nop 
    7824:	d0 27 bf f0 	st  %o0, [ %fp + -16 ]
    7828:	c2 07 a0 48 	ld  [ %fp + 0x48 ], %g1
    782c:	82 00 60 01 	inc  %g1
    7830:	c2 27 a0 48 	st  %g1, [ %fp + 0x48 ]
    7834:	c2 07 a0 48 	ld  [ %fp + 0x48 ], %g1
    7838:	c2 08 40 00 	ldub  [ %g1 ], %g1
    783c:	83 28 60 18 	sll  %g1, 0x18, %g1
    7840:	83 38 60 18 	sra  %g1, 0x18, %g1
    7844:	80 a0 60 00 	cmp  %g1, 0
    7848:	12 bf fe 08 	bne  7068 <ee_vsprintf+0x20>
    784c:	01 00 00 00 	nop 
    7850:	c2 07 bf f0 	ld  [ %fp + -16 ], %g1
    7854:	c0 28 40 00 	clrb  [ %g1 ]
    7858:	c4 07 bf f0 	ld  [ %fp + -16 ], %g2
    785c:	c2 07 a0 44 	ld  [ %fp + 0x44 ], %g1
    7860:	82 20 80 01 	sub  %g2, %g1, %g1
    7864:	b0 10 00 01 	mov  %g1, %i0
    7868:	81 e8 00 00 	restore 
    786c:	81 c3 e0 08 	retl 
    7870:	01 00 00 00 	nop 

00007874 <uart_send_char>:
    7874:	9d e3 bf 98 	save  %sp, -104, %sp
    7878:	82 10 00 18 	mov  %i0, %g1
    787c:	c2 2f a0 44 	stb  %g1, [ %fp + 0x44 ]
    7880:	10 80 00 03 	b  788c <uart_send_char+0x18>
    7884:	01 00 00 00 	nop 
    7888:	01 00 00 00 	nop 
    788c:	c2 0f a0 44 	ldub  [ %fp + 0x44 ], %g1
    7890:	83 28 60 18 	sll  %g1, 0x18, %g1
    7894:	83 38 60 18 	sra  %g1, 0x18, %g1
    7898:	90 10 00 01 	mov  %g1, %o0
    789c:	40 00 02 66 	call  8234 <__ajit_serial_putchar__>
    78a0:	01 00 00 00 	nop 
    78a4:	d0 27 bf fc 	st  %o0, [ %fp + -4 ]
    78a8:	c2 07 bf fc 	ld  [ %fp + -4 ], %g1
    78ac:	80 a0 60 00 	cmp  %g1, 0
    78b0:	02 bf ff f6 	be  7888 <uart_send_char+0x14>
    78b4:	01 00 00 00 	nop 
    78b8:	01 00 00 00 	nop 
    78bc:	10 80 00 03 	b  78c8 <uart_send_char+0x54>
    78c0:	01 00 00 00 	nop 
    78c4:	01 00 00 00 	nop 
    78c8:	c0 27 bf f8 	clr  [ %fp + -8 ]
    78cc:	03 3f ff cc 	sethi  %hi(0xffff3000), %g1
    78d0:	82 10 62 00 	or  %g1, 0x200, %g1	! ffff3200 <_GLOBAL_OFFSET_TABLE_+0xbfff2f80>
    78d4:	fa 80 44 00 	lda  [ %g1 ] #ASI_SCRATCHPAD, %i5
    78d8:	fa 27 bf f8 	st  %i5, [ %fp + -8 ]
    78dc:	c2 07 bf f8 	ld  [ %fp + -8 ], %g1
    78e0:	82 08 60 08 	and  %g1, 8, %g1
    78e4:	80 a0 60 00 	cmp  %g1, 0
    78e8:	02 80 00 07 	be  7904 <uart_send_char+0x90>
    78ec:	01 00 00 00 	nop 
    78f0:	c2 07 bf f8 	ld  [ %fp + -8 ], %g1
    78f4:	82 08 60 01 	and  %g1, 1, %g1
    78f8:	80 a0 60 00 	cmp  %g1, 0
    78fc:	12 bf ff f2 	bne  78c4 <uart_send_char+0x50>
    7900:	01 00 00 00 	nop 
    7904:	81 e8 00 00 	restore 
    7908:	81 c3 e0 08 	retl 
    790c:	01 00 00 00 	nop 

00007910 <ee_printf>:
    7910:	9d e3 bb 90 	save  %sp, -1136, %sp
    7914:	f2 27 a0 48 	st  %i1, [ %fp + 0x48 ]
    7918:	f4 27 a0 4c 	st  %i2, [ %fp + 0x4c ]
    791c:	f6 27 a0 50 	st  %i3, [ %fp + 0x50 ]
    7920:	f8 27 a0 54 	st  %i4, [ %fp + 0x54 ]
    7924:	fa 27 a0 58 	st  %i5, [ %fp + 0x58 ]
    7928:	f0 27 a0 44 	st  %i0, [ %fp + 0x44 ]
    792c:	c0 27 bf f8 	clr  [ %fp + -8 ]
    7930:	82 07 a0 48 	add  %fp, 0x48, %g1
    7934:	c2 27 bb f4 	st  %g1, [ %fp + -1036 ]
    7938:	c2 07 bb f4 	ld  [ %fp + -1036 ], %g1
    793c:	84 07 bb f8 	add  %fp, -1032, %g2
    7940:	90 10 00 02 	mov  %g2, %o0
    7944:	d2 07 a0 44 	ld  [ %fp + 0x44 ], %o1
    7948:	94 10 00 01 	mov  %g1, %o2
    794c:	7f ff fd bf 	call  7048 <ee_vsprintf>
    7950:	01 00 00 00 	nop 
    7954:	82 07 bb f8 	add  %fp, -1032, %g1
    7958:	c2 27 bf fc 	st  %g1, [ %fp + -4 ]
    795c:	10 80 00 0f 	b  7998 <ee_printf+0x88>
    7960:	01 00 00 00 	nop 
    7964:	c2 07 bf fc 	ld  [ %fp + -4 ], %g1
    7968:	c2 08 40 00 	ldub  [ %g1 ], %g1
    796c:	83 28 60 18 	sll  %g1, 0x18, %g1
    7970:	83 38 60 18 	sra  %g1, 0x18, %g1
    7974:	90 10 00 01 	mov  %g1, %o0
    7978:	7f ff ff bf 	call  7874 <uart_send_char>
    797c:	01 00 00 00 	nop 
    7980:	c2 07 bf f8 	ld  [ %fp + -8 ], %g1
    7984:	82 00 60 01 	inc  %g1
    7988:	c2 27 bf f8 	st  %g1, [ %fp + -8 ]
    798c:	c2 07 bf fc 	ld  [ %fp + -4 ], %g1
    7990:	82 00 60 01 	inc  %g1
    7994:	c2 27 bf fc 	st  %g1, [ %fp + -4 ]
    7998:	c2 07 bf fc 	ld  [ %fp + -4 ], %g1
    799c:	c2 08 40 00 	ldub  [ %g1 ], %g1
    79a0:	83 28 60 18 	sll  %g1, 0x18, %g1
    79a4:	83 38 60 18 	sra  %g1, 0x18, %g1
    79a8:	80 a0 60 00 	cmp  %g1, 0
    79ac:	12 bf ff ee 	bne  7964 <ee_printf+0x54>
    79b0:	01 00 00 00 	nop 
    79b4:	c2 07 bf f8 	ld  [ %fp + -8 ], %g1
    79b8:	b0 10 00 01 	mov  %g1, %i0
    79bc:	81 e8 00 00 	restore 
    79c0:	81 c3 e0 08 	retl 
    79c4:	01 00 00 00 	nop 

000079c8 <__ajit_clear_all_gp_registers__>:
    79c8:	9d e3 bf 98 	save  %sp, -104, %sp
    79cc:	82 10 00 00 	mov  %g0, %g1
    79d0:	84 10 00 00 	mov  %g0, %g2
    79d4:	86 10 00 00 	mov  %g0, %g3
    79d8:	88 10 00 00 	mov  %g0, %g4
    79dc:	8a 10 00 00 	mov  %g0, %g5
    79e0:	8c 10 00 00 	mov  %g0, %g6
    79e4:	8e 10 00 00 	mov  %g0, %g7
    79e8:	b0 10 00 00 	mov  %g0, %i0
    79ec:	b2 10 00 00 	mov  %g0, %i1
    79f0:	b4 10 00 00 	mov  %g0, %i2
    79f4:	b6 10 00 00 	mov  %g0, %i3
    79f8:	b8 10 00 00 	mov  %g0, %i4
    79fc:	ba 10 00 00 	mov  %g0, %i5
    7a00:	bc 10 00 00 	mov  %g0, %fp
    7a04:	be 10 00 00 	mov  %g0, %i7
    7a08:	a0 10 00 00 	mov  %g0, %l0
    7a0c:	a2 10 00 00 	mov  %g0, %l1
    7a10:	a4 10 00 00 	mov  %g0, %l2
    7a14:	a6 10 00 00 	mov  %g0, %l3
    7a18:	a8 10 00 00 	mov  %g0, %l4
    7a1c:	aa 10 00 00 	mov  %g0, %l5
    7a20:	ac 10 00 00 	mov  %g0, %l6
    7a24:	ae 10 00 00 	mov  %g0, %l7
    7a28:	90 10 00 00 	mov  %g0, %o0
    7a2c:	92 10 00 00 	mov  %g0, %o1
    7a30:	94 10 00 00 	mov  %g0, %o2
    7a34:	96 10 00 00 	mov  %g0, %o3
    7a38:	98 10 00 00 	mov  %g0, %o4
    7a3c:	9a 10 00 00 	mov  %g0, %o5
    7a40:	9c 10 00 00 	mov  %g0, %sp
    7a44:	9e 10 00 00 	mov  %g0, %o7
    7a48:	c0 27 bf fc 	clr  [ %fp + -4 ]
    7a4c:	c0 27 bf fc 	clr  [ %fp + -4 ]
    7a50:	10 80 00 16 	b  7aa8 <__ajit_clear_all_gp_registers__+0xe0>
    7a54:	01 00 00 00 	nop 
    7a58:	81 e0 00 00 	save 
    7a5c:	a0 10 00 00 	mov  %g0, %l0
    7a60:	a2 10 00 00 	mov  %g0, %l1
    7a64:	a4 10 00 00 	mov  %g0, %l2
    7a68:	a6 10 00 00 	mov  %g0, %l3
    7a6c:	a8 10 00 00 	mov  %g0, %l4
    7a70:	aa 10 00 00 	mov  %g0, %l5
    7a74:	ac 10 00 00 	mov  %g0, %l6
    7a78:	ae 10 00 00 	mov  %g0, %l7
    7a7c:	90 10 00 00 	mov  %g0, %o0
    7a80:	92 10 00 00 	mov  %g0, %o1
    7a84:	94 10 00 00 	mov  %g0, %o2
    7a88:	96 10 00 00 	mov  %g0, %o3
    7a8c:	98 10 00 00 	mov  %g0, %o4
    7a90:	9a 10 00 00 	mov  %g0, %o5
    7a94:	9c 10 00 00 	mov  %g0, %sp
    7a98:	9e 10 00 00 	mov  %g0, %o7
    7a9c:	c2 07 bf fc 	ld  [ %fp + -4 ], %g1
    7aa0:	82 00 60 01 	inc  %g1
    7aa4:	c2 27 bf fc 	st  %g1, [ %fp + -4 ]
    7aa8:	c2 07 bf fc 	ld  [ %fp + -4 ], %g1
    7aac:	80 a0 60 06 	cmp  %g1, 6
    7ab0:	04 bf ff ea 	ble  7a58 <__ajit_clear_all_gp_registers__+0x90>
    7ab4:	01 00 00 00 	nop 
    7ab8:	c0 27 bf fc 	clr  [ %fp + -4 ]
    7abc:	10 80 00 06 	b  7ad4 <__ajit_clear_all_gp_registers__+0x10c>
    7ac0:	01 00 00 00 	nop 
    7ac4:	81 e8 00 00 	restore 
    7ac8:	c2 07 bf fc 	ld  [ %fp + -4 ], %g1
    7acc:	82 00 60 01 	inc  %g1
    7ad0:	c2 27 bf fc 	st  %g1, [ %fp + -4 ]
    7ad4:	c2 07 bf fc 	ld  [ %fp + -4 ], %g1
    7ad8:	80 a0 60 06 	cmp  %g1, 6
    7adc:	04 bf ff fa 	ble  7ac4 <__ajit_clear_all_gp_registers__+0xfc>
    7ae0:	01 00 00 00 	nop 
    7ae4:	81 e8 00 00 	restore 
    7ae8:	81 c3 e0 08 	retl 
    7aec:	01 00 00 00 	nop 

00007af0 <__ajit_read_core_thread_id_word__>:
    7af0:	9d e3 bf 98 	save  %sp, -104, %sp
    7af4:	bb 47 40 00 	rd  %asr29, %i5
    7af8:	fa 27 bf fc 	st  %i5, [ %fp + -4 ]
    7afc:	c2 07 bf fc 	ld  [ %fp + -4 ], %g1
    7b00:	b0 10 00 01 	mov  %g1, %i0
    7b04:	81 e8 00 00 	restore 
    7b08:	81 c3 e0 08 	retl 
    7b0c:	01 00 00 00 	nop 

00007b10 <ajit_get_core_and_thread_id>:
    7b10:	9d e3 bf 98 	save  %sp, -104, %sp
    7b14:	f0 27 a0 44 	st  %i0, [ %fp + 0x44 ]
    7b18:	f2 27 a0 48 	st  %i1, [ %fp + 0x48 ]
    7b1c:	7f ff ff f5 	call  7af0 <__ajit_read_core_thread_id_word__>
    7b20:	01 00 00 00 	nop 
    7b24:	d0 27 bf fc 	st  %o0, [ %fp + -4 ]
    7b28:	c2 07 bf fc 	ld  [ %fp + -4 ], %g1
    7b2c:	83 30 60 08 	srl  %g1, 8, %g1
    7b30:	84 10 00 01 	mov  %g1, %g2
    7b34:	c2 07 a0 44 	ld  [ %fp + 0x44 ], %g1
    7b38:	c4 28 40 00 	stb  %g2, [ %g1 ]
    7b3c:	c2 07 bf fc 	ld  [ %fp + -4 ], %g1
    7b40:	84 10 00 01 	mov  %g1, %g2
    7b44:	c2 07 a0 48 	ld  [ %fp + 0x48 ], %g1
    7b48:	c4 28 40 00 	stb  %g2, [ %g1 ]
    7b4c:	81 e8 00 00 	restore 
    7b50:	81 c3 e0 08 	retl 
    7b54:	01 00 00 00 	nop 

00007b58 <__ajit_read_cycle_count_register_high__>:
    7b58:	9d e3 bf 98 	save  %sp, -104, %sp
    7b5c:	bb 47 80 00 	rd  %asr30, %i5
    7b60:	fa 27 bf fc 	st  %i5, [ %fp + -4 ]
    7b64:	c2 07 bf fc 	ld  [ %fp + -4 ], %g1
    7b68:	b0 10 00 01 	mov  %g1, %i0
    7b6c:	81 e8 00 00 	restore 
    7b70:	81 c3 e0 08 	retl 
    7b74:	01 00 00 00 	nop 

00007b78 <__ajit_read_cycle_count_register_low__>:
    7b78:	9d e3 bf 98 	save  %sp, -104, %sp
    7b7c:	bb 47 c0 00 	rd  %asr31, %i5
    7b80:	fa 27 bf fc 	st  %i5, [ %fp + -4 ]
    7b84:	c2 07 bf fc 	ld  [ %fp + -4 ], %g1
    7b88:	b0 10 00 01 	mov  %g1, %i0
    7b8c:	81 e8 00 00 	restore 
    7b90:	81 c3 e0 08 	retl 
    7b94:	01 00 00 00 	nop 

00007b98 <__ajit_get_clock_time>:
    7b98:	9d e3 bf 90 	save  %sp, -112, %sp
    7b9c:	7f ff ff f7 	call  7b78 <__ajit_read_cycle_count_register_low__>
    7ba0:	01 00 00 00 	nop 
    7ba4:	d0 27 bf fc 	st  %o0, [ %fp + -4 ]
    7ba8:	7f ff ff ec 	call  7b58 <__ajit_read_cycle_count_register_high__>
    7bac:	01 00 00 00 	nop 
    7bb0:	d0 27 bf f8 	st  %o0, [ %fp + -8 ]
    7bb4:	c2 07 bf f8 	ld  [ %fp + -8 ], %g1
    7bb8:	84 10 20 00 	clr  %g2
    7bbc:	86 10 00 01 	mov  %g1, %g3
    7bc0:	c4 3f bf f0 	std  %g2, [ %fp + -16 ]
    7bc4:	c2 07 bf f4 	ld  [ %fp + -12 ], %g1
    7bc8:	83 28 60 00 	sll  %g1, 0, %g1
    7bcc:	c2 27 bf f0 	st  %g1, [ %fp + -16 ]
    7bd0:	c0 27 bf f4 	clr  [ %fp + -12 ]
    7bd4:	c2 07 bf fc 	ld  [ %fp + -4 ], %g1
    7bd8:	84 10 20 00 	clr  %g2
    7bdc:	86 10 00 01 	mov  %g1, %g3
    7be0:	f8 1f bf f0 	ldd  [ %fp + -16 ], %i4
    7be4:	84 17 00 02 	or  %i4, %g2, %g2
    7be8:	86 17 40 03 	or  %i5, %g3, %g3
    7bec:	c4 3f bf f0 	std  %g2, [ %fp + -16 ]
    7bf0:	c4 1f bf f0 	ldd  [ %fp + -16 ], %g2
    7bf4:	b0 10 00 02 	mov  %g2, %i0
    7bf8:	b2 10 00 03 	mov  %g3, %i1
    7bfc:	81 e8 00 00 	restore 
    7c00:	81 c3 e0 08 	retl 
    7c04:	01 00 00 00 	nop 

00007c08 <__ajit_sleep__>:
    7c08:	9d e3 bf 90 	save  %sp, -112, %sp
    7c0c:	f0 27 a0 44 	st  %i0, [ %fp + 0x44 ]
    7c10:	7f ff ff e2 	call  7b98 <__ajit_get_clock_time>
    7c14:	01 00 00 00 	nop 
    7c18:	d0 3f bf f8 	std  %o0, [ %fp + -8 ]
    7c1c:	c2 07 a0 44 	ld  [ %fp + 0x44 ], %g1
    7c20:	b4 10 20 00 	clr  %i2
    7c24:	b6 10 00 01 	mov  %g1, %i3
    7c28:	f8 1f bf f8 	ldd  [ %fp + -8 ], %i4
    7c2c:	86 86 c0 1d 	addcc  %i3, %i5, %g3
    7c30:	84 46 80 1c 	addx  %i2, %i4, %g2
    7c34:	c4 3f bf f0 	std  %g2, [ %fp + -16 ]
    7c38:	10 80 00 05 	b  7c4c <__ajit_sleep__+0x44>
    7c3c:	01 00 00 00 	nop 
    7c40:	7f ff ff d6 	call  7b98 <__ajit_get_clock_time>
    7c44:	01 00 00 00 	nop 
    7c48:	d0 3f bf f8 	std  %o0, [ %fp + -8 ]
    7c4c:	c4 07 bf f0 	ld  [ %fp + -16 ], %g2
    7c50:	c2 07 bf f8 	ld  [ %fp + -8 ], %g1
    7c54:	80 a0 80 01 	cmp  %g2, %g1
    7c58:	18 bf ff fa 	bgu  7c40 <__ajit_sleep__+0x38>
    7c5c:	01 00 00 00 	nop 
    7c60:	c4 07 bf f0 	ld  [ %fp + -16 ], %g2
    7c64:	c2 07 bf f8 	ld  [ %fp + -8 ], %g1
    7c68:	80 a0 80 01 	cmp  %g2, %g1
    7c6c:	12 80 00 07 	bne  7c88 <__ajit_sleep__+0x80>
    7c70:	01 00 00 00 	nop 
    7c74:	c4 07 bf f4 	ld  [ %fp + -12 ], %g2
    7c78:	c2 07 bf fc 	ld  [ %fp + -4 ], %g1
    7c7c:	80 a0 80 01 	cmp  %g2, %g1
    7c80:	18 bf ff f0 	bgu  7c40 <__ajit_sleep__+0x38>
    7c84:	01 00 00 00 	nop 
    7c88:	01 00 00 00 	nop 
    7c8c:	81 e8 00 00 	restore 
    7c90:	81 c3 e0 08 	retl 
    7c94:	01 00 00 00 	nop 

00007c98 <__ajit_set_mmu_default_cacheable_bit__>:
    7c98:	9d e3 bf 98 	save  %sp, -104, %sp
    7c9c:	82 10 00 18 	mov  %i0, %g1
    7ca0:	c2 2f a0 44 	stb  %g1, [ %fp + 0x44 ]
    7ca4:	c2 0f a0 44 	ldub  [ %fp + 0x44 ], %g1
    7ca8:	82 08 60 ff 	and  %g1, 0xff, %g1
    7cac:	80 a0 60 00 	cmp  %g1, 0
    7cb0:	02 80 00 05 	be  7cc4 <__ajit_set_mmu_default_cacheable_bit__+0x2c>
    7cb4:	01 00 00 00 	nop 
    7cb8:	82 10 21 00 	mov  0x100, %g1	! 100 <instr_section+0x70>
    7cbc:	10 80 00 03 	b  7cc8 <__ajit_set_mmu_default_cacheable_bit__+0x30>
    7cc0:	01 00 00 00 	nop 
    7cc4:	82 10 20 00 	clr  %g1	! 0 <_start>
    7cc8:	c2 27 bf fc 	st  %g1, [ %fp + -4 ]
    7ccc:	c0 27 bf f8 	clr  [ %fp + -8 ]
    7cd0:	c2 07 bf fc 	ld  [ %fp + -4 ], %g1
    7cd4:	c4 07 bf f8 	ld  [ %fp + -8 ], %g2
    7cd8:	c2 a0 80 80 	sta  %g1, [ %g2 ] #ASI_N
    7cdc:	81 e8 00 00 	restore 
    7ce0:	81 c3 e0 08 	retl 
    7ce4:	01 00 00 00 	nop 

00007ce8 <__ajit_store_word_mmu_reg__>:
    7ce8:	9d e3 bf a0 	save  %sp, -96, %sp
    7cec:	f0 27 a0 44 	st  %i0, [ %fp + 0x44 ]
    7cf0:	f2 27 a0 48 	st  %i1, [ %fp + 0x48 ]
    7cf4:	c2 07 a0 44 	ld  [ %fp + 0x44 ], %g1
    7cf8:	c4 07 a0 48 	ld  [ %fp + 0x48 ], %g2
    7cfc:	c2 a0 80 80 	sta  %g1, [ %g2 ] #ASI_N
    7d00:	81 e8 00 00 	restore 
    7d04:	81 c3 e0 08 	retl 
    7d08:	01 00 00 00 	nop 

00007d0c <__ajit_store_word_mmu_bypass__>:
    7d0c:	9d e3 bf a0 	save  %sp, -96, %sp
    7d10:	f0 27 a0 44 	st  %i0, [ %fp + 0x44 ]
    7d14:	f2 27 a0 48 	st  %i1, [ %fp + 0x48 ]
    7d18:	c2 07 a0 44 	ld  [ %fp + 0x44 ], %g1
    7d1c:	c4 07 a0 48 	ld  [ %fp + 0x48 ], %g2
    7d20:	c2 a0 84 00 	sta  %g1, [ %g2 ] #ASI_SCRATCHPAD
    7d24:	81 e8 00 00 	restore 
    7d28:	81 c3 e0 08 	retl 
    7d2c:	01 00 00 00 	nop 

00007d30 <__ajit_load_word_mmu_reg__>:
    7d30:	9d e3 bf 98 	save  %sp, -104, %sp
    7d34:	f0 27 a0 44 	st  %i0, [ %fp + 0x44 ]
    7d38:	c2 07 a0 44 	ld  [ %fp + 0x44 ], %g1
    7d3c:	fa 80 40 80 	lda  [ %g1 ] #ASI_N, %i5
    7d40:	fa 27 bf fc 	st  %i5, [ %fp + -4 ]
    7d44:	c2 07 bf fc 	ld  [ %fp + -4 ], %g1
    7d48:	b0 10 00 01 	mov  %g1, %i0
    7d4c:	81 e8 00 00 	restore 
    7d50:	81 c3 e0 08 	retl 
    7d54:	01 00 00 00 	nop 

00007d58 <__ajit_load_word_mmu_bypass__>:
    7d58:	9d e3 bf 98 	save  %sp, -104, %sp
    7d5c:	f0 27 a0 44 	st  %i0, [ %fp + 0x44 ]
    7d60:	c2 07 a0 44 	ld  [ %fp + 0x44 ], %g1
    7d64:	fa 80 44 00 	lda  [ %g1 ] #ASI_SCRATCHPAD, %i5
    7d68:	fa 27 bf fc 	st  %i5, [ %fp + -4 ]
    7d6c:	c2 07 bf fc 	ld  [ %fp + -4 ], %g1
    7d70:	b0 10 00 01 	mov  %g1, %i0
    7d74:	81 e8 00 00 	restore 
    7d78:	81 c3 e0 08 	retl 
    7d7c:	01 00 00 00 	nop 

00007d80 <__ajit_flush_icache__>:
    7d80:	9d e3 bf a0 	save  %sp, -96, %sp
    7d84:	81 d8 20 00 	flush  %g0
    7d88:	81 e8 00 00 	restore 
    7d8c:	81 c3 e0 08 	retl 
    7d90:	01 00 00 00 	nop 

00007d94 <__ajit_flush_dcache__>:
    7d94:	9d e3 bf a0 	save  %sp, -96, %sp
    7d98:	c0 a0 02 60 	sta  %g0, [ %g0 ] (19)
    7d9c:	81 e8 00 00 	restore 
    7da0:	81 c3 e0 08 	retl 
    7da4:	01 00 00 00 	nop 

00007da8 <__ajit_write_timer_control_register__>:
    7da8:	9d e3 bf 98 	save  %sp, -104, %sp
    7dac:	f0 27 a0 44 	st  %i0, [ %fp + 0x44 ]
    7db0:	03 3f ff cc 	sethi  %hi(0xffff3000), %g1
    7db4:	82 10 61 00 	or  %g1, 0x100, %g1	! ffff3100 <_GLOBAL_OFFSET_TABLE_+0xbfff2e80>
    7db8:	c2 27 bf fc 	st  %g1, [ %fp + -4 ]
    7dbc:	d0 07 a0 44 	ld  [ %fp + 0x44 ], %o0
    7dc0:	d2 07 bf fc 	ld  [ %fp + -4 ], %o1
    7dc4:	7f ff ff d2 	call  7d0c <__ajit_store_word_mmu_bypass__>
    7dc8:	01 00 00 00 	nop 
    7dcc:	81 e8 00 00 	restore 
    7dd0:	81 c3 e0 08 	retl 
    7dd4:	01 00 00 00 	nop 

00007dd8 <__ajit_read_timer_control_register__>:
    7dd8:	9d e3 bf 98 	save  %sp, -104, %sp
    7ddc:	03 3f ff cc 	sethi  %hi(0xffff3000), %g1
    7de0:	90 10 61 00 	or  %g1, 0x100, %o0	! ffff3100 <_GLOBAL_OFFSET_TABLE_+0xbfff2e80>
    7de4:	7f ff ff dd 	call  7d58 <__ajit_load_word_mmu_bypass__>
    7de8:	01 00 00 00 	nop 
    7dec:	d0 27 bf fc 	st  %o0, [ %fp + -4 ]
    7df0:	c2 07 bf fc 	ld  [ %fp + -4 ], %g1
    7df4:	b0 10 00 01 	mov  %g1, %i0
    7df8:	81 e8 00 00 	restore 
    7dfc:	81 c3 e0 08 	retl 
    7e00:	01 00 00 00 	nop 

00007e04 <__ajit_write_timer_control_register_via_vmap__>:
    7e04:	9d e3 bf a0 	save  %sp, -96, %sp
    7e08:	f0 27 a0 44 	st  %i0, [ %fp + 0x44 ]
    7e0c:	03 3f ff cc 	sethi  %hi(0xffff3000), %g1
    7e10:	82 10 61 00 	or  %g1, 0x100, %g1	! ffff3100 <_GLOBAL_OFFSET_TABLE_+0xbfff2e80>
    7e14:	c4 07 a0 44 	ld  [ %fp + 0x44 ], %g2
    7e18:	c4 20 40 00 	st  %g2, [ %g1 ]
    7e1c:	81 e8 00 00 	restore 
    7e20:	81 c3 e0 08 	retl 
    7e24:	01 00 00 00 	nop 

00007e28 <__ajit_read_timer_control_register_via_vmap__>:
    7e28:	9d e3 bf 98 	save  %sp, -104, %sp
    7e2c:	03 3f ff cc 	sethi  %hi(0xffff3000), %g1
    7e30:	82 10 61 00 	or  %g1, 0x100, %g1	! ffff3100 <_GLOBAL_OFFSET_TABLE_+0xbfff2e80>
    7e34:	c2 00 40 00 	ld  [ %g1 ], %g1
    7e38:	c2 27 bf fc 	st  %g1, [ %fp + -4 ]
    7e3c:	c2 07 bf fc 	ld  [ %fp + -4 ], %g1
    7e40:	b0 10 00 01 	mov  %g1, %i0
    7e44:	81 e8 00 00 	restore 
    7e48:	81 c3 e0 08 	retl 
    7e4c:	01 00 00 00 	nop 

00007e50 <__ajit_write_serial_control_register__>:
    7e50:	9d e3 bf 98 	save  %sp, -104, %sp
    7e54:	f0 27 a0 44 	st  %i0, [ %fp + 0x44 ]
    7e58:	03 3f ff cc 	sethi  %hi(0xffff3000), %g1
    7e5c:	82 10 62 00 	or  %g1, 0x200, %g1	! ffff3200 <_GLOBAL_OFFSET_TABLE_+0xbfff2f80>
    7e60:	c2 27 bf fc 	st  %g1, [ %fp + -4 ]
    7e64:	c2 07 a0 44 	ld  [ %fp + 0x44 ], %g1
    7e68:	c4 07 bf fc 	ld  [ %fp + -4 ], %g2
    7e6c:	c2 a0 84 00 	sta  %g1, [ %g2 ] #ASI_SCRATCHPAD
    7e70:	81 e8 00 00 	restore 
    7e74:	81 c3 e0 08 	retl 
    7e78:	01 00 00 00 	nop 

00007e7c <__ajit_serial_configure__>:
    7e7c:	9d e3 bf 98 	save  %sp, -104, %sp
    7e80:	86 10 00 18 	mov  %i0, %g3
    7e84:	84 10 00 19 	mov  %i1, %g2
    7e88:	82 10 00 1a 	mov  %i2, %g1
    7e8c:	c6 2f a0 44 	stb  %g3, [ %fp + 0x44 ]
    7e90:	c4 2f a0 48 	stb  %g2, [ %fp + 0x48 ]
    7e94:	c2 2f a0 4c 	stb  %g1, [ %fp + 0x4c ]
    7e98:	c0 27 bf fc 	clr  [ %fp + -4 ]
    7e9c:	03 3f ff cc 	sethi  %hi(0xffff3000), %g1
    7ea0:	82 10 62 00 	or  %g1, 0x200, %g1	! ffff3200 <_GLOBAL_OFFSET_TABLE_+0xbfff2f80>
    7ea4:	fa 80 44 00 	lda  [ %g1 ] #ASI_SCRATCHPAD, %i5
    7ea8:	fa 27 bf fc 	st  %i5, [ %fp + -4 ]
    7eac:	c2 0f a0 44 	ldub  [ %fp + 0x44 ], %g1
    7eb0:	82 08 60 ff 	and  %g1, 0xff, %g1
    7eb4:	80 a0 60 00 	cmp  %g1, 0
    7eb8:	02 80 00 07 	be  7ed4 <__ajit_serial_configure__+0x58>
    7ebc:	01 00 00 00 	nop 
    7ec0:	c2 07 bf fc 	ld  [ %fp + -4 ], %g1
    7ec4:	82 10 60 01 	or  %g1, 1, %g1
    7ec8:	c2 27 bf fc 	st  %g1, [ %fp + -4 ]
    7ecc:	10 80 00 05 	b  7ee0 <__ajit_serial_configure__+0x64>
    7ed0:	01 00 00 00 	nop 
    7ed4:	c2 07 bf fc 	ld  [ %fp + -4 ], %g1
    7ed8:	82 08 7f fe 	and  %g1, -2, %g1
    7edc:	c2 27 bf fc 	st  %g1, [ %fp + -4 ]
    7ee0:	c2 0f a0 48 	ldub  [ %fp + 0x48 ], %g1
    7ee4:	82 08 60 ff 	and  %g1, 0xff, %g1
    7ee8:	80 a0 60 00 	cmp  %g1, 0
    7eec:	02 80 00 07 	be  7f08 <__ajit_serial_configure__+0x8c>
    7ef0:	01 00 00 00 	nop 
    7ef4:	c2 07 bf fc 	ld  [ %fp + -4 ], %g1
    7ef8:	82 10 60 02 	or  %g1, 2, %g1
    7efc:	c2 27 bf fc 	st  %g1, [ %fp + -4 ]
    7f00:	10 80 00 05 	b  7f14 <__ajit_serial_configure__+0x98>
    7f04:	01 00 00 00 	nop 
    7f08:	c2 07 bf fc 	ld  [ %fp + -4 ], %g1
    7f0c:	82 08 7f fd 	and  %g1, -3, %g1
    7f10:	c2 27 bf fc 	st  %g1, [ %fp + -4 ]
    7f14:	c2 0f a0 4c 	ldub  [ %fp + 0x4c ], %g1
    7f18:	82 08 60 ff 	and  %g1, 0xff, %g1
    7f1c:	80 a0 60 00 	cmp  %g1, 0
    7f20:	02 80 00 07 	be  7f3c <__ajit_serial_configure__+0xc0>
    7f24:	01 00 00 00 	nop 
    7f28:	c2 07 bf fc 	ld  [ %fp + -4 ], %g1
    7f2c:	82 10 60 04 	or  %g1, 4, %g1
    7f30:	c2 27 bf fc 	st  %g1, [ %fp + -4 ]
    7f34:	10 80 00 05 	b  7f48 <__ajit_serial_configure__+0xcc>
    7f38:	01 00 00 00 	nop 
    7f3c:	c2 07 bf fc 	ld  [ %fp + -4 ], %g1
    7f40:	82 08 7f fb 	and  %g1, -5, %g1
    7f44:	c2 27 bf fc 	st  %g1, [ %fp + -4 ]
    7f48:	c2 07 bf fc 	ld  [ %fp + -4 ], %g1
    7f4c:	05 3f ff cc 	sethi  %hi(0xffff3000), %g2
    7f50:	84 10 a2 00 	or  %g2, 0x200, %g2	! ffff3200 <_GLOBAL_OFFSET_TABLE_+0xbfff2f80>
    7f54:	c2 a0 84 00 	sta  %g1, [ %g2 ] #ASI_SCRATCHPAD
    7f58:	81 e8 00 00 	restore 
    7f5c:	81 c3 e0 08 	retl 
    7f60:	01 00 00 00 	nop 

00007f64 <__ajit_serial_uart_reset__>:
    7f64:	9d e3 bf a0 	save  %sp, -96, %sp
    7f68:	90 10 20 00 	clr  %o0
    7f6c:	40 00 02 22 	call  87f4 <__ajit_serial_uart_reset_inner__>
    7f70:	01 00 00 00 	nop 
    7f74:	81 e8 00 00 	restore 
    7f78:	81 c3 e0 08 	retl 
    7f7c:	01 00 00 00 	nop 

00007f80 <__ajit_serial_set_baudrate__>:
    7f80:	9d e3 bf a0 	save  %sp, -96, %sp
    7f84:	f0 27 a0 44 	st  %i0, [ %fp + 0x44 ]
    7f88:	f2 27 a0 48 	st  %i1, [ %fp + 0x48 ]
    7f8c:	90 10 20 00 	clr  %o0
    7f90:	d2 07 a0 44 	ld  [ %fp + 0x44 ], %o1
    7f94:	d4 07 a0 48 	ld  [ %fp + 0x48 ], %o2
    7f98:	40 00 00 54 	call  80e8 <__ajit_serial_set_baudrate_inner__>
    7f9c:	01 00 00 00 	nop 
    7fa0:	81 e8 00 00 	restore 
    7fa4:	81 c3 e0 08 	retl 
    7fa8:	01 00 00 00 	nop 

00007fac <__ajit_serial_set_baudrate_via_vmap__>:
    7fac:	9d e3 bf a0 	save  %sp, -96, %sp
    7fb0:	f0 27 a0 44 	st  %i0, [ %fp + 0x44 ]
    7fb4:	f2 27 a0 48 	st  %i1, [ %fp + 0x48 ]
    7fb8:	90 10 20 01 	mov  1, %o0
    7fbc:	d2 07 a0 44 	ld  [ %fp + 0x44 ], %o1
    7fc0:	d4 07 a0 48 	ld  [ %fp + 0x48 ], %o2
    7fc4:	40 00 00 49 	call  80e8 <__ajit_serial_set_baudrate_inner__>
    7fc8:	01 00 00 00 	nop 
    7fcc:	81 e8 00 00 	restore 
    7fd0:	81 c3 e0 08 	retl 
    7fd4:	01 00 00 00 	nop 

00007fd8 <calculate_baud_control_word_for_uart>:
    7fd8:	9d e3 bf 88 	save  %sp, -120, %sp
    7fdc:	f0 27 a0 44 	st  %i0, [ %fp + 0x44 ]
    7fe0:	f2 27 a0 48 	st  %i1, [ %fp + 0x48 ]
    7fe4:	c0 27 bf fc 	clr  [ %fp + -4 ]
    7fe8:	c2 07 a0 44 	ld  [ %fp + 0x44 ], %g1
    7fec:	83 28 60 04 	sll  %g1, 4, %g1
    7ff0:	c2 27 bf f8 	st  %g1, [ %fp + -8 ]
    7ff4:	c2 07 a0 48 	ld  [ %fp + 0x48 ], %g1
    7ff8:	c2 27 bf f4 	st  %g1, [ %fp + -12 ]
    7ffc:	c2 07 bf f8 	ld  [ %fp + -8 ], %g1
    8000:	80 a0 60 00 	cmp  %g1, 0
    8004:	02 80 00 34 	be  80d4 <calculate_baud_control_word_for_uart+0xfc>
    8008:	01 00 00 00 	nop 
    800c:	c4 07 bf f8 	ld  [ %fp + -8 ], %g2
    8010:	c2 07 bf f4 	ld  [ %fp + -12 ], %g1
    8014:	80 a0 80 01 	cmp  %g2, %g1
    8018:	1a 80 00 2f 	bcc  80d4 <calculate_baud_control_word_for_uart+0xfc>
    801c:	01 00 00 00 	nop 
    8020:	10 80 00 03 	b  802c <calculate_baud_control_word_for_uart+0x54>
    8024:	01 00 00 00 	nop 
    8028:	01 00 00 00 	nop 
    802c:	c2 07 bf f4 	ld  [ %fp + -12 ], %g1
    8030:	81 80 20 00 	mov  %g0, %y
    8034:	c6 07 bf f8 	ld  [ %fp + -8 ], %g3
    8038:	01 00 00 00 	nop 
    803c:	01 00 00 00 	nop 
    8040:	86 70 40 03 	udiv  %g1, %g3, %g3
    8044:	c4 07 bf f8 	ld  [ %fp + -8 ], %g2
    8048:	84 58 c0 02 	smul  %g3, %g2, %g2
    804c:	82 20 40 02 	sub  %g1, %g2, %g1
    8050:	c2 27 bf f0 	st  %g1, [ %fp + -16 ]
    8054:	c2 07 bf f8 	ld  [ %fp + -8 ], %g1
    8058:	c2 27 bf f4 	st  %g1, [ %fp + -12 ]
    805c:	c2 07 bf f0 	ld  [ %fp + -16 ], %g1
    8060:	c2 27 bf f8 	st  %g1, [ %fp + -8 ]
    8064:	c2 07 bf f0 	ld  [ %fp + -16 ], %g1
    8068:	80 a0 60 00 	cmp  %g1, 0
    806c:	12 bf ff ef 	bne  8028 <calculate_baud_control_word_for_uart+0x50>
    8070:	01 00 00 00 	nop 
    8074:	01 00 00 00 	nop 
    8078:	c2 07 a0 44 	ld  [ %fp + 0x44 ], %g1
    807c:	85 28 60 04 	sll  %g1, 4, %g2
    8080:	81 80 20 00 	mov  %g0, %y
    8084:	c2 07 bf f4 	ld  [ %fp + -12 ], %g1
    8088:	01 00 00 00 	nop 
    808c:	01 00 00 00 	nop 
    8090:	82 70 80 01 	udiv  %g2, %g1, %g1
    8094:	c2 27 bf ec 	st  %g1, [ %fp + -20 ]
    8098:	c2 07 a0 48 	ld  [ %fp + 0x48 ], %g1
    809c:	81 80 20 00 	mov  %g0, %y
    80a0:	c4 07 bf f4 	ld  [ %fp + -12 ], %g2
    80a4:	01 00 00 00 	nop 
    80a8:	01 00 00 00 	nop 
    80ac:	84 70 40 02 	udiv  %g1, %g2, %g2
    80b0:	c2 07 bf ec 	ld  [ %fp + -20 ], %g1
    80b4:	82 20 80 01 	sub  %g2, %g1, %g1
    80b8:	c2 27 bf e8 	st  %g1, [ %fp + -24 ]
    80bc:	c2 07 bf e8 	ld  [ %fp + -24 ], %g1
    80c0:	85 28 60 10 	sll  %g1, 0x10, %g2
    80c4:	c2 07 bf ec 	ld  [ %fp + -20 ], %g1
    80c8:	82 08 6f ff 	and  %g1, 0xfff, %g1
    80cc:	82 10 80 01 	or  %g2, %g1, %g1
    80d0:	c2 27 bf fc 	st  %g1, [ %fp + -4 ]
    80d4:	c2 07 bf fc 	ld  [ %fp + -4 ], %g1
    80d8:	b0 10 00 01 	mov  %g1, %i0
    80dc:	81 e8 00 00 	restore 
    80e0:	81 c3 e0 08 	retl 
    80e4:	01 00 00 00 	nop 

000080e8 <__ajit_serial_set_baudrate_inner__>:
    80e8:	9d e3 bf 98 	save  %sp, -104, %sp
    80ec:	82 10 00 18 	mov  %i0, %g1
    80f0:	f2 27 a0 48 	st  %i1, [ %fp + 0x48 ]
    80f4:	f4 27 a0 4c 	st  %i2, [ %fp + 0x4c ]
    80f8:	c2 2f a0 44 	stb  %g1, [ %fp + 0x44 ]
    80fc:	03 3f ff cd 	sethi  %hi(0xffff3400), %g1
    8100:	82 10 60 08 	or  %g1, 8, %g1	! ffff3408 <_GLOBAL_OFFSET_TABLE_+0xbfff3188>
    8104:	c2 27 bf fc 	st  %g1, [ %fp + -4 ]
    8108:	d0 07 a0 48 	ld  [ %fp + 0x48 ], %o0
    810c:	d2 07 a0 4c 	ld  [ %fp + 0x4c ], %o1
    8110:	7f ff ff b2 	call  7fd8 <calculate_baud_control_word_for_uart>
    8114:	01 00 00 00 	nop 
    8118:	d0 27 bf f8 	st  %o0, [ %fp + -8 ]
    811c:	c2 0f a0 44 	ldub  [ %fp + 0x44 ], %g1
    8120:	82 08 60 ff 	and  %g1, 0xff, %g1
    8124:	80 a0 60 00 	cmp  %g1, 0
    8128:	02 80 00 07 	be  8144 <__ajit_serial_set_baudrate_inner__+0x5c>
    812c:	01 00 00 00 	nop 
    8130:	c2 07 bf fc 	ld  [ %fp + -4 ], %g1
    8134:	c4 07 bf f8 	ld  [ %fp + -8 ], %g2
    8138:	c4 20 40 00 	st  %g2, [ %g1 ]
    813c:	10 80 00 06 	b  8154 <__ajit_serial_set_baudrate_inner__+0x6c>
    8140:	01 00 00 00 	nop 
    8144:	d0 07 bf f8 	ld  [ %fp + -8 ], %o0
    8148:	d2 07 bf fc 	ld  [ %fp + -4 ], %o1
    814c:	7f ff fe f0 	call  7d0c <__ajit_store_word_mmu_bypass__>
    8150:	01 00 00 00 	nop 
    8154:	81 e8 00 00 	restore 
    8158:	81 c3 e0 08 	retl 
    815c:	01 00 00 00 	nop 

00008160 <__ajit_read_serial_control_register__>:
    8160:	9d e3 bf 98 	save  %sp, -104, %sp
    8164:	03 3f ff cc 	sethi  %hi(0xffff3000), %g1
    8168:	82 10 62 00 	or  %g1, 0x200, %g1	! ffff3200 <_GLOBAL_OFFSET_TABLE_+0xbfff2f80>
    816c:	c2 27 bf fc 	st  %g1, [ %fp + -4 ]
    8170:	c0 27 bf f8 	clr  [ %fp + -8 ]
    8174:	c2 07 bf fc 	ld  [ %fp + -4 ], %g1
    8178:	fa 80 44 00 	lda  [ %g1 ] #ASI_SCRATCHPAD, %i5
    817c:	fa 27 bf f8 	st  %i5, [ %fp + -8 ]
    8180:	c2 07 bf f8 	ld  [ %fp + -8 ], %g1
    8184:	b0 10 00 01 	mov  %g1, %i0
    8188:	81 e8 00 00 	restore 
    818c:	81 c3 e0 08 	retl 
    8190:	01 00 00 00 	nop 

00008194 <__ajit_write_serial_tx_register__>:
    8194:	9d e3 bf 98 	save  %sp, -104, %sp
    8198:	82 10 00 18 	mov  %i0, %g1
    819c:	c2 2f a0 44 	stb  %g1, [ %fp + 0x44 ]
    81a0:	03 3f ff cc 	sethi  %hi(0xffff3000), %g1
    81a4:	82 10 62 04 	or  %g1, 0x204, %g1	! ffff3204 <_GLOBAL_OFFSET_TABLE_+0xbfff2f84>
    81a8:	c2 27 bf fc 	st  %g1, [ %fp + -4 ]
    81ac:	c2 0f a0 44 	ldub  [ %fp + 0x44 ], %g1
    81b0:	c4 07 bf fc 	ld  [ %fp + -4 ], %g2
    81b4:	c2 a8 84 00 	stba  %g1, [ %g2 ] #ASI_SCRATCHPAD
    81b8:	81 e8 00 00 	restore 
    81bc:	81 c3 e0 08 	retl 
    81c0:	01 00 00 00 	nop 

000081c4 <__ajit_read_serial_tx_register__>:
    81c4:	9d e3 bf 98 	save  %sp, -104, %sp
    81c8:	03 3f ff cc 	sethi  %hi(0xffff3000), %g1
    81cc:	82 10 62 04 	or  %g1, 0x204, %g1	! ffff3204 <_GLOBAL_OFFSET_TABLE_+0xbfff2f84>
    81d0:	c2 27 bf fc 	st  %g1, [ %fp + -4 ]
    81d4:	c0 2f bf fb 	clrb  [ %fp + -5 ]
    81d8:	c2 07 bf fc 	ld  [ %fp + -4 ], %g1
    81dc:	fa 88 44 00 	lduba  [ %g1 ] #ASI_SCRATCHPAD, %i5
    81e0:	fa 2f bf fb 	stb  %i5, [ %fp + -5 ]
    81e4:	c2 0f bf fb 	ldub  [ %fp + -5 ], %g1
    81e8:	82 08 60 ff 	and  %g1, 0xff, %g1
    81ec:	b0 10 00 01 	mov  %g1, %i0
    81f0:	81 e8 00 00 	restore 
    81f4:	81 c3 e0 08 	retl 
    81f8:	01 00 00 00 	nop 

000081fc <__ajit_read_serial_rx_register__>:
    81fc:	9d e3 bf 98 	save  %sp, -104, %sp
    8200:	03 3f ff cc 	sethi  %hi(0xffff3000), %g1
    8204:	82 10 62 08 	or  %g1, 0x208, %g1	! ffff3208 <_GLOBAL_OFFSET_TABLE_+0xbfff2f88>
    8208:	c2 27 bf fc 	st  %g1, [ %fp + -4 ]
    820c:	c0 2f bf fb 	clrb  [ %fp + -5 ]
    8210:	c2 07 bf fc 	ld  [ %fp + -4 ], %g1
    8214:	fa 88 44 00 	lduba  [ %g1 ] #ASI_SCRATCHPAD, %i5
    8218:	fa 2f bf fb 	stb  %i5, [ %fp + -5 ]
    821c:	c2 0f bf fb 	ldub  [ %fp + -5 ], %g1
    8220:	82 08 60 ff 	and  %g1, 0xff, %g1
    8224:	b0 10 00 01 	mov  %g1, %i0
    8228:	81 e8 00 00 	restore 
    822c:	81 c3 e0 08 	retl 
    8230:	01 00 00 00 	nop 

00008234 <__ajit_serial_putchar__>:
    8234:	9d e3 bf 98 	save  %sp, -104, %sp
    8238:	82 10 00 18 	mov  %i0, %g1
    823c:	c2 2f a0 44 	stb  %g1, [ %fp + 0x44 ]
    8240:	c0 27 bf f8 	clr  [ %fp + -8 ]
    8244:	03 3f ff cc 	sethi  %hi(0xffff3000), %g1
    8248:	82 10 62 00 	or  %g1, 0x200, %g1	! ffff3200 <_GLOBAL_OFFSET_TABLE_+0xbfff2f80>
    824c:	fa 80 44 00 	lda  [ %g1 ] #ASI_SCRATCHPAD, %i5
    8250:	fa 27 bf f8 	st  %i5, [ %fp + -8 ]
    8254:	c0 27 bf fc 	clr  [ %fp + -4 ]
    8258:	c2 07 bf f8 	ld  [ %fp + -8 ], %g1
    825c:	82 08 60 01 	and  %g1, 1, %g1
    8260:	80 a0 60 00 	cmp  %g1, 0
    8264:	02 80 00 0f 	be  82a0 <__ajit_serial_putchar__+0x6c>
    8268:	01 00 00 00 	nop 
    826c:	c2 07 bf f8 	ld  [ %fp + -8 ], %g1
    8270:	82 08 60 08 	and  %g1, 8, %g1
    8274:	80 a0 60 00 	cmp  %g1, 0
    8278:	12 80 00 0a 	bne  82a0 <__ajit_serial_putchar__+0x6c>
    827c:	01 00 00 00 	nop 
    8280:	c2 0f a0 44 	ldub  [ %fp + 0x44 ], %g1
    8284:	05 3f ff cc 	sethi  %hi(0xffff3000), %g2
    8288:	84 10 a2 04 	or  %g2, 0x204, %g2	! ffff3204 <_GLOBAL_OFFSET_TABLE_+0xbfff2f84>
    828c:	c2 a8 84 00 	stba  %g1, [ %g2 ] #ASI_SCRATCHPAD
    8290:	c2 0f a0 44 	ldub  [ %fp + 0x44 ], %g1
    8294:	83 28 60 18 	sll  %g1, 0x18, %g1
    8298:	83 38 60 18 	sra  %g1, 0x18, %g1
    829c:	c2 27 bf fc 	st  %g1, [ %fp + -4 ]
    82a0:	c2 07 bf fc 	ld  [ %fp + -4 ], %g1
    82a4:	b0 10 00 01 	mov  %g1, %i0
    82a8:	81 e8 00 00 	restore 
    82ac:	81 c3 e0 08 	retl 
    82b0:	01 00 00 00 	nop 

000082b4 <__ajit_serial_getchar__>:
    82b4:	9d e3 bf 90 	save  %sp, -112, %sp
    82b8:	c0 27 bf fc 	clr  [ %fp + -4 ]
    82bc:	7f ff ff a9 	call  8160 <__ajit_read_serial_control_register__>
    82c0:	01 00 00 00 	nop 
    82c4:	d0 27 bf f8 	st  %o0, [ %fp + -8 ]
    82c8:	c2 07 bf f8 	ld  [ %fp + -8 ], %g1
    82cc:	82 08 60 02 	and  %g1, 2, %g1
    82d0:	80 a0 60 00 	cmp  %g1, 0
    82d4:	02 80 00 0e 	be  830c <__ajit_serial_getchar__+0x58>
    82d8:	01 00 00 00 	nop 
    82dc:	c2 07 bf f8 	ld  [ %fp + -8 ], %g1
    82e0:	82 08 60 10 	and  %g1, 0x10, %g1
    82e4:	80 a0 60 00 	cmp  %g1, 0
    82e8:	02 80 00 09 	be  830c <__ajit_serial_getchar__+0x58>
    82ec:	01 00 00 00 	nop 
    82f0:	c0 27 bf f4 	clr  [ %fp + -12 ]
    82f4:	03 3f ff cc 	sethi  %hi(0xffff3000), %g1
    82f8:	82 10 62 08 	or  %g1, 0x208, %g1	! ffff3208 <_GLOBAL_OFFSET_TABLE_+0xbfff2f88>
    82fc:	fa 88 44 00 	lduba  [ %g1 ] #ASI_SCRATCHPAD, %i5
    8300:	fa 27 bf f4 	st  %i5, [ %fp + -12 ]
    8304:	c2 07 bf f4 	ld  [ %fp + -12 ], %g1
    8308:	c2 27 bf fc 	st  %g1, [ %fp + -4 ]
    830c:	c2 07 bf fc 	ld  [ %fp + -4 ], %g1
    8310:	b0 10 00 01 	mov  %g1, %i0
    8314:	81 e8 00 00 	restore 
    8318:	81 c3 e0 08 	retl 
    831c:	01 00 00 00 	nop 

00008320 <__ajit_serial_puts__>:
    8320:	9d e3 bf 98 	save  %sp, -104, %sp
    8324:	f0 27 a0 44 	st  %i0, [ %fp + 0x44 ]
    8328:	f2 27 a0 48 	st  %i1, [ %fp + 0x48 ]
    832c:	c0 27 bf fc 	clr  [ %fp + -4 ]
    8330:	10 80 00 16 	b  8388 <__ajit_serial_puts__+0x68>
    8334:	01 00 00 00 	nop 
    8338:	c0 27 bf f8 	clr  [ %fp + -8 ]
    833c:	10 80 00 0c 	b  836c <__ajit_serial_puts__+0x4c>
    8340:	01 00 00 00 	nop 
    8344:	c2 07 bf fc 	ld  [ %fp + -4 ], %g1
    8348:	c4 07 a0 44 	ld  [ %fp + 0x44 ], %g2
    834c:	82 00 80 01 	add  %g2, %g1, %g1
    8350:	c2 08 40 00 	ldub  [ %g1 ], %g1
    8354:	83 28 60 18 	sll  %g1, 0x18, %g1
    8358:	83 38 60 18 	sra  %g1, 0x18, %g1
    835c:	90 10 00 01 	mov  %g1, %o0
    8360:	7f ff ff b5 	call  8234 <__ajit_serial_putchar__>
    8364:	01 00 00 00 	nop 
    8368:	d0 27 bf f8 	st  %o0, [ %fp + -8 ]
    836c:	c2 07 bf f8 	ld  [ %fp + -8 ], %g1
    8370:	80 a0 60 00 	cmp  %g1, 0
    8374:	02 bf ff f4 	be  8344 <__ajit_serial_puts__+0x24>
    8378:	01 00 00 00 	nop 
    837c:	c2 07 bf fc 	ld  [ %fp + -4 ], %g1
    8380:	82 00 60 01 	inc  %g1
    8384:	c2 27 bf fc 	st  %g1, [ %fp + -4 ]
    8388:	c4 07 bf fc 	ld  [ %fp + -4 ], %g2
    838c:	c2 07 a0 48 	ld  [ %fp + 0x48 ], %g1
    8390:	80 a0 80 01 	cmp  %g2, %g1
    8394:	0a bf ff e9 	bcs  8338 <__ajit_serial_puts__+0x18>
    8398:	01 00 00 00 	nop 
    839c:	81 e8 00 00 	restore 
    83a0:	81 c3 e0 08 	retl 
    83a4:	01 00 00 00 	nop 

000083a8 <__ajit_serial_gets__>:
    83a8:	9d e3 bf 98 	save  %sp, -104, %sp
    83ac:	f0 27 a0 44 	st  %i0, [ %fp + 0x44 ]
    83b0:	f2 27 a0 48 	st  %i1, [ %fp + 0x48 ]
    83b4:	c0 27 bf fc 	clr  [ %fp + -4 ]
    83b8:	10 80 00 14 	b  8408 <__ajit_serial_gets__+0x60>
    83bc:	01 00 00 00 	nop 
    83c0:	c0 27 bf f8 	clr  [ %fp + -8 ]
    83c4:	10 80 00 05 	b  83d8 <__ajit_serial_gets__+0x30>
    83c8:	01 00 00 00 	nop 
    83cc:	7f ff ff ba 	call  82b4 <__ajit_serial_getchar__>
    83d0:	01 00 00 00 	nop 
    83d4:	d0 27 bf f8 	st  %o0, [ %fp + -8 ]
    83d8:	c2 07 bf f8 	ld  [ %fp + -8 ], %g1
    83dc:	80 a0 60 00 	cmp  %g1, 0
    83e0:	02 bf ff fb 	be  83cc <__ajit_serial_gets__+0x24>
    83e4:	01 00 00 00 	nop 
    83e8:	c2 07 bf fc 	ld  [ %fp + -4 ], %g1
    83ec:	c4 07 a0 44 	ld  [ %fp + 0x44 ], %g2
    83f0:	82 00 80 01 	add  %g2, %g1, %g1
    83f4:	c4 07 bf f8 	ld  [ %fp + -8 ], %g2
    83f8:	c4 28 40 00 	stb  %g2, [ %g1 ]
    83fc:	c2 07 bf fc 	ld  [ %fp + -4 ], %g1
    8400:	82 00 60 01 	inc  %g1
    8404:	c2 27 bf fc 	st  %g1, [ %fp + -4 ]
    8408:	c4 07 bf fc 	ld  [ %fp + -4 ], %g2
    840c:	c2 07 a0 48 	ld  [ %fp + 0x48 ], %g1
    8410:	80 a0 80 01 	cmp  %g2, %g1
    8414:	0a bf ff eb 	bcs  83c0 <__ajit_serial_gets__+0x18>
    8418:	01 00 00 00 	nop 
    841c:	81 e8 00 00 	restore 
    8420:	81 c3 e0 08 	retl 
    8424:	01 00 00 00 	nop 

00008428 <__ajit_write_serial_control_register_via_vmap__>:
    8428:	9d e3 bf a0 	save  %sp, -96, %sp
    842c:	f0 27 a0 44 	st  %i0, [ %fp + 0x44 ]
    8430:	03 3f ff cc 	sethi  %hi(0xffff3000), %g1
    8434:	82 10 62 00 	or  %g1, 0x200, %g1	! ffff3200 <_GLOBAL_OFFSET_TABLE_+0xbfff2f80>
    8438:	c4 07 a0 44 	ld  [ %fp + 0x44 ], %g2
    843c:	c4 20 40 00 	st  %g2, [ %g1 ]
    8440:	81 e8 00 00 	restore 
    8444:	81 c3 e0 08 	retl 
    8448:	01 00 00 00 	nop 

0000844c <__ajit_read_serial_control_register_via_vmap__>:
    844c:	9d e3 bf 98 	save  %sp, -104, %sp
    8450:	03 3f ff cc 	sethi  %hi(0xffff3000), %g1
    8454:	82 10 62 00 	or  %g1, 0x200, %g1	! ffff3200 <_GLOBAL_OFFSET_TABLE_+0xbfff2f80>
    8458:	c2 08 40 00 	ldub  [ %g1 ], %g1
    845c:	82 08 60 ff 	and  %g1, 0xff, %g1
    8460:	c2 27 bf fc 	st  %g1, [ %fp + -4 ]
    8464:	c2 07 bf fc 	ld  [ %fp + -4 ], %g1
    8468:	b0 10 00 01 	mov  %g1, %i0
    846c:	81 e8 00 00 	restore 
    8470:	81 c3 e0 08 	retl 
    8474:	01 00 00 00 	nop 

00008478 <__ajit_write_serial_tx_register_via_vmap__>:
    8478:	9d e3 bf a0 	save  %sp, -96, %sp
    847c:	82 10 00 18 	mov  %i0, %g1
    8480:	c2 2f a0 44 	stb  %g1, [ %fp + 0x44 ]
    8484:	03 3f ff cc 	sethi  %hi(0xffff3000), %g1
    8488:	82 10 62 04 	or  %g1, 0x204, %g1	! ffff3204 <_GLOBAL_OFFSET_TABLE_+0xbfff2f84>
    848c:	c4 0f a0 44 	ldub  [ %fp + 0x44 ], %g2
    8490:	c4 28 40 00 	stb  %g2, [ %g1 ]
    8494:	81 e8 00 00 	restore 
    8498:	81 c3 e0 08 	retl 
    849c:	01 00 00 00 	nop 

000084a0 <__ajit_read_serial_tx_register_via_vmap__>:
    84a0:	9d e3 bf 98 	save  %sp, -104, %sp
    84a4:	03 3f ff cc 	sethi  %hi(0xffff3000), %g1
    84a8:	82 10 62 04 	or  %g1, 0x204, %g1	! ffff3204 <_GLOBAL_OFFSET_TABLE_+0xbfff2f84>
    84ac:	c2 08 40 00 	ldub  [ %g1 ], %g1
    84b0:	c2 2f bf ff 	stb  %g1, [ %fp + -1 ]
    84b4:	c2 0f bf ff 	ldub  [ %fp + -1 ], %g1
    84b8:	82 08 60 ff 	and  %g1, 0xff, %g1
    84bc:	b0 10 00 01 	mov  %g1, %i0
    84c0:	81 e8 00 00 	restore 
    84c4:	81 c3 e0 08 	retl 
    84c8:	01 00 00 00 	nop 

000084cc <__ajit_read_serial_rx_register_via_vmap__>:
    84cc:	9d e3 bf 98 	save  %sp, -104, %sp
    84d0:	03 3f ff cc 	sethi  %hi(0xffff3000), %g1
    84d4:	82 10 62 08 	or  %g1, 0x208, %g1	! ffff3208 <_GLOBAL_OFFSET_TABLE_+0xbfff2f88>
    84d8:	c2 08 40 00 	ldub  [ %g1 ], %g1
    84dc:	c2 2f bf ff 	stb  %g1, [ %fp + -1 ]
    84e0:	c2 0f bf ff 	ldub  [ %fp + -1 ], %g1
    84e4:	82 08 60 ff 	and  %g1, 0xff, %g1
    84e8:	b0 10 00 01 	mov  %g1, %i0
    84ec:	81 e8 00 00 	restore 
    84f0:	81 c3 e0 08 	retl 
    84f4:	01 00 00 00 	nop 

000084f8 <__ajit_serial_putchar_via_vmap__>:
    84f8:	9d e3 bf 98 	save  %sp, -104, %sp
    84fc:	82 10 00 18 	mov  %i0, %g1
    8500:	c2 2f a0 44 	stb  %g1, [ %fp + 0x44 ]
    8504:	c0 27 bf f8 	clr  [ %fp + -8 ]
    8508:	03 3f ff cc 	sethi  %hi(0xffff3000), %g1
    850c:	82 10 62 00 	or  %g1, 0x200, %g1	! ffff3200 <_GLOBAL_OFFSET_TABLE_+0xbfff2f80>
    8510:	c2 00 40 00 	ld  [ %g1 ], %g1
    8514:	c2 27 bf f8 	st  %g1, [ %fp + -8 ]
    8518:	c0 27 bf fc 	clr  [ %fp + -4 ]
    851c:	c2 07 bf f8 	ld  [ %fp + -8 ], %g1
    8520:	82 08 60 01 	and  %g1, 1, %g1
    8524:	80 a0 60 00 	cmp  %g1, 0
    8528:	02 80 00 0f 	be  8564 <__ajit_serial_putchar_via_vmap__+0x6c>
    852c:	01 00 00 00 	nop 
    8530:	c2 07 bf f8 	ld  [ %fp + -8 ], %g1
    8534:	82 08 60 08 	and  %g1, 8, %g1
    8538:	80 a0 60 00 	cmp  %g1, 0
    853c:	12 80 00 0a 	bne  8564 <__ajit_serial_putchar_via_vmap__+0x6c>
    8540:	01 00 00 00 	nop 
    8544:	03 3f ff cc 	sethi  %hi(0xffff3000), %g1
    8548:	82 10 62 04 	or  %g1, 0x204, %g1	! ffff3204 <_GLOBAL_OFFSET_TABLE_+0xbfff2f84>
    854c:	c4 0f a0 44 	ldub  [ %fp + 0x44 ], %g2
    8550:	c4 28 40 00 	stb  %g2, [ %g1 ]
    8554:	c2 0f a0 44 	ldub  [ %fp + 0x44 ], %g1
    8558:	83 28 60 18 	sll  %g1, 0x18, %g1
    855c:	83 38 60 18 	sra  %g1, 0x18, %g1
    8560:	c2 27 bf fc 	st  %g1, [ %fp + -4 ]
    8564:	c2 07 bf fc 	ld  [ %fp + -4 ], %g1
    8568:	b0 10 00 01 	mov  %g1, %i0
    856c:	81 e8 00 00 	restore 
    8570:	81 c3 e0 08 	retl 
    8574:	01 00 00 00 	nop 

00008578 <__ajit_serial_getchar_via_vmap__>:
    8578:	9d e3 bf 90 	save  %sp, -112, %sp
    857c:	c0 27 bf fc 	clr  [ %fp + -4 ]
    8580:	03 3f ff cc 	sethi  %hi(0xffff3000), %g1
    8584:	82 10 62 00 	or  %g1, 0x200, %g1	! ffff3200 <_GLOBAL_OFFSET_TABLE_+0xbfff2f80>
    8588:	c2 00 40 00 	ld  [ %g1 ], %g1
    858c:	c2 27 bf f8 	st  %g1, [ %fp + -8 ]
    8590:	c2 07 bf f8 	ld  [ %fp + -8 ], %g1
    8594:	82 08 60 02 	and  %g1, 2, %g1
    8598:	80 a0 60 00 	cmp  %g1, 0
    859c:	02 80 00 0f 	be  85d8 <__ajit_serial_getchar_via_vmap__+0x60>
    85a0:	01 00 00 00 	nop 
    85a4:	c2 07 bf f8 	ld  [ %fp + -8 ], %g1
    85a8:	82 08 60 10 	and  %g1, 0x10, %g1
    85ac:	80 a0 60 00 	cmp  %g1, 0
    85b0:	02 80 00 0a 	be  85d8 <__ajit_serial_getchar_via_vmap__+0x60>
    85b4:	01 00 00 00 	nop 
    85b8:	c0 27 bf f4 	clr  [ %fp + -12 ]
    85bc:	03 3f ff cc 	sethi  %hi(0xffff3000), %g1
    85c0:	82 10 62 08 	or  %g1, 0x208, %g1	! ffff3208 <_GLOBAL_OFFSET_TABLE_+0xbfff2f88>
    85c4:	c2 08 40 00 	ldub  [ %g1 ], %g1
    85c8:	82 08 60 ff 	and  %g1, 0xff, %g1
    85cc:	c2 27 bf f4 	st  %g1, [ %fp + -12 ]
    85d0:	c2 07 bf f4 	ld  [ %fp + -12 ], %g1
    85d4:	c2 27 bf fc 	st  %g1, [ %fp + -4 ]
    85d8:	c2 07 bf fc 	ld  [ %fp + -4 ], %g1
    85dc:	b0 10 00 01 	mov  %g1, %i0
    85e0:	81 e8 00 00 	restore 
    85e4:	81 c3 e0 08 	retl 
    85e8:	01 00 00 00 	nop 

000085ec <__ajit_serial_puts_via_vmap__>:
    85ec:	9d e3 bf 98 	save  %sp, -104, %sp
    85f0:	f0 27 a0 44 	st  %i0, [ %fp + 0x44 ]
    85f4:	f2 27 a0 48 	st  %i1, [ %fp + 0x48 ]
    85f8:	c0 27 bf fc 	clr  [ %fp + -4 ]
    85fc:	10 80 00 16 	b  8654 <__ajit_serial_puts_via_vmap__+0x68>
    8600:	01 00 00 00 	nop 
    8604:	c0 27 bf f8 	clr  [ %fp + -8 ]
    8608:	10 80 00 0c 	b  8638 <__ajit_serial_puts_via_vmap__+0x4c>
    860c:	01 00 00 00 	nop 
    8610:	c2 07 bf fc 	ld  [ %fp + -4 ], %g1
    8614:	c4 07 a0 44 	ld  [ %fp + 0x44 ], %g2
    8618:	82 00 80 01 	add  %g2, %g1, %g1
    861c:	c2 08 40 00 	ldub  [ %g1 ], %g1
    8620:	83 28 60 18 	sll  %g1, 0x18, %g1
    8624:	83 38 60 18 	sra  %g1, 0x18, %g1
    8628:	90 10 00 01 	mov  %g1, %o0
    862c:	7f ff ff b3 	call  84f8 <__ajit_serial_putchar_via_vmap__>
    8630:	01 00 00 00 	nop 
    8634:	d0 27 bf f8 	st  %o0, [ %fp + -8 ]
    8638:	c2 07 bf f8 	ld  [ %fp + -8 ], %g1
    863c:	80 a0 60 00 	cmp  %g1, 0
    8640:	02 bf ff f4 	be  8610 <__ajit_serial_puts_via_vmap__+0x24>
    8644:	01 00 00 00 	nop 
    8648:	c2 07 bf fc 	ld  [ %fp + -4 ], %g1
    864c:	82 00 60 01 	inc  %g1
    8650:	c2 27 bf fc 	st  %g1, [ %fp + -4 ]
    8654:	c4 07 bf fc 	ld  [ %fp + -4 ], %g2
    8658:	c2 07 a0 48 	ld  [ %fp + 0x48 ], %g1
    865c:	80 a0 80 01 	cmp  %g2, %g1
    8660:	0a bf ff e9 	bcs  8604 <__ajit_serial_puts_via_vmap__+0x18>
    8664:	01 00 00 00 	nop 
    8668:	81 e8 00 00 	restore 
    866c:	81 c3 e0 08 	retl 
    8670:	01 00 00 00 	nop 

00008674 <__ajit_serial_gets_via_vmap__>:
    8674:	9d e3 bf 98 	save  %sp, -104, %sp
    8678:	f0 27 a0 44 	st  %i0, [ %fp + 0x44 ]
    867c:	f2 27 a0 48 	st  %i1, [ %fp + 0x48 ]
    8680:	c0 27 bf fc 	clr  [ %fp + -4 ]
    8684:	10 80 00 14 	b  86d4 <__ajit_serial_gets_via_vmap__+0x60>
    8688:	01 00 00 00 	nop 
    868c:	c0 27 bf f8 	clr  [ %fp + -8 ]
    8690:	10 80 00 05 	b  86a4 <__ajit_serial_gets_via_vmap__+0x30>
    8694:	01 00 00 00 	nop 
    8698:	7f ff ff b8 	call  8578 <__ajit_serial_getchar_via_vmap__>
    869c:	01 00 00 00 	nop 
    86a0:	d0 27 bf f8 	st  %o0, [ %fp + -8 ]
    86a4:	c2 07 bf f8 	ld  [ %fp + -8 ], %g1
    86a8:	80 a0 60 00 	cmp  %g1, 0
    86ac:	02 bf ff fb 	be  8698 <__ajit_serial_gets_via_vmap__+0x24>
    86b0:	01 00 00 00 	nop 
    86b4:	c2 07 bf fc 	ld  [ %fp + -4 ], %g1
    86b8:	c4 07 a0 44 	ld  [ %fp + 0x44 ], %g2
    86bc:	82 00 80 01 	add  %g2, %g1, %g1
    86c0:	c4 07 bf f8 	ld  [ %fp + -8 ], %g2
    86c4:	c4 28 40 00 	stb  %g2, [ %g1 ]
    86c8:	c2 07 bf fc 	ld  [ %fp + -4 ], %g1
    86cc:	82 00 60 01 	inc  %g1
    86d0:	c2 27 bf fc 	st  %g1, [ %fp + -4 ]
    86d4:	c4 07 bf fc 	ld  [ %fp + -4 ], %g2
    86d8:	c2 07 a0 48 	ld  [ %fp + 0x48 ], %g1
    86dc:	80 a0 80 01 	cmp  %g2, %g1
    86e0:	0a bf ff eb 	bcs  868c <__ajit_serial_gets_via_vmap__+0x18>
    86e4:	01 00 00 00 	nop 
    86e8:	81 e8 00 00 	restore 
    86ec:	81 c3 e0 08 	retl 
    86f0:	01 00 00 00 	nop 

000086f4 <__ajit_serial_configure_via_vmap__>:
    86f4:	9d e3 bf 98 	save  %sp, -104, %sp
    86f8:	86 10 00 18 	mov  %i0, %g3
    86fc:	84 10 00 19 	mov  %i1, %g2
    8700:	82 10 00 1a 	mov  %i2, %g1
    8704:	c6 2f a0 44 	stb  %g3, [ %fp + 0x44 ]
    8708:	c4 2f a0 48 	stb  %g2, [ %fp + 0x48 ]
    870c:	c2 2f a0 4c 	stb  %g1, [ %fp + 0x4c ]
    8710:	03 3f ff cc 	sethi  %hi(0xffff3000), %g1
    8714:	82 10 62 00 	or  %g1, 0x200, %g1	! ffff3200 <_GLOBAL_OFFSET_TABLE_+0xbfff2f80>
    8718:	c2 00 40 00 	ld  [ %g1 ], %g1
    871c:	c2 27 bf fc 	st  %g1, [ %fp + -4 ]
    8720:	c2 0f a0 44 	ldub  [ %fp + 0x44 ], %g1
    8724:	82 08 60 ff 	and  %g1, 0xff, %g1
    8728:	80 a0 60 00 	cmp  %g1, 0
    872c:	02 80 00 07 	be  8748 <__ajit_serial_configure_via_vmap__+0x54>
    8730:	01 00 00 00 	nop 
    8734:	c2 07 bf fc 	ld  [ %fp + -4 ], %g1
    8738:	82 10 60 01 	or  %g1, 1, %g1
    873c:	c2 27 bf fc 	st  %g1, [ %fp + -4 ]
    8740:	10 80 00 05 	b  8754 <__ajit_serial_configure_via_vmap__+0x60>
    8744:	01 00 00 00 	nop 
    8748:	c2 07 bf fc 	ld  [ %fp + -4 ], %g1
    874c:	82 08 7f fe 	and  %g1, -2, %g1
    8750:	c2 27 bf fc 	st  %g1, [ %fp + -4 ]
    8754:	c2 0f a0 48 	ldub  [ %fp + 0x48 ], %g1
    8758:	82 08 60 ff 	and  %g1, 0xff, %g1
    875c:	80 a0 60 00 	cmp  %g1, 0
    8760:	02 80 00 07 	be  877c <__ajit_serial_configure_via_vmap__+0x88>
    8764:	01 00 00 00 	nop 
    8768:	c2 07 bf fc 	ld  [ %fp + -4 ], %g1
    876c:	82 10 60 02 	or  %g1, 2, %g1
    8770:	c2 27 bf fc 	st  %g1, [ %fp + -4 ]
    8774:	10 80 00 05 	b  8788 <__ajit_serial_configure_via_vmap__+0x94>
    8778:	01 00 00 00 	nop 
    877c:	c2 07 bf fc 	ld  [ %fp + -4 ], %g1
    8780:	82 08 7f fd 	and  %g1, -3, %g1
    8784:	c2 27 bf fc 	st  %g1, [ %fp + -4 ]
    8788:	c2 0f a0 4c 	ldub  [ %fp + 0x4c ], %g1
    878c:	82 08 60 ff 	and  %g1, 0xff, %g1
    8790:	80 a0 60 00 	cmp  %g1, 0
    8794:	02 80 00 07 	be  87b0 <__ajit_serial_configure_via_vmap__+0xbc>
    8798:	01 00 00 00 	nop 
    879c:	c2 07 bf fc 	ld  [ %fp + -4 ], %g1
    87a0:	82 10 60 04 	or  %g1, 4, %g1
    87a4:	c2 27 bf fc 	st  %g1, [ %fp + -4 ]
    87a8:	10 80 00 05 	b  87bc <__ajit_serial_configure_via_vmap__+0xc8>
    87ac:	01 00 00 00 	nop 
    87b0:	c2 07 bf fc 	ld  [ %fp + -4 ], %g1
    87b4:	82 08 7f fb 	and  %g1, -5, %g1
    87b8:	c2 27 bf fc 	st  %g1, [ %fp + -4 ]
    87bc:	03 3f ff cc 	sethi  %hi(0xffff3000), %g1
    87c0:	82 10 62 00 	or  %g1, 0x200, %g1	! ffff3200 <_GLOBAL_OFFSET_TABLE_+0xbfff2f80>
    87c4:	c4 07 bf fc 	ld  [ %fp + -4 ], %g2
    87c8:	c4 20 40 00 	st  %g2, [ %g1 ]
    87cc:	81 e8 00 00 	restore 
    87d0:	81 c3 e0 08 	retl 
    87d4:	01 00 00 00 	nop 

000087d8 <__ajit_serial_uart_reset_via_vmap__>:
    87d8:	9d e3 bf a0 	save  %sp, -96, %sp
    87dc:	90 10 20 01 	mov  1, %o0
    87e0:	40 00 00 05 	call  87f4 <__ajit_serial_uart_reset_inner__>
    87e4:	01 00 00 00 	nop 
    87e8:	81 e8 00 00 	restore 
    87ec:	81 c3 e0 08 	retl 
    87f0:	01 00 00 00 	nop 

000087f4 <__ajit_serial_uart_reset_inner__>:
    87f4:	9d e3 bf 98 	save  %sp, -104, %sp
    87f8:	82 10 00 18 	mov  %i0, %g1
    87fc:	c2 2f a0 44 	stb  %g1, [ %fp + 0x44 ]
    8800:	82 10 20 08 	mov  8, %g1
    8804:	c2 27 bf fc 	st  %g1, [ %fp + -4 ]
    8808:	c2 0f a0 44 	ldub  [ %fp + 0x44 ], %g1
    880c:	82 08 60 ff 	and  %g1, 0xff, %g1
    8810:	80 a0 60 00 	cmp  %g1, 0
    8814:	02 80 00 0d 	be  8848 <__ajit_serial_uart_reset_inner__+0x54>
    8818:	01 00 00 00 	nop 
    881c:	7f ff ff 0c 	call  844c <__ajit_read_serial_control_register_via_vmap__>
    8820:	01 00 00 00 	nop 
    8824:	d0 27 bf f8 	st  %o0, [ %fp + -8 ]
    8828:	d0 07 bf fc 	ld  [ %fp + -4 ], %o0
    882c:	7f ff fe ff 	call  8428 <__ajit_write_serial_control_register_via_vmap__>
    8830:	01 00 00 00 	nop 
    8834:	d0 07 bf f8 	ld  [ %fp + -8 ], %o0
    8838:	7f ff fe fc 	call  8428 <__ajit_write_serial_control_register_via_vmap__>
    883c:	01 00 00 00 	nop 
    8840:	10 80 00 0b 	b  886c <__ajit_serial_uart_reset_inner__+0x78>
    8844:	01 00 00 00 	nop 
    8848:	7f ff fe 46 	call  8160 <__ajit_read_serial_control_register__>
    884c:	01 00 00 00 	nop 
    8850:	d0 27 bf f8 	st  %o0, [ %fp + -8 ]
    8854:	d0 07 bf fc 	ld  [ %fp + -4 ], %o0
    8858:	7f ff fd 7e 	call  7e50 <__ajit_write_serial_control_register__>
    885c:	01 00 00 00 	nop 
    8860:	d0 07 bf f8 	ld  [ %fp + -8 ], %o0
    8864:	7f ff fd 7b 	call  7e50 <__ajit_write_serial_control_register__>
    8868:	01 00 00 00 	nop 
    886c:	81 e8 00 00 	restore 
    8870:	81 c3 e0 08 	retl 
    8874:	01 00 00 00 	nop 

00008878 <__ajit_write_irc_control_register__>:
    8878:	9d e3 bf 98 	save  %sp, -104, %sp
    887c:	f0 27 a0 44 	st  %i0, [ %fp + 0x44 ]
    8880:	03 3f ff cc 	sethi  %hi(0xffff3000), %g1
    8884:	c2 27 bf fc 	st  %g1, [ %fp + -4 ]
    8888:	d0 07 a0 44 	ld  [ %fp + 0x44 ], %o0
    888c:	d2 07 bf fc 	ld  [ %fp + -4 ], %o1
    8890:	7f ff fd 1f 	call  7d0c <__ajit_store_word_mmu_bypass__>
    8894:	01 00 00 00 	nop 
    8898:	81 e8 00 00 	restore 
    889c:	81 c3 e0 08 	retl 
    88a0:	01 00 00 00 	nop 

000088a4 <__ajit_read_irc_control_register__>:
    88a4:	9d e3 bf 98 	save  %sp, -104, %sp
    88a8:	03 3f ff cc 	sethi  %hi(0xffff3000), %g1
    88ac:	c2 27 bf fc 	st  %g1, [ %fp + -4 ]
    88b0:	d0 07 bf fc 	ld  [ %fp + -4 ], %o0
    88b4:	7f ff fd 29 	call  7d58 <__ajit_load_word_mmu_bypass__>
    88b8:	01 00 00 00 	nop 
    88bc:	d0 27 bf f8 	st  %o0, [ %fp + -8 ]
    88c0:	c2 07 bf f8 	ld  [ %fp + -8 ], %g1
    88c4:	b0 10 00 01 	mov  %g1, %i0
    88c8:	81 e8 00 00 	restore 
    88cc:	81 c3 e0 08 	retl 
    88d0:	01 00 00 00 	nop 

000088d4 <__ajit_write_irc_control_register_via_vmap__>:
    88d4:	9d e3 bf a0 	save  %sp, -96, %sp
    88d8:	f0 27 a0 44 	st  %i0, [ %fp + 0x44 ]
    88dc:	03 3f ff cc 	sethi  %hi(0xffff3000), %g1
    88e0:	c4 07 a0 44 	ld  [ %fp + 0x44 ], %g2
    88e4:	c4 20 40 00 	st  %g2, [ %g1 ]
    88e8:	81 e8 00 00 	restore 
    88ec:	81 c3 e0 08 	retl 
    88f0:	01 00 00 00 	nop 

000088f4 <__ajit_read_irc_control_register_via_vmap__>:
    88f4:	9d e3 bf 98 	save  %sp, -104, %sp
    88f8:	03 3f ff cc 	sethi  %hi(0xffff3000), %g1
    88fc:	c2 00 40 00 	ld  [ %g1 ], %g1
    8900:	c2 27 bf fc 	st  %g1, [ %fp + -4 ]
    8904:	c2 07 bf fc 	ld  [ %fp + -4 ], %g1
    8908:	b0 10 00 01 	mov  %g1, %i0
    890c:	81 e8 00 00 	restore 
    8910:	81 c3 e0 08 	retl 
    8914:	01 00 00 00 	nop 

00008918 <__ajit_write_spi_master_register__>:
    8918:	9d e3 bf 98 	save  %sp, -104, %sp
    891c:	84 10 00 18 	mov  %i0, %g2
    8920:	82 10 00 19 	mov  %i1, %g1
    8924:	c4 2f a0 44 	stb  %g2, [ %fp + 0x44 ]
    8928:	c2 2f a0 48 	stb  %g1, [ %fp + 0x48 ]
    892c:	c2 0f a0 44 	ldub  [ %fp + 0x44 ], %g1
    8930:	82 08 60 ff 	and  %g1, 0xff, %g1
    8934:	83 28 60 02 	sll  %g1, 2, %g1
    8938:	84 10 00 01 	mov  %g1, %g2
    893c:	03 3f ff cc 	sethi  %hi(0xffff3000), %g1
    8940:	82 10 63 00 	or  %g1, 0x300, %g1	! ffff3300 <_GLOBAL_OFFSET_TABLE_+0xbfff3080>
    8944:	82 00 80 01 	add  %g2, %g1, %g1
    8948:	c2 27 bf fc 	st  %g1, [ %fp + -4 ]
    894c:	c2 0f a0 48 	ldub  [ %fp + 0x48 ], %g1
    8950:	82 08 60 ff 	and  %g1, 0xff, %g1
    8954:	90 10 00 01 	mov  %g1, %o0
    8958:	d2 07 bf fc 	ld  [ %fp + -4 ], %o1
    895c:	7f ff fc ec 	call  7d0c <__ajit_store_word_mmu_bypass__>
    8960:	01 00 00 00 	nop 
    8964:	81 e8 00 00 	restore 
    8968:	81 c3 e0 08 	retl 
    896c:	01 00 00 00 	nop 

00008970 <__ajit_write_spi_master_register_via_vmap__>:
    8970:	9d e3 bf 98 	save  %sp, -104, %sp
    8974:	84 10 00 18 	mov  %i0, %g2
    8978:	82 10 00 19 	mov  %i1, %g1
    897c:	c4 2f a0 44 	stb  %g2, [ %fp + 0x44 ]
    8980:	c2 2f a0 48 	stb  %g1, [ %fp + 0x48 ]
    8984:	c2 0f a0 44 	ldub  [ %fp + 0x44 ], %g1
    8988:	82 08 60 ff 	and  %g1, 0xff, %g1
    898c:	83 28 60 02 	sll  %g1, 2, %g1
    8990:	84 10 00 01 	mov  %g1, %g2
    8994:	03 3f ff cc 	sethi  %hi(0xffff3000), %g1
    8998:	82 10 63 00 	or  %g1, 0x300, %g1	! ffff3300 <_GLOBAL_OFFSET_TABLE_+0xbfff3080>
    899c:	82 00 80 01 	add  %g2, %g1, %g1
    89a0:	c2 27 bf fc 	st  %g1, [ %fp + -4 ]
    89a4:	c2 07 bf fc 	ld  [ %fp + -4 ], %g1
    89a8:	c4 0f a0 48 	ldub  [ %fp + 0x48 ], %g2
    89ac:	c4 28 40 00 	stb  %g2, [ %g1 ]
    89b0:	81 e8 00 00 	restore 
    89b4:	81 c3 e0 08 	retl 
    89b8:	01 00 00 00 	nop 

000089bc <__ajit_read_spi_master_register__>:
    89bc:	9d e3 bf 98 	save  %sp, -104, %sp
    89c0:	82 10 00 18 	mov  %i0, %g1
    89c4:	c2 2f a0 44 	stb  %g1, [ %fp + 0x44 ]
    89c8:	c2 0f a0 44 	ldub  [ %fp + 0x44 ], %g1
    89cc:	82 08 60 ff 	and  %g1, 0xff, %g1
    89d0:	83 28 60 02 	sll  %g1, 2, %g1
    89d4:	84 10 00 01 	mov  %g1, %g2
    89d8:	03 3f ff cc 	sethi  %hi(0xffff3000), %g1
    89dc:	82 10 63 00 	or  %g1, 0x300, %g1	! ffff3300 <_GLOBAL_OFFSET_TABLE_+0xbfff3080>
    89e0:	82 00 80 01 	add  %g2, %g1, %g1
    89e4:	c2 27 bf fc 	st  %g1, [ %fp + -4 ]
    89e8:	d0 07 bf fc 	ld  [ %fp + -4 ], %o0
    89ec:	7f ff fc db 	call  7d58 <__ajit_load_word_mmu_bypass__>
    89f0:	01 00 00 00 	nop 
    89f4:	d0 27 bf f8 	st  %o0, [ %fp + -8 ]
    89f8:	c2 07 bf f8 	ld  [ %fp + -8 ], %g1
    89fc:	82 08 60 ff 	and  %g1, 0xff, %g1
    8a00:	b0 10 00 01 	mov  %g1, %i0
    8a04:	81 e8 00 00 	restore 
    8a08:	81 c3 e0 08 	retl 
    8a0c:	01 00 00 00 	nop 

00008a10 <__ajit_read_spi_master_register_via_vmap__>:
    8a10:	9d e3 bf 98 	save  %sp, -104, %sp
    8a14:	82 10 00 18 	mov  %i0, %g1
    8a18:	c2 2f a0 44 	stb  %g1, [ %fp + 0x44 ]
    8a1c:	c2 0f a0 44 	ldub  [ %fp + 0x44 ], %g1
    8a20:	82 08 60 ff 	and  %g1, 0xff, %g1
    8a24:	83 28 60 02 	sll  %g1, 2, %g1
    8a28:	84 10 00 01 	mov  %g1, %g2
    8a2c:	03 3f ff cc 	sethi  %hi(0xffff3000), %g1
    8a30:	82 10 63 00 	or  %g1, 0x300, %g1	! ffff3300 <_GLOBAL_OFFSET_TABLE_+0xbfff3080>
    8a34:	82 00 80 01 	add  %g2, %g1, %g1
    8a38:	c2 27 bf fc 	st  %g1, [ %fp + -4 ]
    8a3c:	c2 07 bf fc 	ld  [ %fp + -4 ], %g1
    8a40:	c2 08 40 00 	ldub  [ %g1 ], %g1
    8a44:	82 08 60 ff 	and  %g1, 0xff, %g1
    8a48:	c2 27 bf f8 	st  %g1, [ %fp + -8 ]
    8a4c:	c2 07 bf f8 	ld  [ %fp + -8 ], %g1
    8a50:	82 08 60 ff 	and  %g1, 0xff, %g1
    8a54:	b0 10 00 01 	mov  %g1, %i0
    8a58:	81 e8 00 00 	restore 
    8a5c:	81 c3 e0 08 	retl 
    8a60:	01 00 00 00 	nop 

00008a64 <__ajit_gpio_xfer__>:
    8a64:	9d e3 bf 90 	save  %sp, -112, %sp
    8a68:	82 10 00 18 	mov  %i0, %g1
    8a6c:	c2 2f a0 44 	stb  %g1, [ %fp + 0x44 ]
    8a70:	c0 27 bf f4 	clr  [ %fp + -12 ]
    8a74:	82 10 20 01 	mov  1, %g1
    8a78:	c2 27 bf f8 	st  %g1, [ %fp + -8 ]
    8a7c:	c2 0f a0 44 	ldub  [ %fp + 0x44 ], %g1
    8a80:	82 08 60 ff 	and  %g1, 0xff, %g1
    8a84:	90 10 20 00 	clr  %o0
    8a88:	92 10 00 01 	mov  %g1, %o1
    8a8c:	7f ff ff a3 	call  8918 <__ajit_write_spi_master_register__>
    8a90:	01 00 00 00 	nop 
    8a94:	82 10 20 13 	mov  0x13, %g1	! 13 <_start+0x13>
    8a98:	c2 2f bf f3 	stb  %g1, [ %fp + -13 ]
    8a9c:	c2 0f bf f3 	ldub  [ %fp + -13 ], %g1
    8aa0:	82 08 60 ff 	and  %g1, 0xff, %g1
    8aa4:	90 10 20 02 	mov  2, %o0
    8aa8:	92 10 00 01 	mov  %g1, %o1
    8aac:	7f ff ff 9b 	call  8918 <__ajit_write_spi_master_register__>
    8ab0:	01 00 00 00 	nop 
    8ab4:	82 10 21 00 	mov  0x100, %g1	! 100 <instr_section+0x70>
    8ab8:	c2 27 bf fc 	st  %g1, [ %fp + -4 ]
    8abc:	10 80 00 0b 	b  8ae8 <__ajit_gpio_xfer__+0x84>
    8ac0:	01 00 00 00 	nop 
    8ac4:	90 10 20 02 	mov  2, %o0	! 2 <_start+0x2>
    8ac8:	7f ff ff bd 	call  89bc <__ajit_read_spi_master_register__>
    8acc:	01 00 00 00 	nop 
    8ad0:	82 10 00 08 	mov  %o0, %g1
    8ad4:	82 08 60 ff 	and  %g1, 0xff, %g1
    8ad8:	c2 27 bf f8 	st  %g1, [ %fp + -8 ]
    8adc:	c2 07 bf fc 	ld  [ %fp + -4 ], %g1
    8ae0:	82 00 7f ff 	add  %g1, -1, %g1
    8ae4:	c2 27 bf fc 	st  %g1, [ %fp + -4 ]
    8ae8:	c2 07 bf fc 	ld  [ %fp + -4 ], %g1
    8aec:	85 38 60 1f 	sra  %g1, 0x1f, %g2
    8af0:	c2 07 bf fc 	ld  [ %fp + -4 ], %g1
    8af4:	82 20 80 01 	sub  %g2, %g1, %g1
    8af8:	83 30 60 1f 	srl  %g1, 0x1f, %g1
    8afc:	84 08 60 ff 	and  %g1, 0xff, %g2
    8b00:	c2 07 bf f8 	ld  [ %fp + -8 ], %g1
    8b04:	82 08 80 01 	and  %g2, %g1, %g1
    8b08:	80 a0 60 00 	cmp  %g1, 0
    8b0c:	12 bf ff ee 	bne  8ac4 <__ajit_gpio_xfer__+0x60>
    8b10:	01 00 00 00 	nop 
    8b14:	90 10 20 00 	clr  %o0	! 0 <_start>
    8b18:	7f ff ff a9 	call  89bc <__ajit_read_spi_master_register__>
    8b1c:	01 00 00 00 	nop 
    8b20:	82 10 00 08 	mov  %o0, %g1
    8b24:	82 08 60 ff 	and  %g1, 0xff, %g1
    8b28:	c2 27 bf f4 	st  %g1, [ %fp + -12 ]
    8b2c:	c2 07 bf f4 	ld  [ %fp + -12 ], %g1
    8b30:	b0 10 00 01 	mov  %g1, %i0
    8b34:	81 e8 00 00 	restore 
    8b38:	81 c3 e0 08 	retl 
    8b3c:	01 00 00 00 	nop 

00008b40 <__ajit_gpio_xfer_via_vmap__>:
    8b40:	9d e3 bf 90 	save  %sp, -112, %sp
    8b44:	82 10 00 18 	mov  %i0, %g1
    8b48:	c2 2f a0 44 	stb  %g1, [ %fp + 0x44 ]
    8b4c:	c0 27 bf f4 	clr  [ %fp + -12 ]
    8b50:	82 10 20 01 	mov  1, %g1
    8b54:	c2 27 bf f8 	st  %g1, [ %fp + -8 ]
    8b58:	c2 0f a0 44 	ldub  [ %fp + 0x44 ], %g1
    8b5c:	82 08 60 ff 	and  %g1, 0xff, %g1
    8b60:	90 10 20 00 	clr  %o0
    8b64:	92 10 00 01 	mov  %g1, %o1
    8b68:	7f ff ff 82 	call  8970 <__ajit_write_spi_master_register_via_vmap__>
    8b6c:	01 00 00 00 	nop 
    8b70:	82 10 20 13 	mov  0x13, %g1	! 13 <_start+0x13>
    8b74:	c2 2f bf f3 	stb  %g1, [ %fp + -13 ]
    8b78:	c2 0f bf f3 	ldub  [ %fp + -13 ], %g1
    8b7c:	82 08 60 ff 	and  %g1, 0xff, %g1
    8b80:	90 10 20 02 	mov  2, %o0
    8b84:	92 10 00 01 	mov  %g1, %o1
    8b88:	7f ff ff 7a 	call  8970 <__ajit_write_spi_master_register_via_vmap__>
    8b8c:	01 00 00 00 	nop 
    8b90:	82 10 21 00 	mov  0x100, %g1	! 100 <instr_section+0x70>
    8b94:	c2 27 bf fc 	st  %g1, [ %fp + -4 ]
    8b98:	10 80 00 0b 	b  8bc4 <__ajit_gpio_xfer_via_vmap__+0x84>
    8b9c:	01 00 00 00 	nop 
    8ba0:	90 10 20 02 	mov  2, %o0	! 2 <_start+0x2>
    8ba4:	7f ff ff 9b 	call  8a10 <__ajit_read_spi_master_register_via_vmap__>
    8ba8:	01 00 00 00 	nop 
    8bac:	82 10 00 08 	mov  %o0, %g1
    8bb0:	82 08 60 ff 	and  %g1, 0xff, %g1
    8bb4:	c2 27 bf f8 	st  %g1, [ %fp + -8 ]
    8bb8:	c2 07 bf fc 	ld  [ %fp + -4 ], %g1
    8bbc:	82 00 7f ff 	add  %g1, -1, %g1
    8bc0:	c2 27 bf fc 	st  %g1, [ %fp + -4 ]
    8bc4:	c2 07 bf fc 	ld  [ %fp + -4 ], %g1
    8bc8:	85 38 60 1f 	sra  %g1, 0x1f, %g2
    8bcc:	c2 07 bf fc 	ld  [ %fp + -4 ], %g1
    8bd0:	82 20 80 01 	sub  %g2, %g1, %g1
    8bd4:	83 30 60 1f 	srl  %g1, 0x1f, %g1
    8bd8:	84 08 60 ff 	and  %g1, 0xff, %g2
    8bdc:	c2 07 bf f8 	ld  [ %fp + -8 ], %g1
    8be0:	82 08 80 01 	and  %g2, %g1, %g1
    8be4:	80 a0 60 00 	cmp  %g1, 0
    8be8:	12 bf ff ee 	bne  8ba0 <__ajit_gpio_xfer_via_vmap__+0x60>
    8bec:	01 00 00 00 	nop 
    8bf0:	90 10 20 00 	clr  %o0	! 0 <_start>
    8bf4:	7f ff ff 87 	call  8a10 <__ajit_read_spi_master_register_via_vmap__>
    8bf8:	01 00 00 00 	nop 
    8bfc:	82 10 00 08 	mov  %o0, %g1
    8c00:	82 08 60 ff 	and  %g1, 0xff, %g1
    8c04:	c2 27 bf f4 	st  %g1, [ %fp + -12 ]
    8c08:	c2 07 bf f4 	ld  [ %fp + -12 ], %g1
    8c0c:	b0 10 00 01 	mov  %g1, %i0
    8c10:	81 e8 00 00 	restore 
    8c14:	81 c3 e0 08 	retl 
    8c18:	01 00 00 00 	nop 

00008c1c <__ajit_ta_0__>:
    8c1c:	9d e3 bf a0 	save  %sp, -96, %sp
    8c20:	91 d0 20 00 	ta  0
    8c24:	01 00 00 00 	nop 
    8c28:	01 00 00 00 	nop 
    8c2c:	81 e8 00 00 	restore 
    8c30:	81 c3 e0 08 	retl 
    8c34:	01 00 00 00 	nop 

00008c38 <__ajit_fsqrtd__>:
    8c38:	9d e3 bf a0 	save  %sp, -96, %sp
    8c3c:	f0 27 a0 44 	st  %i0, [ %fp + 0x44 ]
    8c40:	f2 27 a0 48 	st  %i1, [ %fp + 0x48 ]
    8c44:	c2 07 a0 44 	ld  [ %fp + 0x44 ], %g1
    8c48:	c4 07 a0 48 	ld  [ %fp + 0x48 ], %g2
    8c4c:	c1 18 40 00 	ldd  [ %g1 ], %f0
    8c50:	85 a0 05 40 	fsqrtd  %f0, %f2
    8c54:	c5 38 80 00 	std  %f2, [ %g2 ]
    8c58:	81 e8 00 00 	restore 
    8c5c:	81 c3 e0 08 	retl 
    8c60:	01 00 00 00 	nop 

00008c64 <__ajit_fsqrts__>:
    8c64:	9d e3 bf a0 	save  %sp, -96, %sp
    8c68:	f0 27 a0 44 	st  %i0, [ %fp + 0x44 ]
    8c6c:	f2 27 a0 48 	st  %i1, [ %fp + 0x48 ]
    8c70:	c2 07 a0 44 	ld  [ %fp + 0x44 ], %g1
    8c74:	c4 07 a0 48 	ld  [ %fp + 0x48 ], %g2
    8c78:	c1 00 40 00 	ld  [ %g1 ], %f0
    8c7c:	83 a0 05 20 	fsqrts  %f0, %f1
    8c80:	c3 20 80 00 	st  %f1, [ %g2 ]
    8c84:	81 e8 00 00 	restore 
    8c88:	81 c3 e0 08 	retl 
    8c8c:	01 00 00 00 	nop 

00008c90 <__ajit_fitod__>:
    8c90:	9d e3 bf a0 	save  %sp, -96, %sp
    8c94:	f0 27 a0 44 	st  %i0, [ %fp + 0x44 ]
    8c98:	f2 27 a0 48 	st  %i1, [ %fp + 0x48 ]
    8c9c:	c2 07 a0 44 	ld  [ %fp + 0x44 ], %g1
    8ca0:	c4 07 a0 48 	ld  [ %fp + 0x48 ], %g2
    8ca4:	c1 00 40 00 	ld  [ %g1 ], %f0
    8ca8:	85 a0 19 00 	fitod  %f0, %f2
    8cac:	c5 38 80 00 	std  %f2, [ %g2 ]
    8cb0:	81 e8 00 00 	restore 
    8cb4:	81 c3 e0 08 	retl 
    8cb8:	01 00 00 00 	nop 

00008cbc <__ajit_fitos__>:
    8cbc:	9d e3 bf a0 	save  %sp, -96, %sp
    8cc0:	f0 27 a0 44 	st  %i0, [ %fp + 0x44 ]
    8cc4:	f2 27 a0 48 	st  %i1, [ %fp + 0x48 ]
    8cc8:	c2 07 a0 44 	ld  [ %fp + 0x44 ], %g1
    8ccc:	c4 07 a0 48 	ld  [ %fp + 0x48 ], %g2
    8cd0:	c1 00 40 00 	ld  [ %g1 ], %f0
    8cd4:	83 a0 18 80 	fitos  %f0, %f1
    8cd8:	c3 20 80 00 	st  %f1, [ %g2 ]
    8cdc:	81 e8 00 00 	restore 
    8ce0:	81 c3 e0 08 	retl 
    8ce4:	01 00 00 00 	nop 

00008ce8 <__ajit_fdtoi__>:
    8ce8:	9d e3 bf a0 	save  %sp, -96, %sp
    8cec:	f0 27 a0 44 	st  %i0, [ %fp + 0x44 ]
    8cf0:	f2 27 a0 48 	st  %i1, [ %fp + 0x48 ]
    8cf4:	c2 07 a0 44 	ld  [ %fp + 0x44 ], %g1
    8cf8:	c4 07 a0 48 	ld  [ %fp + 0x48 ], %g2
    8cfc:	c1 18 40 00 	ldd  [ %g1 ], %f0
    8d00:	85 a0 1a 40 	fdtoi  %f0, %f2
    8d04:	c5 20 80 00 	st  %f2, [ %g2 ]
    8d08:	81 e8 00 00 	restore 
    8d0c:	81 c3 e0 08 	retl 
    8d10:	01 00 00 00 	nop 

00008d14 <__ajit_fstoi__>:
    8d14:	9d e3 bf a0 	save  %sp, -96, %sp
    8d18:	f0 27 a0 44 	st  %i0, [ %fp + 0x44 ]
    8d1c:	f2 27 a0 48 	st  %i1, [ %fp + 0x48 ]
    8d20:	c2 07 a0 44 	ld  [ %fp + 0x44 ], %g1
    8d24:	c4 07 a0 48 	ld  [ %fp + 0x48 ], %g2
    8d28:	c1 00 40 00 	ld  [ %g1 ], %f0
    8d2c:	83 a0 1a 20 	fstoi  %f0, %f1
    8d30:	c3 20 80 00 	st  %f1, [ %g2 ]
    8d34:	81 e8 00 00 	restore 
    8d38:	81 c3 e0 08 	retl 
    8d3c:	01 00 00 00 	nop 

00008d40 <generate_opcode_10>:
    8d40:	9d e3 bf 98 	save  %sp, -104, %sp
    8d44:	f0 27 a0 44 	st  %i0, [ %fp + 0x44 ]
    8d48:	f2 27 a0 48 	st  %i1, [ %fp + 0x48 ]
    8d4c:	f4 27 a0 4c 	st  %i2, [ %fp + 0x4c ]
    8d50:	f6 27 a0 50 	st  %i3, [ %fp + 0x50 ]
    8d54:	84 10 00 1c 	mov  %i4, %g2
    8d58:	82 10 00 1d 	mov  %i5, %g1
    8d5c:	c4 2f a0 54 	stb  %g2, [ %fp + 0x54 ]
    8d60:	c2 37 a0 58 	sth  %g1, [ %fp + 0x58 ]
    8d64:	03 20 00 00 	sethi  %hi(0x80000000), %g1
    8d68:	c2 27 bf fc 	st  %g1, [ %fp + -4 ]
    8d6c:	c2 07 a0 44 	ld  [ %fp + 0x44 ], %g1
    8d70:	83 28 60 19 	sll  %g1, 0x19, %g1
    8d74:	c4 07 bf fc 	ld  [ %fp + -4 ], %g2
    8d78:	82 10 80 01 	or  %g2, %g1, %g1
    8d7c:	c2 27 bf fc 	st  %g1, [ %fp + -4 ]
    8d80:	c2 07 a0 50 	ld  [ %fp + 0x50 ], %g1
    8d84:	83 28 60 13 	sll  %g1, 0x13, %g1
    8d88:	c4 07 bf fc 	ld  [ %fp + -4 ], %g2
    8d8c:	82 10 80 01 	or  %g2, %g1, %g1
    8d90:	c2 27 bf fc 	st  %g1, [ %fp + -4 ]
    8d94:	c2 07 a0 48 	ld  [ %fp + 0x48 ], %g1
    8d98:	83 28 60 0e 	sll  %g1, 0xe, %g1
    8d9c:	c4 07 bf fc 	ld  [ %fp + -4 ], %g2
    8da0:	82 10 80 01 	or  %g2, %g1, %g1
    8da4:	c2 27 bf fc 	st  %g1, [ %fp + -4 ]
    8da8:	c2 0f a0 54 	ldub  [ %fp + 0x54 ], %g1
    8dac:	83 28 60 18 	sll  %g1, 0x18, %g1
    8db0:	83 38 60 18 	sra  %g1, 0x18, %g1
    8db4:	80 a0 60 01 	cmp  %g1, 1
    8db8:	12 80 00 0e 	bne  8df0 <generate_opcode_10+0xb0>
    8dbc:	01 00 00 00 	nop 
    8dc0:	c4 07 bf fc 	ld  [ %fp + -4 ], %g2
    8dc4:	03 00 00 08 	sethi  %hi(0x2000), %g1
    8dc8:	82 10 80 01 	or  %g2, %g1, %g1
    8dcc:	c2 27 bf fc 	st  %g1, [ %fp + -4 ]
    8dd0:	c2 17 a0 58 	lduh  [ %fp + 0x58 ], %g1
    8dd4:	83 28 60 10 	sll  %g1, 0x10, %g1
    8dd8:	83 30 60 10 	srl  %g1, 0x10, %g1
    8ddc:	c4 07 bf fc 	ld  [ %fp + -4 ], %g2
    8de0:	82 10 80 01 	or  %g2, %g1, %g1
    8de4:	c2 27 bf fc 	st  %g1, [ %fp + -4 ]
    8de8:	10 80 00 06 	b  8e00 <generate_opcode_10+0xc0>
    8dec:	01 00 00 00 	nop 
    8df0:	c4 07 bf fc 	ld  [ %fp + -4 ], %g2
    8df4:	c2 07 a0 4c 	ld  [ %fp + 0x4c ], %g1
    8df8:	82 10 80 01 	or  %g2, %g1, %g1
    8dfc:	c2 27 bf fc 	st  %g1, [ %fp + -4 ]
    8e00:	c2 07 bf fc 	ld  [ %fp + -4 ], %g1
    8e04:	b0 10 00 01 	mov  %g1, %i0
    8e08:	81 e8 00 00 	restore 
    8e0c:	81 c3 e0 08 	retl 
    8e10:	01 00 00 00 	nop 

00008e14 <generate_opcode_11>:
    8e14:	9d e3 bf 98 	save  %sp, -104, %sp
    8e18:	f0 27 a0 44 	st  %i0, [ %fp + 0x44 ]
    8e1c:	f2 27 a0 48 	st  %i1, [ %fp + 0x48 ]
    8e20:	f4 27 a0 4c 	st  %i2, [ %fp + 0x4c ]
    8e24:	f6 27 a0 50 	st  %i3, [ %fp + 0x50 ]
    8e28:	84 10 00 1c 	mov  %i4, %g2
    8e2c:	82 10 00 1d 	mov  %i5, %g1
    8e30:	c4 2f a0 54 	stb  %g2, [ %fp + 0x54 ]
    8e34:	c2 37 a0 58 	sth  %g1, [ %fp + 0x58 ]
    8e38:	03 30 00 00 	sethi  %hi(0xc0000000), %g1
    8e3c:	c2 27 bf fc 	st  %g1, [ %fp + -4 ]
    8e40:	c2 07 a0 44 	ld  [ %fp + 0x44 ], %g1
    8e44:	83 28 60 19 	sll  %g1, 0x19, %g1
    8e48:	c4 07 bf fc 	ld  [ %fp + -4 ], %g2
    8e4c:	82 10 80 01 	or  %g2, %g1, %g1
    8e50:	c2 27 bf fc 	st  %g1, [ %fp + -4 ]
    8e54:	c2 07 a0 50 	ld  [ %fp + 0x50 ], %g1
    8e58:	83 28 60 13 	sll  %g1, 0x13, %g1
    8e5c:	c4 07 bf fc 	ld  [ %fp + -4 ], %g2
    8e60:	82 10 80 01 	or  %g2, %g1, %g1
    8e64:	c2 27 bf fc 	st  %g1, [ %fp + -4 ]
    8e68:	c2 07 a0 48 	ld  [ %fp + 0x48 ], %g1
    8e6c:	83 28 60 0e 	sll  %g1, 0xe, %g1
    8e70:	c4 07 bf fc 	ld  [ %fp + -4 ], %g2
    8e74:	82 10 80 01 	or  %g2, %g1, %g1
    8e78:	c2 27 bf fc 	st  %g1, [ %fp + -4 ]
    8e7c:	c2 0f a0 54 	ldub  [ %fp + 0x54 ], %g1
    8e80:	83 28 60 18 	sll  %g1, 0x18, %g1
    8e84:	83 38 60 18 	sra  %g1, 0x18, %g1
    8e88:	80 a0 60 01 	cmp  %g1, 1
    8e8c:	12 80 00 0e 	bne  8ec4 <generate_opcode_11+0xb0>
    8e90:	01 00 00 00 	nop 
    8e94:	c4 07 bf fc 	ld  [ %fp + -4 ], %g2
    8e98:	03 00 00 08 	sethi  %hi(0x2000), %g1
    8e9c:	82 10 80 01 	or  %g2, %g1, %g1
    8ea0:	c2 27 bf fc 	st  %g1, [ %fp + -4 ]
    8ea4:	c2 17 a0 58 	lduh  [ %fp + 0x58 ], %g1
    8ea8:	83 28 60 10 	sll  %g1, 0x10, %g1
    8eac:	83 30 60 10 	srl  %g1, 0x10, %g1
    8eb0:	c4 07 bf fc 	ld  [ %fp + -4 ], %g2
    8eb4:	82 10 80 01 	or  %g2, %g1, %g1
    8eb8:	c2 27 bf fc 	st  %g1, [ %fp + -4 ]
    8ebc:	10 80 00 06 	b  8ed4 <generate_opcode_11+0xc0>
    8ec0:	01 00 00 00 	nop 
    8ec4:	c4 07 bf fc 	ld  [ %fp + -4 ], %g2
    8ec8:	c2 07 a0 4c 	ld  [ %fp + 0x4c ], %g1
    8ecc:	82 10 80 01 	or  %g2, %g1, %g1
    8ed0:	c2 27 bf fc 	st  %g1, [ %fp + -4 ]
    8ed4:	c2 07 bf fc 	ld  [ %fp + -4 ], %g1
    8ed8:	b0 10 00 01 	mov  %g1, %i0
    8edc:	81 e8 00 00 	restore 
    8ee0:	81 c3 e0 08 	retl 
    8ee4:	01 00 00 00 	nop 

00008ee8 <generate_opcode_00>:
    8ee8:	9d e3 bf 98 	save  %sp, -104, %sp
    8eec:	f0 27 a0 44 	st  %i0, [ %fp + 0x44 ]
    8ef0:	82 10 00 19 	mov  %i1, %g1
    8ef4:	f4 27 a0 4c 	st  %i2, [ %fp + 0x4c ]
    8ef8:	c2 2f a0 48 	stb  %g1, [ %fp + 0x48 ]
    8efc:	c0 27 bf fc 	clr  [ %fp + -4 ]
    8f00:	c2 07 a0 44 	ld  [ %fp + 0x44 ], %g1
    8f04:	83 28 60 19 	sll  %g1, 0x19, %g1
    8f08:	c4 07 bf fc 	ld  [ %fp + -4 ], %g2
    8f0c:	82 10 80 01 	or  %g2, %g1, %g1
    8f10:	c2 27 bf fc 	st  %g1, [ %fp + -4 ]
    8f14:	c2 0f a0 48 	ldub  [ %fp + 0x48 ], %g1
    8f18:	82 08 60 ff 	and  %g1, 0xff, %g1
    8f1c:	83 28 60 16 	sll  %g1, 0x16, %g1
    8f20:	c4 07 bf fc 	ld  [ %fp + -4 ], %g2
    8f24:	82 10 80 01 	or  %g2, %g1, %g1
    8f28:	c2 27 bf fc 	st  %g1, [ %fp + -4 ]
    8f2c:	c2 07 a0 4c 	ld  [ %fp + 0x4c ], %g1
    8f30:	83 30 60 0a 	srl  %g1, 0xa, %g1
    8f34:	c4 07 bf fc 	ld  [ %fp + -4 ], %g2
    8f38:	82 10 80 01 	or  %g2, %g1, %g1
    8f3c:	c2 27 bf fc 	st  %g1, [ %fp + -4 ]
    8f40:	c2 07 bf fc 	ld  [ %fp + -4 ], %g1
    8f44:	b0 10 00 01 	mov  %g1, %i0
    8f48:	81 e8 00 00 	restore 
    8f4c:	81 c3 e0 08 	retl 
    8f50:	01 00 00 00 	nop 

00008f54 <prbs_3>:
    8f54:	9d e3 bf 98 	save  %sp, -104, %sp
    8f58:	82 10 00 18 	mov  %i0, %g1
    8f5c:	c2 2f a0 44 	stb  %g1, [ %fp + 0x44 ]
    8f60:	c2 0f a0 44 	ldub  [ %fp + 0x44 ], %g1
    8f64:	82 08 60 01 	and  %g1, 1, %g1
    8f68:	c2 2f bf ff 	stb  %g1, [ %fp + -1 ]
    8f6c:	c2 0f a0 44 	ldub  [ %fp + 0x44 ], %g1
    8f70:	82 08 60 ff 	and  %g1, 0xff, %g1
    8f74:	82 08 60 02 	and  %g1, 2, %g1
    8f78:	83 38 60 01 	sra  %g1, 1, %g1
    8f7c:	c2 2f bf fe 	stb  %g1, [ %fp + -2 ]
    8f80:	c2 0f a0 44 	ldub  [ %fp + 0x44 ], %g1
    8f84:	82 08 60 ff 	and  %g1, 0xff, %g1
    8f88:	83 30 60 01 	srl  %g1, 1, %g1
    8f8c:	84 10 00 01 	mov  %g1, %g2
    8f90:	c6 0f bf ff 	ldub  [ %fp + -1 ], %g3
    8f94:	c2 0f bf fe 	ldub  [ %fp + -2 ], %g1
    8f98:	82 18 c0 01 	xor  %g3, %g1, %g1
    8f9c:	82 08 60 ff 	and  %g1, 0xff, %g1
    8fa0:	83 28 60 02 	sll  %g1, 2, %g1
    8fa4:	82 10 80 01 	or  %g2, %g1, %g1
    8fa8:	c2 2f a0 44 	stb  %g1, [ %fp + 0x44 ]
    8fac:	c2 0f a0 44 	ldub  [ %fp + 0x44 ], %g1
    8fb0:	82 08 60 ff 	and  %g1, 0xff, %g1
    8fb4:	b0 10 00 01 	mov  %g1, %i0
    8fb8:	81 e8 00 00 	restore 
    8fbc:	81 c3 e0 08 	retl 
    8fc0:	01 00 00 00 	nop 

00008fc4 <add_sub>:
    8fc4:	9d e3 bf 70 	save  %sp, -144, %sp
    8fc8:	f0 27 a0 44 	st  %i0, [ %fp + 0x44 ]
    8fcc:	f2 27 a0 48 	st  %i1, [ %fp + 0x48 ]
    8fd0:	82 10 00 0e 	mov  %sp, %g1
    8fd4:	b2 10 00 01 	mov  %g1, %i1
    8fd8:	90 10 20 03 	mov  3, %o0
    8fdc:	7f ff fb 9d 	call  7e50 <__ajit_write_serial_control_register__>
    8fe0:	01 00 00 00 	nop 
    8fe4:	c0 2f bf df 	clrb  [ %fp + -33 ]
    8fe8:	c0 2f bf e0 	clrb  [ %fp + -32 ]
    8fec:	c0 2f bf e1 	clrb  [ %fp + -31 ]
    8ff0:	c0 2f bf e2 	clrb  [ %fp + -30 ]
    8ff4:	c0 2f bf e3 	clrb  [ %fp + -29 ]
    8ff8:	c0 2f bf e4 	clrb  [ %fp + -28 ]
    8ffc:	82 10 20 64 	mov  0x64, %g1
    9000:	c2 2f bf df 	stb  %g1, [ %fp + -33 ]
    9004:	82 10 20 62 	mov  0x62, %g1
    9008:	c2 2f bf e0 	stb  %g1, [ %fp + -32 ]
    900c:	82 10 20 72 	mov  0x72, %g1
    9010:	c2 2f bf e1 	stb  %g1, [ %fp + -31 ]
    9014:	c0 2f bf d8 	clrb  [ %fp + -40 ]
    9018:	82 10 20 04 	mov  4, %g1
    901c:	c2 2f bf d9 	stb  %g1, [ %fp + -39 ]
    9020:	c0 37 bf d2 	clrh  [ %fp + -46 ]
    9024:	c0 37 bf d4 	clrh  [ %fp + -44 ]
    9028:	c0 37 bf d6 	clrh  [ %fp + -42 ]
    902c:	82 10 20 64 	mov  0x64, %g1
    9030:	c2 2f bf d2 	stb  %g1, [ %fp + -46 ]
    9034:	82 10 20 74 	mov  0x74, %g1
    9038:	c2 2f bf d3 	stb  %g1, [ %fp + -45 ]
    903c:	c0 2f bf d0 	clrb  [ %fp + -48 ]
    9040:	82 10 20 04 	mov  4, %g1
    9044:	c2 2f bf d1 	stb  %g1, [ %fp + -47 ]
    9048:	82 10 20 02 	mov  2, %g1
    904c:	c2 2f bf fa 	stb  %g1, [ %fp + -6 ]
    9050:	d0 07 a0 48 	ld  [ %fp + 0x48 ], %o0
    9054:	40 00 01 bf 	call  9750 <generate_input_output>
    9058:	01 00 00 00 	nop 
    905c:	c4 07 a0 48 	ld  [ %fp + 0x48 ], %g2
    9060:	82 10 00 02 	mov  %g2, %g1
    9064:	83 28 60 03 	sll  %g1, 3, %g1
    9068:	82 20 40 02 	sub  %g1, %g2, %g1
    906c:	82 00 60 06 	add  %g1, 6, %g1
    9070:	c2 27 bf f4 	st  %g1, [ %fp + -12 ]
    9074:	c2 07 bf f4 	ld  [ %fp + -12 ], %g1
    9078:	84 00 7f ff 	add  %g1, -1, %g2
    907c:	c4 27 bf f0 	st  %g2, [ %fp + -16 ]
    9080:	84 10 00 01 	mov  %g1, %g2
    9084:	86 10 00 02 	mov  %g2, %g3
    9088:	84 10 20 00 	clr  %g2
    908c:	89 30 e0 1b 	srl  %g3, 0x1b, %g4
    9090:	b5 28 a0 05 	sll  %g2, 5, %i2
    9094:	b4 11 00 1a 	or  %g4, %i2, %i2
    9098:	b7 28 e0 05 	sll  %g3, 5, %i3
    909c:	84 10 00 01 	mov  %g1, %g2
    90a0:	86 10 00 02 	mov  %g2, %g3
    90a4:	84 10 20 00 	clr  %g2
    90a8:	89 30 e0 1b 	srl  %g3, 0x1b, %g4
    90ac:	b9 28 a0 05 	sll  %g2, 5, %i4
    90b0:	b8 11 00 1c 	or  %g4, %i4, %i4
    90b4:	bb 28 e0 05 	sll  %g3, 5, %i5
    90b8:	83 28 60 02 	sll  %g1, 2, %g1
    90bc:	82 00 60 03 	add  %g1, 3, %g1
    90c0:	82 00 60 07 	add  %g1, 7, %g1
    90c4:	83 30 60 03 	srl  %g1, 3, %g1
    90c8:	83 28 60 03 	sll  %g1, 3, %g1
    90cc:	9c 23 80 01 	sub  %sp, %g1, %sp
    90d0:	82 03 a0 5c 	add  %sp, 0x5c, %g1
    90d4:	82 00 60 03 	add  %g1, 3, %g1
    90d8:	83 30 60 02 	srl  %g1, 2, %g1
    90dc:	83 28 60 02 	sll  %g1, 2, %g1
    90e0:	c2 27 bf ec 	st  %g1, [ %fp + -20 ]
    90e4:	c2 07 bf ec 	ld  [ %fp + -20 ], %g1
    90e8:	05 27 78 ef 	sethi  %hi(0x9de3bc00), %g2
    90ec:	84 10 a3 a0 	or  %g2, 0x3a0, %g2	! 9de3bfa0 <_GLOBAL_OFFSET_TABLE_+0x5de3bd20>
    90f0:	c4 20 40 00 	st  %g2, [ %g1 ]
    90f4:	c2 07 a0 44 	ld  [ %fp + 0x44 ], %g1
    90f8:	82 08 7c 00 	and  %g1, -1024, %g1
    90fc:	c2 27 bf e8 	st  %g1, [ %fp + -24 ]
    9100:	c2 0f bf fa 	ldub  [ %fp + -6 ], %g1
    9104:	83 28 60 18 	sll  %g1, 0x18, %g1
    9108:	83 38 60 18 	sra  %g1, 0x18, %g1
    910c:	90 10 00 01 	mov  %g1, %o0
    9110:	92 10 20 04 	mov  4, %o1
    9114:	d4 07 bf e8 	ld  [ %fp + -24 ], %o2
    9118:	7f ff ff 74 	call  8ee8 <generate_opcode_00>
    911c:	01 00 00 00 	nop 
    9120:	84 10 00 08 	mov  %o0, %g2
    9124:	c2 07 bf ec 	ld  [ %fp + -20 ], %g1
    9128:	c4 20 60 04 	st  %g2, [ %g1 + 4 ]
    912c:	c2 07 a0 44 	ld  [ %fp + 0x44 ], %g1
    9130:	83 28 60 16 	sll  %g1, 0x16, %g1
    9134:	83 38 60 16 	sra  %g1, 0x16, %g1
    9138:	c2 27 bf e8 	st  %g1, [ %fp + -24 ]
    913c:	c2 0f bf fa 	ldub  [ %fp + -6 ], %g1
    9140:	83 28 60 18 	sll  %g1, 0x18, %g1
    9144:	89 38 60 18 	sra  %g1, 0x18, %g4
    9148:	c2 0f bf fa 	ldub  [ %fp + -6 ], %g1
    914c:	83 28 60 18 	sll  %g1, 0x18, %g1
    9150:	87 38 60 18 	sra  %g1, 0x18, %g3
    9154:	c2 0f bf da 	ldub  [ %fp + -38 ], %g1
    9158:	84 08 60 ff 	and  %g1, 0xff, %g2
    915c:	c2 07 bf e8 	ld  [ %fp + -24 ], %g1
    9160:	83 28 60 10 	sll  %g1, 0x10, %g1
    9164:	83 30 60 10 	srl  %g1, 0x10, %g1
    9168:	90 10 00 04 	mov  %g4, %o0
    916c:	92 10 00 03 	mov  %g3, %o1
    9170:	94 10 20 00 	clr  %o2
    9174:	96 10 00 02 	mov  %g2, %o3
    9178:	98 10 20 01 	mov  1, %o4
    917c:	9a 10 00 01 	mov  %g1, %o5
    9180:	7f ff fe f0 	call  8d40 <generate_opcode_10>
    9184:	01 00 00 00 	nop 
    9188:	84 10 00 08 	mov  %o0, %g2
    918c:	c2 07 bf ec 	ld  [ %fp + -20 ], %g1
    9190:	c4 20 60 08 	st  %g2, [ %g1 + 8 ]
    9194:	82 10 20 04 	mov  4, %g1
    9198:	c2 2f bf fb 	stb  %g1, [ %fp + -5 ]
    919c:	c0 27 bf fc 	clr  [ %fp + -4 ]
    91a0:	10 80 00 ee 	b  9558 <add_sub+0x594>
    91a4:	01 00 00 00 	nop 
    91a8:	c2 0f bf fb 	ldub  [ %fp + -5 ], %g1
    91ac:	82 08 60 ff 	and  %g1, 0xff, %g1
    91b0:	90 10 00 01 	mov  %g1, %o0
    91b4:	7f ff ff 68 	call  8f54 <prbs_3>
    91b8:	01 00 00 00 	nop 
    91bc:	82 10 00 08 	mov  %o0, %g1
    91c0:	c2 2f bf fb 	stb  %g1, [ %fp + -5 ]
    91c4:	c2 0f bf fb 	ldub  [ %fp + -5 ], %g1
    91c8:	82 10 60 10 	or  %g1, 0x10, %g1
    91cc:	c2 2f bf e7 	stb  %g1, [ %fp + -25 ]
    91d0:	c2 0f bf fb 	ldub  [ %fp + -5 ], %g1
    91d4:	82 08 60 ff 	and  %g1, 0xff, %g1
    91d8:	90 10 00 01 	mov  %g1, %o0
    91dc:	7f ff ff 5e 	call  8f54 <prbs_3>
    91e0:	01 00 00 00 	nop 
    91e4:	82 10 00 08 	mov  %o0, %g1
    91e8:	c2 2f bf fb 	stb  %g1, [ %fp + -5 ]
    91ec:	c2 0f bf fb 	ldub  [ %fp + -5 ], %g1
    91f0:	82 10 60 10 	or  %g1, 0x10, %g1
    91f4:	c2 2f bf e6 	stb  %g1, [ %fp + -26 ]
    91f8:	c2 0f bf fb 	ldub  [ %fp + -5 ], %g1
    91fc:	82 08 60 ff 	and  %g1, 0xff, %g1
    9200:	90 10 00 01 	mov  %g1, %o0
    9204:	7f ff ff 54 	call  8f54 <prbs_3>
    9208:	01 00 00 00 	nop 
    920c:	82 10 00 08 	mov  %o0, %g1
    9210:	c2 2f bf fb 	stb  %g1, [ %fp + -5 ]
    9214:	c2 0f bf fb 	ldub  [ %fp + -5 ], %g1
    9218:	82 10 60 10 	or  %g1, 0x10, %g1
    921c:	c2 2f bf e5 	stb  %g1, [ %fp + -27 ]
    9220:	c4 07 bf fc 	ld  [ %fp + -4 ], %g2
    9224:	82 10 00 02 	mov  %g2, %g1
    9228:	83 28 60 03 	sll  %g1, 3, %g1
    922c:	82 20 40 02 	sub  %g1, %g2, %g1
    9230:	ba 00 60 03 	add  %g1, 3, %i5
    9234:	c2 0f bf e6 	ldub  [ %fp + -26 ], %g1
    9238:	83 28 60 18 	sll  %g1, 0x18, %g1
    923c:	89 38 60 18 	sra  %g1, 0x18, %g4
    9240:	c2 0f bf fa 	ldub  [ %fp + -6 ], %g1
    9244:	83 28 60 18 	sll  %g1, 0x18, %g1
    9248:	87 38 60 18 	sra  %g1, 0x18, %g3
    924c:	c2 0f bf d0 	ldub  [ %fp + -48 ], %g1
    9250:	84 08 60 ff 	and  %g1, 0xff, %g2
    9254:	c2 07 bf fc 	ld  [ %fp + -4 ], %g1
    9258:	83 28 60 04 	sll  %g1, 4, %g1
    925c:	83 28 60 10 	sll  %g1, 0x10, %g1
    9260:	83 30 60 10 	srl  %g1, 0x10, %g1
    9264:	90 10 00 04 	mov  %g4, %o0
    9268:	92 10 00 03 	mov  %g3, %o1
    926c:	94 10 20 00 	clr  %o2
    9270:	96 10 00 02 	mov  %g2, %o3
    9274:	98 10 20 01 	mov  1, %o4
    9278:	9a 10 00 01 	mov  %g1, %o5
    927c:	7f ff fe e6 	call  8e14 <generate_opcode_11>
    9280:	01 00 00 00 	nop 
    9284:	86 10 00 08 	mov  %o0, %g3
    9288:	c4 07 bf ec 	ld  [ %fp + -20 ], %g2
    928c:	83 2f 60 02 	sll  %i5, 2, %g1
    9290:	c6 20 80 01 	st  %g3, [ %g2 + %g1 ]
    9294:	c4 07 bf fc 	ld  [ %fp + -4 ], %g2
    9298:	82 10 00 02 	mov  %g2, %g1
    929c:	83 28 60 03 	sll  %g1, 3, %g1
    92a0:	82 20 40 02 	sub  %g1, %g2, %g1
    92a4:	ba 00 60 04 	add  %g1, 4, %i5
    92a8:	c2 0f bf e5 	ldub  [ %fp + -27 ], %g1
    92ac:	83 28 60 18 	sll  %g1, 0x18, %g1
    92b0:	89 38 60 18 	sra  %g1, 0x18, %g4
    92b4:	c2 0f bf fa 	ldub  [ %fp + -6 ], %g1
    92b8:	83 28 60 18 	sll  %g1, 0x18, %g1
    92bc:	87 38 60 18 	sra  %g1, 0x18, %g3
    92c0:	c2 0f bf d0 	ldub  [ %fp + -48 ], %g1
    92c4:	84 08 60 ff 	and  %g1, 0xff, %g2
    92c8:	c2 07 bf fc 	ld  [ %fp + -4 ], %g1
    92cc:	83 28 60 04 	sll  %g1, 4, %g1
    92d0:	82 00 60 04 	add  %g1, 4, %g1
    92d4:	83 28 60 10 	sll  %g1, 0x10, %g1
    92d8:	83 30 60 10 	srl  %g1, 0x10, %g1
    92dc:	90 10 00 04 	mov  %g4, %o0
    92e0:	92 10 00 03 	mov  %g3, %o1
    92e4:	94 10 20 00 	clr  %o2
    92e8:	96 10 00 02 	mov  %g2, %o3
    92ec:	98 10 20 01 	mov  1, %o4
    92f0:	9a 10 00 01 	mov  %g1, %o5
    92f4:	7f ff fe c8 	call  8e14 <generate_opcode_11>
    92f8:	01 00 00 00 	nop 
    92fc:	86 10 00 08 	mov  %o0, %g3
    9300:	c4 07 bf ec 	ld  [ %fp + -20 ], %g2
    9304:	83 2f 60 02 	sll  %i5, 2, %g1
    9308:	c6 20 80 01 	st  %g3, [ %g2 + %g1 ]
    930c:	c4 07 bf fc 	ld  [ %fp + -4 ], %g2
    9310:	82 10 00 02 	mov  %g2, %g1
    9314:	83 28 60 03 	sll  %g1, 3, %g1
    9318:	82 20 40 02 	sub  %g1, %g2, %g1
    931c:	ba 00 60 05 	add  %g1, 5, %i5
    9320:	c2 0f bf e7 	ldub  [ %fp + -25 ], %g1
    9324:	83 28 60 18 	sll  %g1, 0x18, %g1
    9328:	89 38 60 18 	sra  %g1, 0x18, %g4
    932c:	c2 0f bf e6 	ldub  [ %fp + -26 ], %g1
    9330:	83 28 60 18 	sll  %g1, 0x18, %g1
    9334:	87 38 60 18 	sra  %g1, 0x18, %g3
    9338:	c2 0f bf e5 	ldub  [ %fp + -27 ], %g1
    933c:	83 28 60 18 	sll  %g1, 0x18, %g1
    9340:	85 38 60 18 	sra  %g1, 0x18, %g2
    9344:	c2 0f bf d8 	ldub  [ %fp + -40 ], %g1
    9348:	82 08 60 ff 	and  %g1, 0xff, %g1
    934c:	90 10 00 04 	mov  %g4, %o0
    9350:	92 10 00 03 	mov  %g3, %o1
    9354:	94 10 00 02 	mov  %g2, %o2
    9358:	96 10 00 01 	mov  %g1, %o3
    935c:	98 10 20 00 	clr  %o4
    9360:	9a 10 20 00 	clr  %o5
    9364:	7f ff fe 77 	call  8d40 <generate_opcode_10>
    9368:	01 00 00 00 	nop 
    936c:	86 10 00 08 	mov  %o0, %g3
    9370:	c4 07 bf ec 	ld  [ %fp + -20 ], %g2
    9374:	83 2f 60 02 	sll  %i5, 2, %g1
    9378:	c6 20 80 01 	st  %g3, [ %g2 + %g1 ]
    937c:	c4 07 bf fc 	ld  [ %fp + -4 ], %g2
    9380:	82 10 00 02 	mov  %g2, %g1
    9384:	83 28 60 03 	sll  %g1, 3, %g1
    9388:	82 20 40 02 	sub  %g1, %g2, %g1
    938c:	ba 00 60 06 	add  %g1, 6, %i5
    9390:	c2 0f bf e6 	ldub  [ %fp + -26 ], %g1
    9394:	83 28 60 18 	sll  %g1, 0x18, %g1
    9398:	89 38 60 18 	sra  %g1, 0x18, %g4
    939c:	c2 0f bf e7 	ldub  [ %fp + -25 ], %g1
    93a0:	83 28 60 18 	sll  %g1, 0x18, %g1
    93a4:	87 38 60 18 	sra  %g1, 0x18, %g3
    93a8:	c2 0f bf e6 	ldub  [ %fp + -26 ], %g1
    93ac:	83 28 60 18 	sll  %g1, 0x18, %g1
    93b0:	85 38 60 18 	sra  %g1, 0x18, %g2
    93b4:	c2 0f bf d9 	ldub  [ %fp + -39 ], %g1
    93b8:	82 08 60 ff 	and  %g1, 0xff, %g1
    93bc:	90 10 00 04 	mov  %g4, %o0
    93c0:	92 10 00 03 	mov  %g3, %o1
    93c4:	94 10 00 02 	mov  %g2, %o2
    93c8:	96 10 00 01 	mov  %g1, %o3
    93cc:	98 10 20 00 	clr  %o4
    93d0:	9a 10 20 00 	clr  %o5
    93d4:	7f ff fe 5b 	call  8d40 <generate_opcode_10>
    93d8:	01 00 00 00 	nop 
    93dc:	86 10 00 08 	mov  %o0, %g3
    93e0:	c4 07 bf ec 	ld  [ %fp + -20 ], %g2
    93e4:	83 2f 60 02 	sll  %i5, 2, %g1
    93e8:	c6 20 80 01 	st  %g3, [ %g2 + %g1 ]
    93ec:	c2 07 bf fc 	ld  [ %fp + -4 ], %g1
    93f0:	84 00 60 01 	add  %g1, 1, %g2
    93f4:	82 10 00 02 	mov  %g2, %g1
    93f8:	83 28 60 03 	sll  %g1, 3, %g1
    93fc:	ba 20 40 02 	sub  %g1, %g2, %i5
    9400:	c2 0f bf e5 	ldub  [ %fp + -27 ], %g1
    9404:	83 28 60 18 	sll  %g1, 0x18, %g1
    9408:	89 38 60 18 	sra  %g1, 0x18, %g4
    940c:	c2 0f bf e7 	ldub  [ %fp + -25 ], %g1
    9410:	83 28 60 18 	sll  %g1, 0x18, %g1
    9414:	87 38 60 18 	sra  %g1, 0x18, %g3
    9418:	c2 0f bf e5 	ldub  [ %fp + -27 ], %g1
    941c:	83 28 60 18 	sll  %g1, 0x18, %g1
    9420:	85 38 60 18 	sra  %g1, 0x18, %g2
    9424:	c2 0f bf d9 	ldub  [ %fp + -39 ], %g1
    9428:	82 08 60 ff 	and  %g1, 0xff, %g1
    942c:	90 10 00 04 	mov  %g4, %o0
    9430:	92 10 00 03 	mov  %g3, %o1
    9434:	94 10 00 02 	mov  %g2, %o2
    9438:	96 10 00 01 	mov  %g1, %o3
    943c:	98 10 20 00 	clr  %o4
    9440:	9a 10 20 00 	clr  %o5
    9444:	7f ff fe 3f 	call  8d40 <generate_opcode_10>
    9448:	01 00 00 00 	nop 
    944c:	86 10 00 08 	mov  %o0, %g3
    9450:	c4 07 bf ec 	ld  [ %fp + -20 ], %g2
    9454:	83 2f 60 02 	sll  %i5, 2, %g1
    9458:	c6 20 80 01 	st  %g3, [ %g2 + %g1 ]
    945c:	c4 07 bf fc 	ld  [ %fp + -4 ], %g2
    9460:	82 10 00 02 	mov  %g2, %g1
    9464:	83 28 60 03 	sll  %g1, 3, %g1
    9468:	82 20 40 02 	sub  %g1, %g2, %g1
    946c:	ba 00 60 08 	add  %g1, 8, %i5
    9470:	c2 0f bf e6 	ldub  [ %fp + -26 ], %g1
    9474:	83 28 60 18 	sll  %g1, 0x18, %g1
    9478:	89 38 60 18 	sra  %g1, 0x18, %g4
    947c:	c2 0f bf fa 	ldub  [ %fp + -6 ], %g1
    9480:	83 28 60 18 	sll  %g1, 0x18, %g1
    9484:	87 38 60 18 	sra  %g1, 0x18, %g3
    9488:	c2 0f bf d1 	ldub  [ %fp + -47 ], %g1
    948c:	84 08 60 ff 	and  %g1, 0xff, %g2
    9490:	c2 07 bf fc 	ld  [ %fp + -4 ], %g1
    9494:	83 28 60 04 	sll  %g1, 4, %g1
    9498:	82 00 60 08 	add  %g1, 8, %g1
    949c:	83 28 60 10 	sll  %g1, 0x10, %g1
    94a0:	83 30 60 10 	srl  %g1, 0x10, %g1
    94a4:	90 10 00 04 	mov  %g4, %o0
    94a8:	92 10 00 03 	mov  %g3, %o1
    94ac:	94 10 20 00 	clr  %o2
    94b0:	96 10 00 02 	mov  %g2, %o3
    94b4:	98 10 20 01 	mov  1, %o4
    94b8:	9a 10 00 01 	mov  %g1, %o5
    94bc:	7f ff fe 56 	call  8e14 <generate_opcode_11>
    94c0:	01 00 00 00 	nop 
    94c4:	86 10 00 08 	mov  %o0, %g3
    94c8:	c4 07 bf ec 	ld  [ %fp + -20 ], %g2
    94cc:	83 2f 60 02 	sll  %i5, 2, %g1
    94d0:	c6 20 80 01 	st  %g3, [ %g2 + %g1 ]
    94d4:	c4 07 bf fc 	ld  [ %fp + -4 ], %g2
    94d8:	82 10 00 02 	mov  %g2, %g1
    94dc:	83 28 60 03 	sll  %g1, 3, %g1
    94e0:	82 20 40 02 	sub  %g1, %g2, %g1
    94e4:	ba 00 60 09 	add  %g1, 9, %i5
    94e8:	c2 0f bf e5 	ldub  [ %fp + -27 ], %g1
    94ec:	83 28 60 18 	sll  %g1, 0x18, %g1
    94f0:	89 38 60 18 	sra  %g1, 0x18, %g4
    94f4:	c2 0f bf fa 	ldub  [ %fp + -6 ], %g1
    94f8:	83 28 60 18 	sll  %g1, 0x18, %g1
    94fc:	87 38 60 18 	sra  %g1, 0x18, %g3
    9500:	c2 0f bf d1 	ldub  [ %fp + -47 ], %g1
    9504:	84 08 60 ff 	and  %g1, 0xff, %g2
    9508:	c2 07 bf fc 	ld  [ %fp + -4 ], %g1
    950c:	83 28 60 04 	sll  %g1, 4, %g1
    9510:	82 00 60 0c 	add  %g1, 0xc, %g1
    9514:	83 28 60 10 	sll  %g1, 0x10, %g1
    9518:	83 30 60 10 	srl  %g1, 0x10, %g1
    951c:	90 10 00 04 	mov  %g4, %o0
    9520:	92 10 00 03 	mov  %g3, %o1
    9524:	94 10 20 00 	clr  %o2
    9528:	96 10 00 02 	mov  %g2, %o3
    952c:	98 10 20 01 	mov  1, %o4
    9530:	9a 10 00 01 	mov  %g1, %o5
    9534:	7f ff fe 38 	call  8e14 <generate_opcode_11>
    9538:	01 00 00 00 	nop 
    953c:	86 10 00 08 	mov  %o0, %g3
    9540:	c4 07 bf ec 	ld  [ %fp + -20 ], %g2
    9544:	83 2f 60 02 	sll  %i5, 2, %g1
    9548:	c6 20 80 01 	st  %g3, [ %g2 + %g1 ]
    954c:	c2 07 bf fc 	ld  [ %fp + -4 ], %g1
    9550:	82 00 60 01 	inc  %g1
    9554:	c2 27 bf fc 	st  %g1, [ %fp + -4 ]
    9558:	c4 07 bf fc 	ld  [ %fp + -4 ], %g2
    955c:	c2 07 a0 48 	ld  [ %fp + 0x48 ], %g1
    9560:	80 a0 80 01 	cmp  %g2, %g1
    9564:	06 bf ff 11 	bl  91a8 <add_sub+0x1e4>
    9568:	01 00 00 00 	nop 
    956c:	c2 07 bf f4 	ld  [ %fp + -12 ], %g1
    9570:	82 00 7f fd 	add  %g1, -3, %g1
    9574:	c4 07 bf ec 	ld  [ %fp + -20 ], %g2
    9578:	83 28 60 02 	sll  %g1, 2, %g1
    957c:	07 20 7a 00 	sethi  %hi(0x81e80000), %g3
    9580:	c6 20 80 01 	st  %g3, [ %g2 + %g1 ]
    9584:	c2 07 bf f4 	ld  [ %fp + -12 ], %g1
    9588:	82 00 7f fe 	add  %g1, -2, %g1
    958c:	c4 07 bf ec 	ld  [ %fp + -20 ], %g2
    9590:	83 28 60 02 	sll  %g1, 2, %g1
    9594:	07 20 70 f8 	sethi  %hi(0x81c3e000), %g3
    9598:	86 10 e0 08 	or  %g3, 8, %g3	! 81c3e008 <_GLOBAL_OFFSET_TABLE_+0x41c3dd88>
    959c:	c6 20 80 01 	st  %g3, [ %g2 + %g1 ]
    95a0:	c2 07 bf f4 	ld  [ %fp + -12 ], %g1
    95a4:	82 00 7f ff 	add  %g1, -1, %g1
    95a8:	c4 07 bf ec 	ld  [ %fp + -20 ], %g2
    95ac:	83 28 60 02 	sll  %g1, 2, %g1
    95b0:	07 00 40 00 	sethi  %hi(0x1000000), %g3
    95b4:	c6 20 80 01 	st  %g3, [ %g2 + %g1 ]
    95b8:	21 00 00 00 	sethi  %hi(0), %l0
    95bc:	a0 14 20 90 	or  %l0, 0x90, %l0	! 90 <instr_section>
    95c0:	c0 27 bf fc 	clr  [ %fp + -4 ]
    95c4:	10 80 00 0c 	b  95f4 <add_sub+0x630>
    95c8:	01 00 00 00 	nop 
    95cc:	c4 07 bf ec 	ld  [ %fp + -20 ], %g2
    95d0:	c2 07 bf fc 	ld  [ %fp + -4 ], %g1
    95d4:	83 28 60 02 	sll  %g1, 2, %g1
    95d8:	c2 00 80 01 	ld  [ %g2 + %g1 ], %g1
    95dc:	a2 10 00 01 	mov  %g1, %l1
    95e0:	e2 24 00 00 	st  %l1, [ %l0 ]
    95e4:	a0 04 20 04 	add  %l0, 4, %l0
    95e8:	c2 07 bf fc 	ld  [ %fp + -4 ], %g1
    95ec:	82 00 60 01 	inc  %g1
    95f0:	c2 27 bf fc 	st  %g1, [ %fp + -4 ]
    95f4:	c4 07 bf fc 	ld  [ %fp + -4 ], %g2
    95f8:	c2 07 bf f4 	ld  [ %fp + -12 ], %g1
    95fc:	80 a0 80 01 	cmp  %g2, %g1
    9600:	06 bf ff f3 	bl  95cc <add_sub+0x608>
    9604:	01 00 00 00 	nop 
    9608:	03 10 00 00 	sethi  %hi(0x40000000), %g1
    960c:	90 10 61 38 	or  %g1, 0x138, %o0	! 40000138 <__sparc_get_pc_thunk.l7+0x3fff614c>
    9610:	7f ff f8 c0 	call  7910 <ee_printf>
    9614:	01 00 00 00 	nop 
    9618:	82 10 20 01 	mov  1, %g1	! 1 <_start+0x1>
    961c:	9c 10 00 19 	mov  %i1, %sp
    9620:	b0 10 00 01 	mov  %g1, %i0
    9624:	81 e8 00 00 	restore 
    9628:	81 c3 e0 08 	retl 
    962c:	01 00 00 00 	nop 

00009630 <store_in_result_section>:
    9630:	9d e3 bf a0 	save  %sp, -96, %sp
    9634:	f0 27 a0 44 	st  %i0, [ %fp + 0x44 ]
    9638:	05 00 00 15 	sethi  %hi(0x5400), %g2
    963c:	c2 07 a0 44 	ld  [ %fp + 0x44 ], %g1
    9640:	84 10 20 15 	mov  0x15, %g2
    9644:	c4 20 40 00 	st  %g2, [ %g1 ]
    9648:	c2 07 a0 44 	ld  [ %fp + 0x44 ], %g1
    964c:	82 00 60 04 	add  %g1, 4, %g1
    9650:	84 10 20 30 	mov  0x30, %g2
    9654:	c4 20 40 00 	st  %g2, [ %g1 ]
    9658:	c2 07 a0 44 	ld  [ %fp + 0x44 ], %g1
    965c:	82 00 60 08 	add  %g1, 8, %g1
    9660:	84 10 20 45 	mov  0x45, %g2
    9664:	c4 20 40 00 	st  %g2, [ %g1 ]
    9668:	c2 07 a0 44 	ld  [ %fp + 0x44 ], %g1
    966c:	82 00 60 0c 	add  %g1, 0xc, %g1
    9670:	84 10 20 60 	mov  0x60, %g2
    9674:	c4 20 40 00 	st  %g2, [ %g1 ]
    9678:	82 10 20 01 	mov  1, %g1
    967c:	b0 10 00 01 	mov  %g1, %i0
    9680:	81 e8 00 00 	restore 
    9684:	81 c3 e0 08 	retl 
    9688:	01 00 00 00 	nop 

0000968c <prbs>:
    968c:	9d e3 bf 98 	save  %sp, -104, %sp
    9690:	82 10 00 18 	mov  %i0, %g1
    9694:	c2 37 a0 44 	sth  %g1, [ %fp + 0x44 ]
    9698:	c2 17 a0 44 	lduh  [ %fp + 0x44 ], %g1
    969c:	83 28 60 10 	sll  %g1, 0x10, %g1
    96a0:	85 38 60 10 	sra  %g1, 0x10, %g2
    96a4:	c2 17 a0 44 	lduh  [ %fp + 0x44 ], %g1
    96a8:	83 28 60 10 	sll  %g1, 0x10, %g1
    96ac:	83 38 60 10 	sra  %g1, 0x10, %g1
    96b0:	83 38 60 02 	sra  %g1, 2, %g1
    96b4:	83 28 60 10 	sll  %g1, 0x10, %g1
    96b8:	83 38 60 10 	sra  %g1, 0x10, %g1
    96bc:	84 18 80 01 	xor  %g2, %g1, %g2
    96c0:	c2 17 a0 44 	lduh  [ %fp + 0x44 ], %g1
    96c4:	83 28 60 10 	sll  %g1, 0x10, %g1
    96c8:	83 38 60 10 	sra  %g1, 0x10, %g1
    96cc:	83 38 60 03 	sra  %g1, 3, %g1
    96d0:	83 28 60 10 	sll  %g1, 0x10, %g1
    96d4:	83 38 60 10 	sra  %g1, 0x10, %g1
    96d8:	84 18 80 01 	xor  %g2, %g1, %g2
    96dc:	c2 17 a0 44 	lduh  [ %fp + 0x44 ], %g1
    96e0:	83 28 60 10 	sll  %g1, 0x10, %g1
    96e4:	83 38 60 10 	sra  %g1, 0x10, %g1
    96e8:	83 38 60 05 	sra  %g1, 5, %g1
    96ec:	83 28 60 10 	sll  %g1, 0x10, %g1
    96f0:	83 38 60 10 	sra  %g1, 0x10, %g1
    96f4:	82 18 80 01 	xor  %g2, %g1, %g1
    96f8:	82 08 60 01 	and  %g1, 1, %g1
    96fc:	82 18 60 00 	xor  %g1, 0, %g1
    9700:	80 a0 00 01 	cmp  %g0, %g1
    9704:	82 40 20 00 	addx  %g0, 0, %g1
    9708:	c2 2f bf ff 	stb  %g1, [ %fp + -1 ]
    970c:	c2 17 a0 44 	lduh  [ %fp + 0x44 ], %g1
    9710:	83 28 60 10 	sll  %g1, 0x10, %g1
    9714:	83 38 60 10 	sra  %g1, 0x10, %g1
    9718:	83 38 60 01 	sra  %g1, 1, %g1
    971c:	84 10 00 01 	mov  %g1, %g2
    9720:	c2 0f bf ff 	ldub  [ %fp + -1 ], %g1
    9724:	82 08 60 ff 	and  %g1, 0xff, %g1
    9728:	83 28 60 0c 	sll  %g1, 0xc, %g1
    972c:	82 10 80 01 	or  %g2, %g1, %g1
    9730:	c2 37 a0 44 	sth  %g1, [ %fp + 0x44 ]
    9734:	c2 17 a0 44 	lduh  [ %fp + 0x44 ], %g1
    9738:	83 28 60 10 	sll  %g1, 0x10, %g1
    973c:	83 38 60 10 	sra  %g1, 0x10, %g1
    9740:	b0 10 00 01 	mov  %g1, %i0
    9744:	81 e8 00 00 	restore 
    9748:	81 c3 e0 08 	retl 
    974c:	01 00 00 00 	nop 

00009750 <generate_input_output>:
    9750:	9d e3 bf 88 	save  %sp, -120, %sp
    9754:	f0 27 a0 44 	st  %i0, [ %fp + 0x44 ]
    9758:	82 10 00 0e 	mov  %sp, %g1
    975c:	b2 10 00 01 	mov  %g1, %i1
    9760:	90 10 20 03 	mov  3, %o0
    9764:	7f ff f9 bb 	call  7e50 <__ajit_write_serial_control_register__>
    9768:	01 00 00 00 	nop 
    976c:	c2 07 a0 44 	ld  [ %fp + 0x44 ], %g1
    9770:	82 00 40 01 	add  %g1, %g1, %g1
    9774:	84 00 7f ff 	add  %g1, -1, %g2
    9778:	c4 27 bf f4 	st  %g2, [ %fp + -12 ]
    977c:	84 10 00 01 	mov  %g1, %g2
    9780:	86 10 00 02 	mov  %g2, %g3
    9784:	84 10 20 00 	clr  %g2
    9788:	89 30 e0 1b 	srl  %g3, 0x1b, %g4
    978c:	b5 28 a0 05 	sll  %g2, 5, %i2
    9790:	b4 11 00 1a 	or  %g4, %i2, %i2
    9794:	b7 28 e0 05 	sll  %g3, 5, %i3
    9798:	84 10 00 01 	mov  %g1, %g2
    979c:	86 10 00 02 	mov  %g2, %g3
    97a0:	84 10 20 00 	clr  %g2
    97a4:	89 30 e0 1b 	srl  %g3, 0x1b, %g4
    97a8:	b9 28 a0 05 	sll  %g2, 5, %i4
    97ac:	b8 11 00 1c 	or  %g4, %i4, %i4
    97b0:	bb 28 e0 05 	sll  %g3, 5, %i5
    97b4:	83 28 60 02 	sll  %g1, 2, %g1
    97b8:	82 00 60 03 	add  %g1, 3, %g1
    97bc:	82 00 60 07 	add  %g1, 7, %g1
    97c0:	83 30 60 03 	srl  %g1, 3, %g1
    97c4:	83 28 60 03 	sll  %g1, 3, %g1
    97c8:	9c 23 80 01 	sub  %sp, %g1, %sp
    97cc:	82 03 a0 5c 	add  %sp, 0x5c, %g1
    97d0:	82 00 60 03 	add  %g1, 3, %g1
    97d4:	83 30 60 02 	srl  %g1, 2, %g1
    97d8:	83 28 60 02 	sll  %g1, 2, %g1
    97dc:	c2 27 bf f0 	st  %g1, [ %fp + -16 ]
    97e0:	03 00 00 19 	sethi  %hi(0x6400), %g1
    97e4:	82 10 63 54 	or  %g1, 0x354, %g1	! 6754 <number+0x238>
    97e8:	c2 37 bf ee 	sth  %g1, [ %fp + -18 ]
    97ec:	c2 17 bf ee 	lduh  [ %fp + -18 ], %g1
    97f0:	c2 37 bf fe 	sth  %g1, [ %fp + -2 ]
    97f4:	c0 27 bf f8 	clr  [ %fp + -8 ]
    97f8:	10 80 00 25 	b  988c <generate_input_output+0x13c>
    97fc:	01 00 00 00 	nop 
    9800:	c2 17 bf fe 	lduh  [ %fp + -2 ], %g1
    9804:	83 28 60 10 	sll  %g1, 0x10, %g1
    9808:	83 38 60 10 	sra  %g1, 0x10, %g1
    980c:	90 10 00 01 	mov  %g1, %o0
    9810:	7f ff ff 9f 	call  968c <prbs>
    9814:	01 00 00 00 	nop 
    9818:	82 10 00 08 	mov  %o0, %g1
    981c:	c2 37 bf fe 	sth  %g1, [ %fp + -2 ]
    9820:	c2 17 bf fe 	lduh  [ %fp + -2 ], %g1
    9824:	83 28 60 10 	sll  %g1, 0x10, %g1
    9828:	87 30 60 10 	srl  %g1, 0x10, %g3
    982c:	c4 07 bf f0 	ld  [ %fp + -16 ], %g2
    9830:	c2 07 bf f8 	ld  [ %fp + -8 ], %g1
    9834:	83 28 60 02 	sll  %g1, 2, %g1
    9838:	c6 20 80 01 	st  %g3, [ %g2 + %g1 ]
    983c:	c2 17 bf fe 	lduh  [ %fp + -2 ], %g1
    9840:	83 28 60 10 	sll  %g1, 0x10, %g1
    9844:	83 38 60 10 	sra  %g1, 0x10, %g1
    9848:	90 10 00 01 	mov  %g1, %o0
    984c:	7f ff ff 90 	call  968c <prbs>
    9850:	01 00 00 00 	nop 
    9854:	82 10 00 08 	mov  %o0, %g1
    9858:	c2 37 bf fe 	sth  %g1, [ %fp + -2 ]
    985c:	c4 07 a0 44 	ld  [ %fp + 0x44 ], %g2
    9860:	c2 07 bf f8 	ld  [ %fp + -8 ], %g1
    9864:	82 00 80 01 	add  %g2, %g1, %g1
    9868:	c4 17 bf fe 	lduh  [ %fp + -2 ], %g2
    986c:	85 28 a0 10 	sll  %g2, 0x10, %g2
    9870:	87 30 a0 10 	srl  %g2, 0x10, %g3
    9874:	c4 07 bf f0 	ld  [ %fp + -16 ], %g2
    9878:	83 28 60 02 	sll  %g1, 2, %g1
    987c:	c6 20 80 01 	st  %g3, [ %g2 + %g1 ]
    9880:	c2 07 bf f8 	ld  [ %fp + -8 ], %g1
    9884:	82 00 60 01 	inc  %g1
    9888:	c2 27 bf f8 	st  %g1, [ %fp + -8 ]
    988c:	c4 07 bf f8 	ld  [ %fp + -8 ], %g2
    9890:	c2 07 a0 44 	ld  [ %fp + 0x44 ], %g1
    9894:	80 a0 80 01 	cmp  %g2, %g1
    9898:	06 bf ff da 	bl  9800 <generate_input_output+0xb0>
    989c:	01 00 00 00 	nop 
    98a0:	21 00 00 04 	sethi  %hi(0x1000), %l0
    98a4:	a0 14 20 90 	or  %l0, 0x90, %l0	! 1090 <results_section>
    98a8:	c0 27 bf f8 	clr  [ %fp + -8 ]
    98ac:	10 80 00 25 	b  9940 <generate_input_output+0x1f0>
    98b0:	01 00 00 00 	nop 
    98b4:	c4 07 bf f0 	ld  [ %fp + -16 ], %g2
    98b8:	c2 07 bf f8 	ld  [ %fp + -8 ], %g1
    98bc:	83 28 60 02 	sll  %g1, 2, %g1
    98c0:	c2 00 80 01 	ld  [ %g2 + %g1 ], %g1
    98c4:	a2 10 00 01 	mov  %g1, %l1
    98c8:	e2 24 00 00 	st  %l1, [ %l0 ]
    98cc:	a0 04 20 04 	add  %l0, 4, %l0
    98d0:	c4 07 a0 44 	ld  [ %fp + 0x44 ], %g2
    98d4:	c2 07 bf f8 	ld  [ %fp + -8 ], %g1
    98d8:	82 00 80 01 	add  %g2, %g1, %g1
    98dc:	c4 07 bf f0 	ld  [ %fp + -16 ], %g2
    98e0:	83 28 60 02 	sll  %g1, 2, %g1
    98e4:	c2 00 80 01 	ld  [ %g2 + %g1 ], %g1
    98e8:	a2 10 00 01 	mov  %g1, %l1
    98ec:	e2 24 00 00 	st  %l1, [ %l0 ]
    98f0:	a0 04 20 10 	add  %l0, 0x10, %l0
    98f4:	c4 07 bf f0 	ld  [ %fp + -16 ], %g2
    98f8:	c2 07 bf f8 	ld  [ %fp + -8 ], %g1
    98fc:	83 28 60 02 	sll  %g1, 2, %g1
    9900:	c4 00 80 01 	ld  [ %g2 + %g1 ], %g2
    9904:	c6 07 a0 44 	ld  [ %fp + 0x44 ], %g3
    9908:	c2 07 bf f8 	ld  [ %fp + -8 ], %g1
    990c:	82 00 c0 01 	add  %g3, %g1, %g1
    9910:	c6 07 bf f0 	ld  [ %fp + -16 ], %g3
    9914:	83 28 60 02 	sll  %g1, 2, %g1
    9918:	c2 00 c0 01 	ld  [ %g3 + %g1 ], %g1
    991c:	07 10 00 00 	sethi  %hi(0x40000000), %g3
    9920:	90 10 e1 80 	or  %g3, 0x180, %o0	! 40000180 <__sparc_get_pc_thunk.l7+0x3fff6194>
    9924:	92 10 00 02 	mov  %g2, %o1
    9928:	94 10 00 01 	mov  %g1, %o2
    992c:	7f ff f7 f9 	call  7910 <ee_printf>
    9930:	01 00 00 00 	nop 
    9934:	c2 07 bf f8 	ld  [ %fp + -8 ], %g1
    9938:	82 00 60 01 	inc  %g1
    993c:	c2 27 bf f8 	st  %g1, [ %fp + -8 ]
    9940:	c4 07 bf f8 	ld  [ %fp + -8 ], %g2
    9944:	c2 07 a0 44 	ld  [ %fp + 0x44 ], %g1
    9948:	80 a0 80 01 	cmp  %g2, %g1
    994c:	06 bf ff da 	bl  98b4 <generate_input_output+0x164>
    9950:	01 00 00 00 	nop 
    9954:	03 10 00 00 	sethi  %hi(0x40000000), %g1
    9958:	90 10 61 b0 	or  %g1, 0x1b0, %o0	! 400001b0 <__sparc_get_pc_thunk.l7+0x3fff61c4>
    995c:	7f ff f7 ed 	call  7910 <ee_printf>
    9960:	01 00 00 00 	nop 
    9964:	c2 07 a0 44 	ld  [ %fp + 0x44 ], %g1
    9968:	9c 10 00 19 	mov  %i1, %sp
    996c:	b0 10 00 01 	mov  %g1, %i0
    9970:	81 e8 00 00 	restore 
    9974:	81 c3 e0 08 	retl 
    9978:	01 00 00 00 	nop 

0000997c <__ieee754_log2>:
    997c:	9d e3 bf 90 	save  %sp, -112, %sp
    9980:	f0 3f bf f8 	std  %i0, [ %fp + -8 ]
    9984:	2f 0f ff da 	sethi  %hi(0x3fff6800), %l7
    9988:	40 00 01 99 	call  9fec <__sparc_get_pc_thunk.l7>
    998c:	ae 05 e0 f8 	add  %l7, 0xf8, %l7	! 3fff68f8 <__sparc_get_pc_thunk.l7+0x3ffec90c>
    9990:	09 00 03 ff 	sethi  %hi(0xffc00), %g4
    9994:	88 11 23 ff 	or  %g4, 0x3ff, %g4	! fffff <__sparc_get_pc_thunk.l7+0xf6013>
    9998:	d1 1f bf f8 	ldd  [ %fp + -8 ], %f8
    999c:	80 a6 00 04 	cmp  %i0, %g4
    99a0:	14 80 00 1e 	bg  9a18 <__ieee754_log2+0x9c>
    99a4:	84 10 00 18 	mov  %i0, %g2
    99a8:	05 20 00 00 	sethi  %hi(0x80000000), %g2
    99ac:	84 2e 00 02 	andn  %i0, %g2, %g2
    99b0:	80 90 80 19 	orcc  %g2, %i1, %g0
    99b4:	32 80 00 0a 	bne,a   99dc <__ieee754_log2+0x60>
    99b8:	80 a6 20 00 	cmp  %i0, 0
    99bc:	91 a2 08 c8 	fsubd  %f8, %f8, %f8
    99c0:	03 00 00 00 	sethi  %hi(0), %g1
    99c4:	82 18 7f 78 	xor  %g1, -136, %g1
    99c8:	82 05 c0 01 	add  %l7, %g1, %g1
    99cc:	c1 18 40 00 	ldd  [ %g1 ], %f0
    99d0:	81 a0 09 c8 	fdivd  %f0, %f8, %f0
    99d4:	81 c7 e0 08 	ret 
    99d8:	81 e8 00 00 	restore 
    99dc:	16 80 00 06 	bge  99f4 <__ieee754_log2+0x78>
    99e0:	03 00 00 00 	sethi  %hi(0), %g1
    99e4:	91 a2 08 c8 	fsubd  %f8, %f8, %f8
    99e8:	81 a2 09 c8 	fdivd  %f8, %f8, %f0
    99ec:	81 c7 e0 08 	ret 
    99f0:	81 e8 00 00 	restore 
    99f4:	82 18 7f 80 	xor  %g1, -128, %g1
    99f8:	82 05 c0 01 	add  %l7, %g1, %g1
    99fc:	d5 18 40 00 	ldd  [ %g1 ], %f10
    9a00:	82 10 3f ca 	mov  -54, %g1
    9a04:	91 a2 09 4a 	fmuld  %f8, %f10, %f8
    9a08:	d1 3f bf f8 	std  %f8, [ %fp + -8 ]
    9a0c:	f8 1f bf f8 	ldd  [ %fp + -8 ], %i4
    9a10:	10 80 00 03 	b  9a1c <__ieee754_log2+0xa0>
    9a14:	84 10 00 1c 	mov  %i4, %g2
    9a18:	82 10 20 00 	clr  %g1
    9a1c:	07 1f fb ff 	sethi  %hi(0x7feffc00), %g3
    9a20:	86 10 e3 ff 	or  %g3, 0x3ff, %g3	! 7fefffff <_GLOBAL_OFFSET_TABLE_+0x3feffd7f>
    9a24:	80 a0 80 03 	cmp  %g2, %g3
    9a28:	04 80 00 05 	ble  9a3c <__ieee754_log2+0xc0>
    9a2c:	09 00 04 00 	sethi  %hi(0x100000), %g4
    9a30:	81 a2 08 48 	faddd  %f8, %f8, %f0
    9a34:	81 c7 e0 08 	ret 
    9a38:	81 e8 00 00 	restore 
    9a3c:	bb 38 a0 14 	sra  %g2, 0x14, %i5
    9a40:	07 00 03 ff 	sethi  %hi(0xffc00), %g3
    9a44:	ba 07 7c 01 	add  %i5, -1023, %i5
    9a48:	86 10 e3 ff 	or  %g3, 0x3ff, %g3
    9a4c:	ba 00 40 1d 	add  %g1, %i5, %i5
    9a50:	84 08 80 03 	and  %g2, %g3, %g2
    9a54:	03 00 02 57 	sethi  %hi(0x95c00), %g1
    9a58:	82 10 63 64 	or  %g1, 0x364, %g1	! 95f64 <__sparc_get_pc_thunk.l7+0x8bf78>
    9a5c:	82 00 80 01 	add  %g2, %g1, %g1
    9a60:	82 08 40 04 	and  %g1, %g4, %g1
    9a64:	09 0f fc 00 	sethi  %hi(0x3ff00000), %g4
    9a68:	88 18 40 04 	xor  %g1, %g4, %g4
    9a6c:	88 11 00 02 	or  %g4, %g2, %g4
    9a70:	c8 27 bf f4 	st  %g4, [ %fp + -12 ]
    9a74:	89 38 60 14 	sra  %g1, 0x14, %g4
    9a78:	d1 07 bf f4 	ld  [ %fp + -12 ], %f8
    9a7c:	88 07 40 04 	add  %i5, %g4, %g4
    9a80:	03 00 00 00 	sethi  %hi(0), %g1
    9a84:	c8 27 bf f4 	st  %g4, [ %fp + -12 ]
    9a88:	82 18 7f 88 	xor  %g1, -120, %g1
    9a8c:	d5 07 bf f4 	ld  [ %fp + -12 ], %f10
    9a90:	82 05 c0 01 	add  %l7, %g1, %g1
    9a94:	81 a0 19 0a 	fitod  %f10, %f0
    9a98:	d5 18 40 00 	ldd  [ %g1 ], %f10
    9a9c:	82 00 a0 02 	add  %g2, 2, %g1
    9aa0:	86 08 40 03 	and  %g1, %g3, %g3
    9aa4:	80 a0 e0 02 	cmp  %g3, 2
    9aa8:	14 80 00 1c 	bg  9b18 <__ieee754_log2+0x19c>
    9aac:	91 a2 08 ca 	fsubd  %f8, %f10, %f8
    9ab0:	03 00 00 00 	sethi  %hi(0), %g1
    9ab4:	82 18 7f 90 	xor  %g1, -112, %g1
    9ab8:	82 05 c0 01 	add  %l7, %g1, %g1
    9abc:	d5 18 40 00 	ldd  [ %g1 ], %f10
    9ac0:	81 aa 0a 4a 	fcmpd  %f8, %f10
    9ac4:	01 00 00 00 	nop 
    9ac8:	13 bf ff c3 	fbe  99d4 <__ieee754_log2+0x58>
    9acc:	03 00 00 00 	sethi  %hi(0), %g1
    9ad0:	82 18 7f 98 	xor  %g1, -104, %g1
    9ad4:	82 05 c0 01 	add  %l7, %g1, %g1
    9ad8:	99 a2 09 48 	fmuld  %f8, %f8, %f12
    9adc:	d5 18 40 00 	ldd  [ %g1 ], %f10
    9ae0:	03 00 00 00 	sethi  %hi(0), %g1
    9ae4:	95 a2 09 4a 	fmuld  %f8, %f10, %f10
    9ae8:	82 18 7f a0 	xor  %g1, -96, %g1
    9aec:	82 05 c0 01 	add  %l7, %g1, %g1
    9af0:	dd 18 40 00 	ldd  [ %g1 ], %f14
    9af4:	95 a3 88 ca 	fsubd  %f14, %f10, %f10
    9af8:	95 a3 09 4a 	fmuld  %f12, %f10, %f10
    9afc:	03 00 00 00 	sethi  %hi(0), %g1
    9b00:	91 a2 88 c8 	fsubd  %f10, %f8, %f8
    9b04:	82 18 7f a8 	xor  %g1, -88, %g1
    9b08:	82 05 c0 01 	add  %l7, %g1, %g1
    9b0c:	d5 18 40 00 	ldd  [ %g1 ], %f10
    9b10:	10 80 00 4e 	b  9c48 <__ieee754_log2+0x2cc>
    9b14:	91 a2 09 ca 	fdivd  %f8, %f10, %f8
    9b18:	03 00 00 00 	sethi  %hi(0), %g1
    9b1c:	82 18 7f b0 	xor  %g1, -80, %g1
    9b20:	82 05 c0 01 	add  %l7, %g1, %g1
    9b24:	d9 18 40 00 	ldd  [ %g1 ], %f12
    9b28:	03 00 00 00 	sethi  %hi(0), %g1
    9b2c:	82 18 7f b8 	xor  %g1, -72, %g1
    9b30:	82 05 c0 01 	add  %l7, %g1, %g1
    9b34:	e1 18 40 00 	ldd  [ %g1 ], %f16
    9b38:	03 00 00 00 	sethi  %hi(0), %g1
    9b3c:	82 18 7f c0 	xor  %g1, -64, %g1
    9b40:	82 05 c0 01 	add  %l7, %g1, %g1
    9b44:	e5 18 40 00 	ldd  [ %g1 ], %f18
    9b48:	03 00 00 00 	sethi  %hi(0), %g1
    9b4c:	82 18 7f c8 	xor  %g1, -56, %g1
    9b50:	82 05 c0 01 	add  %l7, %g1, %g1
    9b54:	99 a2 08 4c 	faddd  %f8, %f12, %f12
    9b58:	99 a2 09 cc 	fdivd  %f8, %f12, %f12
    9b5c:	9d a3 09 4c 	fmuld  %f12, %f12, %f14
    9b60:	95 a3 89 4e 	fmuld  %f14, %f14, %f10
    9b64:	a1 a2 89 50 	fmuld  %f10, %f16, %f16
    9b68:	a1 a4 08 52 	faddd  %f16, %f18, %f16
    9b6c:	e5 18 40 00 	ldd  [ %g1 ], %f18
    9b70:	03 00 00 00 	sethi  %hi(0), %g1
    9b74:	82 18 7f d0 	xor  %g1, -48, %g1
    9b78:	82 05 c0 01 	add  %l7, %g1, %g1
    9b7c:	a1 a2 89 50 	fmuld  %f10, %f16, %f16
    9b80:	a1 a4 08 52 	faddd  %f16, %f18, %f16
    9b84:	e5 18 40 00 	ldd  [ %g1 ], %f18
    9b88:	a1 a2 89 50 	fmuld  %f10, %f16, %f16
    9b8c:	03 00 00 00 	sethi  %hi(0), %g1
    9b90:	a1 a4 08 52 	faddd  %f16, %f18, %f16
    9b94:	82 18 7f d8 	xor  %g1, -40, %g1
    9b98:	82 05 c0 01 	add  %l7, %g1, %g1
    9b9c:	9d a3 89 50 	fmuld  %f14, %f16, %f14
    9ba0:	e1 18 40 00 	ldd  [ %g1 ], %f16
    9ba4:	03 00 00 00 	sethi  %hi(0), %g1
    9ba8:	82 18 7f e0 	xor  %g1, -32, %g1
    9bac:	82 05 c0 01 	add  %l7, %g1, %g1
    9bb0:	e5 18 40 00 	ldd  [ %g1 ], %f18
    9bb4:	03 00 00 00 	sethi  %hi(0), %g1
    9bb8:	82 18 7f e8 	xor  %g1, -24, %g1
    9bbc:	82 05 c0 01 	add  %l7, %g1, %g1
    9bc0:	a1 a2 89 50 	fmuld  %f10, %f16, %f16
    9bc4:	07 3f fe 7a 	sethi  %hi(0xfff9e800), %g3
    9bc8:	a1 a4 08 52 	faddd  %f16, %f18, %f16
    9bcc:	86 10 e3 86 	or  %g3, 0x386, %g3
    9bd0:	a1 a2 89 50 	fmuld  %f10, %f16, %f16
    9bd4:	86 00 80 03 	add  %g2, %g3, %g3
    9bd8:	e5 18 40 00 	ldd  [ %g1 ], %f18
    9bdc:	03 00 01 ae 	sethi  %hi(0x6b800), %g1
    9be0:	a1 a4 08 52 	faddd  %f16, %f18, %f16
    9be4:	82 10 60 51 	or  %g1, 0x51, %g1
    9be8:	95 a2 89 50 	fmuld  %f10, %f16, %f10
    9bec:	84 20 40 02 	sub  %g1, %g2, %g2
    9bf0:	80 90 80 03 	orcc  %g2, %g3, %g0
    9bf4:	04 80 00 0d 	ble  9c28 <__ieee754_log2+0x2ac>
    9bf8:	95 a3 88 4a 	faddd  %f14, %f10, %f10
    9bfc:	03 00 00 00 	sethi  %hi(0), %g1
    9c00:	82 18 7f a0 	xor  %g1, -96, %g1
    9c04:	82 05 c0 01 	add  %l7, %g1, %g1
    9c08:	e1 18 40 00 	ldd  [ %g1 ], %f16
    9c0c:	a1 a2 09 50 	fmuld  %f8, %f16, %f16
    9c10:	a1 a4 09 48 	fmuld  %f16, %f8, %f16
    9c14:	95 a4 08 4a 	faddd  %f16, %f10, %f10
    9c18:	99 a3 09 4a 	fmuld  %f12, %f10, %f12
    9c1c:	a1 a4 08 cc 	fsubd  %f16, %f12, %f16
    9c20:	10 80 00 05 	b  9c34 <__ieee754_log2+0x2b8>
    9c24:	91 a4 08 c8 	fsubd  %f16, %f8, %f8
    9c28:	95 a2 08 ca 	fsubd  %f8, %f10, %f10
    9c2c:	99 a3 09 4a 	fmuld  %f12, %f10, %f12
    9c30:	91 a3 08 c8 	fsubd  %f12, %f8, %f8
    9c34:	03 00 00 00 	sethi  %hi(0), %g1
    9c38:	82 18 7f a8 	xor  %g1, -88, %g1
    9c3c:	82 05 c0 01 	add  %l7, %g1, %g1
    9c40:	dd 18 40 00 	ldd  [ %g1 ], %f14
    9c44:	91 a2 09 ce 	fdivd  %f8, %f14, %f8
    9c48:	81 a0 08 c8 	fsubd  %f0, %f8, %f0
    9c4c:	81 c7 e0 08 	ret 
    9c50:	81 e8 00 00 	restore 

00009c54 <__GI_ceil>:
    9c54:	9d e3 bf 98 	save  %sp, -104, %sp
    9c58:	f0 3f bf f8 	std  %i0, [ %fp + -8 ]
    9c5c:	2f 0f ff d9 	sethi  %hi(0x3fff6400), %l7
    9c60:	40 00 00 e3 	call  9fec <__sparc_get_pc_thunk.l7>
    9c64:	ae 05 e2 20 	add  %l7, 0x220, %l7	! 3fff6620 <__sparc_get_pc_thunk.l7+0x3ffec634>
    9c68:	87 3e 20 14 	sra  %i0, 0x14, %g3
    9c6c:	86 08 e7 ff 	and  %g3, 0x7ff, %g3
    9c70:	c1 1f bf f8 	ldd  [ %fp + -8 ], %f0
    9c74:	84 00 fc 01 	add  %g3, -1023, %g2
    9c78:	82 10 00 18 	mov  %i0, %g1
    9c7c:	80 a0 a0 13 	cmp  %g2, 0x13
    9c80:	14 80 00 33 	bg  9d4c <__GI_ceil+0xf8>
    9c84:	88 10 00 19 	mov  %i1, %g4
    9c88:	80 a0 a0 00 	cmp  %g2, 0
    9c8c:	16 80 00 16 	bge  9ce4 <__GI_ceil+0x90>
    9c90:	3b 00 03 ff 	sethi  %hi(0xffc00), %i5
    9c94:	05 00 00 00 	sethi  %hi(0), %g2
    9c98:	84 18 bf f0 	xor  %g2, -16, %g2
    9c9c:	84 05 c0 02 	add  %l7, %g2, %g2
    9ca0:	d1 18 80 00 	ldd  [ %g2 ], %f8
    9ca4:	05 00 00 00 	sethi  %hi(0), %g2
    9ca8:	81 a0 08 48 	faddd  %f0, %f8, %f0
    9cac:	84 18 bf 90 	xor  %g2, -112, %g2
    9cb0:	84 05 c0 02 	add  %l7, %g2, %g2
    9cb4:	d1 18 80 00 	ldd  [ %g2 ], %f8
    9cb8:	81 a8 0a c8 	fcmped  %f0, %f8
    9cbc:	01 00 00 00 	nop 
    9cc0:	1d 80 00 50 	fbule  9e00 <__GI_ceil+0x1ac>
    9cc4:	01 00 00 00 	nop 
    9cc8:	80 a6 20 00 	cmp  %i0, 0
    9ccc:	06 80 00 49 	bl  9df0 <__GI_ceil+0x19c>
    9cd0:	80 96 40 18 	orcc  %i1, %i0, %g0
    9cd4:	32 80 00 4a 	bne,a   9dfc <__GI_ceil+0x1a8>
    9cd8:	88 10 20 00 	clr  %g4
    9cdc:	10 80 00 4a 	b  9e04 <__GI_ceil+0x1b0>
    9ce0:	84 10 00 01 	mov  %g1, %g2
    9ce4:	ba 17 63 ff 	or  %i5, 0x3ff, %i5
    9ce8:	bb 3f 40 02 	sra  %i5, %g2, %i5
    9cec:	86 0f 40 18 	and  %i5, %i0, %g3
    9cf0:	80 90 c0 19 	orcc  %g3, %i1, %g0
    9cf4:	02 80 00 1d 	be  9d68 <__GI_ceil+0x114>
    9cf8:	07 00 00 00 	sethi  %hi(0), %g3
    9cfc:	86 18 ff f0 	xor  %g3, -16, %g3
    9d00:	86 05 c0 03 	add  %l7, %g3, %g3
    9d04:	d1 18 c0 00 	ldd  [ %g3 ], %f8
    9d08:	07 00 00 00 	sethi  %hi(0), %g3
    9d0c:	81 a0 08 48 	faddd  %f0, %f8, %f0
    9d10:	86 18 ff 90 	xor  %g3, -112, %g3
    9d14:	86 05 c0 03 	add  %l7, %g3, %g3
    9d18:	d1 18 c0 00 	ldd  [ %g3 ], %f8
    9d1c:	81 a8 0a c8 	fcmped  %f0, %f8
    9d20:	01 00 00 00 	nop 
    9d24:	1d 80 00 37 	fbule  9e00 <__GI_ceil+0x1ac>
    9d28:	01 00 00 00 	nop 
    9d2c:	80 a6 20 00 	cmp  %i0, 0
    9d30:	04 80 00 04 	ble  9d40 <__GI_ceil+0xec>
    9d34:	07 00 04 00 	sethi  %hi(0x100000), %g3
    9d38:	85 38 c0 02 	sra  %g3, %g2, %g2
    9d3c:	82 06 00 02 	add  %i0, %g2, %g1
    9d40:	82 28 40 1d 	andn  %g1, %i5, %g1
    9d44:	10 80 00 2f 	b  9e00 <__GI_ceil+0x1ac>
    9d48:	88 10 20 00 	clr  %g4
    9d4c:	80 a0 a0 33 	cmp  %g2, 0x33
    9d50:	04 80 00 08 	ble  9d70 <__GI_ceil+0x11c>
    9d54:	ba 00 fb ed 	add  %g3, -1043, %i5
    9d58:	80 a0 a4 00 	cmp  %g2, 0x400
    9d5c:	12 80 00 2d 	bne  9e10 <__GI_ceil+0x1bc>
    9d60:	01 00 00 00 	nop 
    9d64:	81 a0 08 40 	faddd  %f0, %f0, %f0
    9d68:	81 c7 e0 08 	ret 
    9d6c:	81 e8 00 00 	restore 
    9d70:	b8 10 3f ff 	mov  -1, %i4
    9d74:	b9 37 00 1d 	srl  %i4, %i5, %i4
    9d78:	80 8f 00 19 	btst  %i4, %i1
    9d7c:	02 bf ff fb 	be  9d68 <__GI_ceil+0x114>
    9d80:	3b 00 00 00 	sethi  %hi(0), %i5
    9d84:	ba 1f 7f f0 	xor  %i5, -16, %i5
    9d88:	ba 05 c0 1d 	add  %l7, %i5, %i5
    9d8c:	d1 1f 40 00 	ldd  [ %i5 ], %f8
    9d90:	3b 00 00 00 	sethi  %hi(0), %i5
    9d94:	81 a0 08 48 	faddd  %f0, %f8, %f0
    9d98:	ba 1f 7f 90 	xor  %i5, -112, %i5
    9d9c:	ba 05 c0 1d 	add  %l7, %i5, %i5
    9da0:	d1 1f 40 00 	ldd  [ %i5 ], %f8
    9da4:	81 a8 0a c8 	fcmped  %f0, %f8
    9da8:	01 00 00 00 	nop 
    9dac:	1d 80 00 15 	fbule  9e00 <__GI_ceil+0x1ac>
    9db0:	01 00 00 00 	nop 
    9db4:	80 a6 20 00 	cmp  %i0, 0
    9db8:	04 80 00 0c 	ble  9de8 <__GI_ceil+0x194>
    9dbc:	80 a0 a0 14 	cmp  %g2, 0x14
    9dc0:	12 80 00 04 	bne  9dd0 <__GI_ceil+0x17c>
    9dc4:	84 10 24 33 	mov  0x433, %g2
    9dc8:	10 80 00 08 	b  9de8 <__GI_ceil+0x194>
    9dcc:	82 06 20 01 	add  %i0, 1, %g1
    9dd0:	86 20 80 03 	sub  %g2, %g3, %g3
    9dd4:	84 10 20 01 	mov  1, %g2
    9dd8:	87 28 80 03 	sll  %g2, %g3, %g3
    9ddc:	88 06 40 03 	add  %i1, %g3, %g4
    9de0:	80 a1 00 19 	cmp  %g4, %i1
    9de4:	82 40 00 18 	addx  %g0, %i0, %g1
    9de8:	10 80 00 06 	b  9e00 <__GI_ceil+0x1ac>
    9dec:	88 29 00 1c 	andn  %g4, %i4, %g4
    9df0:	88 10 20 00 	clr  %g4
    9df4:	10 80 00 03 	b  9e00 <__GI_ceil+0x1ac>
    9df8:	03 20 00 00 	sethi  %hi(0x80000000), %g1
    9dfc:	03 0f fc 00 	sethi  %hi(0x3ff00000), %g1
    9e00:	84 10 00 01 	mov  %g1, %g2
    9e04:	86 10 00 04 	mov  %g4, %g3
    9e08:	c4 3f bf f8 	std  %g2, [ %fp + -8 ]
    9e0c:	c1 1f bf f8 	ldd  [ %fp + -8 ], %f0
    9e10:	81 c7 e0 08 	ret 
    9e14:	81 e8 00 00 	restore 

00009e18 <__GI_floor>:
    9e18:	9d e3 bf 98 	save  %sp, -104, %sp
    9e1c:	f0 3f bf f8 	std  %i0, [ %fp + -8 ]
    9e20:	2f 0f ff d9 	sethi  %hi(0x3fff6400), %l7
    9e24:	40 00 00 72 	call  9fec <__sparc_get_pc_thunk.l7>
    9e28:	ae 05 e0 5c 	add  %l7, 0x5c, %l7	! 3fff645c <__sparc_get_pc_thunk.l7+0x3ffec470>
    9e2c:	87 3e 20 14 	sra  %i0, 0x14, %g3
    9e30:	86 08 e7 ff 	and  %g3, 0x7ff, %g3
    9e34:	c1 1f bf f8 	ldd  [ %fp + -8 ], %f0
    9e38:	84 00 fc 01 	add  %g3, -1023, %g2
    9e3c:	82 10 00 18 	mov  %i0, %g1
    9e40:	80 a0 a0 13 	cmp  %g2, 0x13
    9e44:	14 80 00 37 	bg  9f20 <__GI_floor+0x108>
    9e48:	88 10 00 19 	mov  %i1, %g4
    9e4c:	80 a0 a0 00 	cmp  %g2, 0
    9e50:	16 80 00 19 	bge  9eb4 <__GI_floor+0x9c>
    9e54:	3b 00 03 ff 	sethi  %hi(0xffc00), %i5
    9e58:	05 00 00 00 	sethi  %hi(0), %g2
    9e5c:	84 18 bf f0 	xor  %g2, -16, %g2
    9e60:	84 05 c0 02 	add  %l7, %g2, %g2
    9e64:	d1 18 80 00 	ldd  [ %g2 ], %f8
    9e68:	05 00 00 00 	sethi  %hi(0), %g2
    9e6c:	81 a0 08 48 	faddd  %f0, %f8, %f0
    9e70:	84 18 bf 90 	xor  %g2, -112, %g2
    9e74:	84 05 c0 02 	add  %l7, %g2, %g2
    9e78:	d1 18 80 00 	ldd  [ %g2 ], %f8
    9e7c:	81 a8 0a c8 	fcmped  %f0, %f8
    9e80:	01 00 00 00 	nop 
    9e84:	1d 80 00 54 	fbule  9fd4 <__GI_floor+0x1bc>
    9e88:	01 00 00 00 	nop 
    9e8c:	80 a6 20 00 	cmp  %i0, 0
    9e90:	36 80 00 4e 	bge,a   9fc8 <__GI_floor+0x1b0>
    9e94:	88 10 20 00 	clr  %g4
    9e98:	05 20 00 00 	sethi  %hi(0x80000000), %g2
    9e9c:	84 2e 00 02 	andn  %i0, %g2, %g2
    9ea0:	80 90 80 19 	orcc  %g2, %i1, %g0
    9ea4:	32 80 00 4b 	bne,a   9fd0 <__GI_floor+0x1b8>
    9ea8:	88 10 20 00 	clr  %g4
    9eac:	10 80 00 4b 	b  9fd8 <__GI_floor+0x1c0>
    9eb0:	84 10 00 01 	mov  %g1, %g2
    9eb4:	ba 17 63 ff 	or  %i5, 0x3ff, %i5
    9eb8:	bb 3f 40 02 	sra  %i5, %g2, %i5
    9ebc:	86 0f 40 18 	and  %i5, %i0, %g3
    9ec0:	80 90 c0 19 	orcc  %g3, %i1, %g0
    9ec4:	02 80 00 1e 	be  9f3c <__GI_floor+0x124>
    9ec8:	07 00 00 00 	sethi  %hi(0), %g3
    9ecc:	86 18 ff f0 	xor  %g3, -16, %g3
    9ed0:	86 05 c0 03 	add  %l7, %g3, %g3
    9ed4:	d1 18 c0 00 	ldd  [ %g3 ], %f8
    9ed8:	07 00 00 00 	sethi  %hi(0), %g3
    9edc:	81 a0 08 48 	faddd  %f0, %f8, %f0
    9ee0:	86 18 ff 90 	xor  %g3, -112, %g3
    9ee4:	86 05 c0 03 	add  %l7, %g3, %g3
    9ee8:	d1 18 c0 00 	ldd  [ %g3 ], %f8
    9eec:	81 a8 0a c8 	fcmped  %f0, %f8
    9ef0:	01 00 00 00 	nop 
    9ef4:	1d 80 00 38 	fbule  9fd4 <__GI_floor+0x1bc>
    9ef8:	01 00 00 00 	nop 
    9efc:	80 a6 20 00 	cmp  %i0, 0
    9f00:	36 80 00 06 	bge,a   9f18 <__GI_floor+0x100>
    9f04:	82 28 40 1d 	andn  %g1, %i5, %g1
    9f08:	07 00 04 00 	sethi  %hi(0x100000), %g3
    9f0c:	85 38 c0 02 	sra  %g3, %g2, %g2
    9f10:	82 06 00 02 	add  %i0, %g2, %g1
    9f14:	82 28 40 1d 	andn  %g1, %i5, %g1
    9f18:	10 80 00 2f 	b  9fd4 <__GI_floor+0x1bc>
    9f1c:	88 10 20 00 	clr  %g4
    9f20:	80 a0 a0 33 	cmp  %g2, 0x33
    9f24:	04 80 00 08 	ble  9f44 <__GI_floor+0x12c>
    9f28:	ba 00 fb ed 	add  %g3, -1043, %i5
    9f2c:	80 a0 a4 00 	cmp  %g2, 0x400
    9f30:	12 80 00 2d 	bne  9fe4 <__GI_floor+0x1cc>
    9f34:	01 00 00 00 	nop 
    9f38:	81 a0 08 40 	faddd  %f0, %f0, %f0
    9f3c:	81 c7 e0 08 	ret 
    9f40:	81 e8 00 00 	restore 
    9f44:	b8 10 3f ff 	mov  -1, %i4
    9f48:	b9 37 00 1d 	srl  %i4, %i5, %i4
    9f4c:	80 8f 00 19 	btst  %i4, %i1
    9f50:	02 bf ff fb 	be  9f3c <__GI_floor+0x124>
