
.//bootstrap.elf:     file format elf32-sparc


Disassembly of section .text:

00000000 <_start>:
       0:	9c 10 3f 00 	mov  -256, %sp
       4:	bc 10 00 00 	mov  %g0, %fp
       8:	a0 10 20 01 	mov  1, %l0
       c:	81 94 20 00 	mov  %l0, %wim
      10:	21 00 00 04 	sethi  %hi(0x1000), %l0
      14:	a0 14 20 e7 	or  %l0, 0xe7, %l0	! 10e7 <DATA_SEGMENT_TO_COPY+0x1067>
      18:	81 88 00 10 	mov  %l0, %psr
      1c:	40 00 00 0f 	call  58 <copy_program_image_u64>
      20:	01 00 00 00 	nop 
      24:	4f ff ff f7 	call  40000000 <DATA_SEGMENT_TO_COPY+0x3fffff80>
      28:	01 00 00 00 	nop 
      2c:	91 d0 20 00 	ta  0

00000030 <_copy_segment_u64>:
      30:	e8 18 c0 00 	ldd  [ %g3 ], %l4
      34:	e8 39 40 00 	std  %l4, [ %g5 ]
      38:	86 00 e0 08 	add  %g3, 8, %g3
      3c:	8a 01 60 08 	add  %g5, 8, %g5
      40:	88 a1 20 08 	subcc  %g4, 8, %g4
      44:	12 bf ff fb 	bne  30 <_copy_segment_u64>
      48:	01 00 00 00 	nop 
      4c:	81 c3 e0 08 	retl 
      50:	01 00 00 00 	nop 
      54:	00 00 00 00 	unimp  0

00000058 <copy_program_image_u64>:
      58:	81 e0 00 00 	save 
      5c:	07 00 00 00 	sethi  %hi(0), %g3
      60:	86 10 e0 80 	or  %g3, 0x80, %g3	! 80 <DATA_SEGMENT_TO_COPY>
      64:	09 00 01 40 	sethi  %hi(0x50000), %g4
      68:	0b 10 00 00 	sethi  %hi(0x40000000), %g5
      6c:	7f ff ff f1 	call  30 <_copy_segment_u64>
      70:	01 00 00 00 	nop 
      74:	81 e8 00 00 	restore 
      78:	81 c3 e0 08 	retl 
      7c:	01 00 00 00 	nop 

00000080 <DATA_SEGMENT_TO_COPY>:
      80:	1d 3f fc 07 	sethi  %hi(0xfff01c00), %sp
      84:	9c 13 a3 f8 	or  %sp, 0x3f8, %sp	! fff01ff8 <DATA_SEGMENT_TO_COPY+0xfff01f78>
      88:	3d 3f fc 07 	sethi  %hi(0xfff01c00), %fp
      8c:	bc 17 a3 00 	or  %fp, 0x300, %fp	! fff01f00 <DATA_SEGMENT_TO_COPY+0xfff01e80>
      90:	a0 10 20 01 	mov  1, %l0
      94:	81 94 20 00 	mov  %l0, %wim
      98:	21 10 00 08 	sethi  %hi(0x40002000), %l0
      9c:	a0 14 20 00 	mov  %l0, %l0	! 40002000 <DATA_SEGMENT_TO_COPY+0x40001f80>
      a0:	81 9c 20 00 	mov  %l0, %tbr
      a4:	40 00 00 f7 	call  480 <DATA_SEGMENT_TO_COPY+0x400>
      a8:	01 00 00 00 	nop 
      ac:	40 00 01 44 	call  5bc <DATA_SEGMENT_TO_COPY+0x53c>
      b0:	01 00 00 00 	nop 
      b4:	21 00 00 04 	sethi  %hi(0x1000), %l0
      b8:	a0 14 20 e7 	or  %l0, 0xe7, %l0	! 10e7 <DATA_SEGMENT_TO_COPY+0x1067>
      bc:	81 88 00 10 	mov  %l0, %psr
      c0:	90 10 20 01 	mov  1, %o0
      c4:	d0 a0 00 80 	sta  %o0, [ %g0 ] #ASI_N
      c8:	40 00 17 16 	call  5d20 <DATA_SEGMENT_TO_COPY+0x5ca0>
      cc:	01 00 00 00 	nop 
      d0:	91 d0 20 00 	ta  0
	...
     480:	03 10 00 02 	sethi  %hi(0x40000800), %g1
     484:	82 10 60 00 	mov  %g1, %g1	! 40000800 <DATA_SEGMENT_TO_COPY+0x40000780>
     488:	88 10 24 00 	mov  0x400, %g4
     48c:	88 00 40 04 	add  %g1, %g4, %g4
     490:	89 31 20 04 	srl  %g4, 4, %g4
     494:	88 11 20 01 	or  %g4, 1, %g4
     498:	8a 10 28 00 	mov  0x800, %g5
     49c:	86 01 40 01 	add  %g5, %g1, %g3
     4a0:	c8 20 c0 00 	st  %g4, [ %g3 ]
     4a4:	88 10 20 00 	clr  %g4
     4a8:	88 00 40 04 	add  %g1, %g4, %g4
     4ac:	89 31 20 04 	srl  %g4, 4, %g4
     4b0:	88 11 20 01 	or  %g4, 1, %g4
     4b4:	8a 10 25 00 	mov  0x500, %g5
     4b8:	86 01 40 01 	add  %g5, %g1, %g3
     4bc:	c8 20 c0 00 	st  %g4, [ %g3 ]
     4c0:	05 01 00 00 	sethi  %hi(0x4000000), %g2
     4c4:	84 10 a0 8e 	or  %g2, 0x8e, %g2	! 400008e <DATA_SEGMENT_TO_COPY+0x400000e>
     4c8:	8a 10 20 00 	clr  %g5
     4cc:	86 01 40 01 	add  %g5, %g1, %g3
     4d0:	c4 20 c0 00 	st  %g2, [ %g3 ]
     4d4:	05 01 00 10 	sethi  %hi(0x4004000), %g2
     4d8:	84 10 a0 8e 	or  %g2, 0x8e, %g2	! 400408e <DATA_SEGMENT_TO_COPY+0x400400e>
     4dc:	8a 10 20 04 	mov  4, %g5
     4e0:	86 01 40 01 	add  %g5, %g1, %g3
     4e4:	c4 20 c0 00 	st  %g2, [ %g3 ]
     4e8:	05 01 00 20 	sethi  %hi(0x4008000), %g2
     4ec:	84 10 a0 8e 	or  %g2, 0x8e, %g2	! 400808e <DATA_SEGMENT_TO_COPY+0x400800e>
     4f0:	8a 10 20 08 	mov  8, %g5
     4f4:	86 01 40 01 	add  %g5, %g1, %g3
     4f8:	c4 20 c0 00 	st  %g2, [ %g3 ]
     4fc:	05 01 00 30 	sethi  %hi(0x400c000), %g2
     500:	84 10 a0 8e 	or  %g2, 0x8e, %g2	! 400c08e <DATA_SEGMENT_TO_COPY+0x400c00e>
     504:	8a 10 20 0c 	mov  0xc, %g5
     508:	86 01 40 01 	add  %g5, %g1, %g3
     50c:	c4 20 c0 00 	st  %g2, [ %g3 ]
     510:	88 10 23 00 	mov  0x300, %g4
     514:	88 00 40 04 	add  %g1, %g4, %g4
     518:	89 31 20 04 	srl  %g4, 4, %g4
     51c:	88 11 20 01 	or  %g4, 1, %g4
     520:	8a 10 27 fc 	mov  0x7fc, %g5
     524:	86 01 40 01 	add  %g5, %g1, %g3
     528:	c8 20 c0 00 	st  %g4, [ %g3 ]
     52c:	88 10 21 00 	mov  0x100, %g4
     530:	88 00 40 04 	add  %g1, %g4, %g4
     534:	89 31 20 04 	srl  %g4, 4, %g4
     538:	88 11 20 01 	or  %g4, 1, %g4
     53c:	8a 10 23 f0 	mov  0x3f0, %g5
     540:	86 01 40 01 	add  %g5, %g1, %g3
     544:	c8 20 c0 00 	st  %g4, [ %g3 ]
     548:	05 03 ff c0 	sethi  %hi(0xfff0000), %g2
     54c:	84 10 a0 8e 	or  %g2, 0x8e, %g2	! fff008e <DATA_SEGMENT_TO_COPY+0xfff000e>
     550:	8a 10 21 00 	mov  0x100, %g5
     554:	86 01 40 01 	add  %g5, %g1, %g3
     558:	c4 20 c0 00 	st  %g2, [ %g3 ]
     55c:	05 03 ff c0 	sethi  %hi(0xfff0000), %g2
     560:	84 10 a1 8e 	or  %g2, 0x18e, %g2	! fff018e <DATA_SEGMENT_TO_COPY+0xfff010e>
     564:	8a 10 21 04 	mov  0x104, %g5
     568:	86 01 40 01 	add  %g5, %g1, %g3
     56c:	c4 20 c0 00 	st  %g2, [ %g3 ]
     570:	88 10 22 00 	mov  0x200, %g4
     574:	88 00 40 04 	add  %g1, %g4, %g4
     578:	89 31 20 04 	srl  %g4, 4, %g4
     57c:	88 11 20 01 	or  %g4, 1, %g4
     580:	8a 10 23 fc 	mov  0x3fc, %g5
     584:	86 01 40 01 	add  %g5, %g1, %g3
     588:	c8 20 c0 00 	st  %g4, [ %g3 ]
     58c:	05 03 ff fc 	sethi  %hi(0xffff000), %g2
     590:	84 10 a3 0e 	or  %g2, 0x30e, %g2	! ffff30e <DATA_SEGMENT_TO_COPY+0xffff28e>
     594:	8a 10 22 cc 	mov  0x2cc, %g5
     598:	86 01 40 01 	add  %g5, %g1, %g3
     59c:	c4 20 c0 00 	st  %g2, [ %g3 ]
     5a0:	05 03 ff fd 	sethi  %hi(0xffff400), %g2
     5a4:	84 10 a0 0e 	or  %g2, 0xe, %g2	! ffff40e <DATA_SEGMENT_TO_COPY+0xffff38e>
     5a8:	8a 10 22 d0 	mov  0x2d0, %g5
     5ac:	86 01 40 01 	add  %g5, %g1, %g3
     5b0:	c4 20 c0 00 	st  %g2, [ %g3 ]
     5b4:	81 c3 e0 08 	retl 
     5b8:	01 00 00 00 	nop 
     5bc:	03 10 00 02 	sethi  %hi(0x40000800), %g1
     5c0:	82 10 60 00 	mov  %g1, %g1	! 40000800 <DATA_SEGMENT_TO_COPY+0x40000780>
     5c4:	8a 10 28 00 	mov  0x800, %g5
     5c8:	84 01 40 01 	add  %g5, %g1, %g2
     5cc:	85 30 a0 04 	srl  %g2, 4, %g2
     5d0:	84 10 a0 01 	or  %g2, 1, %g2
     5d4:	86 10 21 00 	mov  0x100, %g3
     5d8:	c4 a0 c0 80 	sta  %g2, [ %g3 ] #ASI_N
     5dc:	81 c3 e0 08 	retl 
     5e0:	01 00 00 00 	nop 
     5e4:	01 00 00 00 	nop 
     5e8:	01 00 00 00 	nop 
     5ec:	01 00 00 00 	nop 
     5f0:	01 00 00 00 	nop 
     5f4:	01 00 00 00 	nop 
     5f8:	01 00 00 00 	nop 
     5fc:	01 00 00 00 	nop 
     600:	01 00 00 00 	nop 
     604:	01 00 00 00 	nop 
     608:	01 00 00 00 	nop 
     60c:	01 00 00 00 	nop 
     610:	01 00 00 00 	nop 
     614:	01 00 00 00 	nop 
     618:	01 00 00 00 	nop 
     61c:	01 00 00 00 	nop 
     620:	01 00 00 00 	nop 
     624:	01 00 00 00 	nop 
     628:	01 00 00 00 	nop 
     62c:	01 00 00 00 	nop 
     630:	01 00 00 00 	nop 
     634:	01 00 00 00 	nop 
     638:	01 00 00 00 	nop 
     63c:	01 00 00 00 	nop 
     640:	01 00 00 00 	nop 
     644:	01 00 00 00 	nop 
     648:	01 00 00 00 	nop 
     64c:	01 00 00 00 	nop 
     650:	01 00 00 00 	nop 
     654:	01 00 00 00 	nop 
     658:	01 00 00 00 	nop 
     65c:	01 00 00 00 	nop 
     660:	01 00 00 00 	nop 
     664:	01 00 00 00 	nop 
     668:	01 00 00 00 	nop 
     66c:	01 00 00 00 	nop 
     670:	01 00 00 00 	nop 
     674:	01 00 00 00 	nop 
     678:	01 00 00 00 	nop 
     67c:	01 00 00 00 	nop 
     680:	01 00 00 00 	nop 
     684:	01 00 00 00 	nop 
     688:	01 00 00 00 	nop 
     68c:	01 00 00 00 	nop 
     690:	01 00 00 00 	nop 
     694:	01 00 00 00 	nop 
     698:	01 00 00 00 	nop 
     69c:	01 00 00 00 	nop 
     6a0:	01 00 00 00 	nop 
     6a4:	01 00 00 00 	nop 
     6a8:	01 00 00 00 	nop 
     6ac:	01 00 00 00 	nop 
     6b0:	01 00 00 00 	nop 
     6b4:	01 00 00 00 	nop 
     6b8:	01 00 00 00 	nop 
     6bc:	01 00 00 00 	nop 
     6c0:	01 00 00 00 	nop 
     6c4:	01 00 00 00 	nop 
     6c8:	01 00 00 00 	nop 
     6cc:	01 00 00 00 	nop 
     6d0:	01 00 00 00 	nop 
     6d4:	01 00 00 00 	nop 
     6d8:	01 00 00 00 	nop 
     6dc:	01 00 00 00 	nop 
     6e0:	01 00 00 00 	nop 
     6e4:	01 00 00 00 	nop 
     6e8:	01 00 00 00 	nop 
     6ec:	01 00 00 00 	nop 
     6f0:	01 00 00 00 	nop 
     6f4:	01 00 00 00 	nop 
     6f8:	01 00 00 00 	nop 
     6fc:	01 00 00 00 	nop 
     700:	01 00 00 00 	nop 
     704:	01 00 00 00 	nop 
     708:	01 00 00 00 	nop 
     70c:	01 00 00 00 	nop 
     710:	01 00 00 00 	nop 
     714:	01 00 00 00 	nop 
     718:	01 00 00 00 	nop 
     71c:	01 00 00 00 	nop 
     720:	01 00 00 00 	nop 
     724:	01 00 00 00 	nop 
     728:	01 00 00 00 	nop 
     72c:	01 00 00 00 	nop 
     730:	01 00 00 00 	nop 
     734:	01 00 00 00 	nop 
     738:	01 00 00 00 	nop 
     73c:	01 00 00 00 	nop 
     740:	01 00 00 00 	nop 
     744:	01 00 00 00 	nop 
     748:	01 00 00 00 	nop 
     74c:	01 00 00 00 	nop 
     750:	01 00 00 00 	nop 
     754:	01 00 00 00 	nop 
     758:	01 00 00 00 	nop 
     75c:	01 00 00 00 	nop 
     760:	01 00 00 00 	nop 
     764:	01 00 00 00 	nop 
     768:	01 00 00 00 	nop 
     76c:	01 00 00 00 	nop 
     770:	01 00 00 00 	nop 
     774:	01 00 00 00 	nop 
     778:	01 00 00 00 	nop 
     77c:	01 00 00 00 	nop 
     780:	01 00 00 00 	nop 
     784:	01 00 00 00 	nop 
     788:	01 00 00 00 	nop 
     78c:	01 00 00 00 	nop 
     790:	01 00 00 00 	nop 
     794:	01 00 00 00 	nop 
     798:	01 00 00 00 	nop 
     79c:	01 00 00 00 	nop 
     7a0:	01 00 00 00 	nop 
     7a4:	01 00 00 00 	nop 
     7a8:	01 00 00 00 	nop 
     7ac:	01 00 00 00 	nop 
     7b0:	01 00 00 00 	nop 
     7b4:	01 00 00 00 	nop 
     7b8:	01 00 00 00 	nop 
     7bc:	01 00 00 00 	nop 
     7c0:	01 00 00 00 	nop 
     7c4:	01 00 00 00 	nop 
     7c8:	01 00 00 00 	nop 
     7cc:	01 00 00 00 	nop 
     7d0:	01 00 00 00 	nop 
     7d4:	01 00 00 00 	nop 
     7d8:	01 00 00 00 	nop 
     7dc:	01 00 00 00 	nop 
     7e0:	01 00 00 00 	nop 
     7e4:	01 00 00 00 	nop 
     7e8:	01 00 00 00 	nop 
     7ec:	01 00 00 00 	nop 
     7f0:	01 00 00 00 	nop 
     7f4:	01 00 00 00 	nop 
     7f8:	01 00 00 00 	nop 
     7fc:	01 00 00 00 	nop 
     800:	01 00 00 00 	nop 
     804:	01 00 00 00 	nop 
     808:	01 00 00 00 	nop 
     80c:	01 00 00 00 	nop 
     810:	01 00 00 00 	nop 
     814:	01 00 00 00 	nop 
     818:	01 00 00 00 	nop 
     81c:	01 00 00 00 	nop 
     820:	01 00 00 00 	nop 
     824:	01 00 00 00 	nop 
     828:	01 00 00 00 	nop 
     82c:	01 00 00 00 	nop 
     830:	01 00 00 00 	nop 
     834:	01 00 00 00 	nop 
     838:	01 00 00 00 	nop 
     83c:	01 00 00 00 	nop 
     840:	01 00 00 00 	nop 
     844:	01 00 00 00 	nop 
     848:	01 00 00 00 	nop 
     84c:	01 00 00 00 	nop 
     850:	01 00 00 00 	nop 
     854:	01 00 00 00 	nop 
     858:	01 00 00 00 	nop 
     85c:	01 00 00 00 	nop 
     860:	01 00 00 00 	nop 
     864:	01 00 00 00 	nop 
     868:	01 00 00 00 	nop 
     86c:	01 00 00 00 	nop 
     870:	01 00 00 00 	nop 
     874:	01 00 00 00 	nop 
     878:	01 00 00 00 	nop 
     87c:	01 00 00 00 	nop 
	...
    1480:	a7 50 00 00 	rd  %wim, %l3
    1484:	a9 2c e0 07 	sll  %l3, 7, %l4
    1488:	a7 34 e0 01 	srl  %l3, 1, %l3
    148c:	a6 14 c0 14 	or  %l3, %l4, %l3
    1490:	a6 0c e0 ff 	and  %l3, 0xff, %l3
    1494:	81 90 00 00 	mov  %g0, %wim
    1498:	01 00 00 00 	nop 
    149c:	01 00 00 00 	nop 
    14a0:	01 00 00 00 	nop 
    14a4:	81 e0 00 00 	save 
    14a8:	e0 3b a0 00 	std  %l0, [ %sp ]
    14ac:	e4 3b a0 08 	std  %l2, [ %sp + 8 ]
    14b0:	e8 3b a0 10 	std  %l4, [ %sp + 0x10 ]
    14b4:	ec 3b a0 18 	std  %l6, [ %sp + 0x18 ]
    14b8:	f0 3b a0 20 	std  %i0, [ %sp + 0x20 ]
    14bc:	f4 3b a0 28 	std  %i2, [ %sp + 0x28 ]
    14c0:	f8 3b a0 30 	std  %i4, [ %sp + 0x30 ]
    14c4:	fc 3b a0 38 	std  %fp, [ %sp + 0x38 ]
    14c8:	81 e8 00 00 	restore 
    14cc:	81 90 00 13 	mov  %l3, %wim
    14d0:	01 00 00 00 	nop 
    14d4:	01 00 00 00 	nop 
    14d8:	01 00 00 00 	nop 
    14dc:	81 c4 40 00 	jmp  %l1
    14e0:	81 cc 80 00 	rett  %l2
    14e4:	a7 50 00 00 	rd  %wim, %l3
    14e8:	a9 34 e0 07 	srl  %l3, 7, %l4
    14ec:	a7 2c e0 01 	sll  %l3, 1, %l3
    14f0:	a6 14 c0 14 	or  %l3, %l4, %l3
    14f4:	a6 0c e0 ff 	and  %l3, 0xff, %l3
    14f8:	81 90 00 00 	mov  %g0, %wim
    14fc:	01 00 00 00 	nop 
    1500:	01 00 00 00 	nop 
    1504:	01 00 00 00 	nop 
    1508:	81 e8 00 00 	restore 
    150c:	81 e8 00 00 	restore 
    1510:	e0 1b a0 00 	ldd  [ %sp ], %l0
    1514:	e4 1b a0 08 	ldd  [ %sp + 8 ], %l2
    1518:	e8 1b a0 10 	ldd  [ %sp + 0x10 ], %l4
    151c:	ec 1b a0 18 	ldd  [ %sp + 0x18 ], %l6
    1520:	f0 1b a0 20 	ldd  [ %sp + 0x20 ], %i0
    1524:	f4 1b a0 28 	ldd  [ %sp + 0x28 ], %i2
    1528:	f8 1b a0 30 	ldd  [ %sp + 0x30 ], %i4
    152c:	fc 1b a0 38 	ldd  [ %sp + 0x38 ], %fp
    1530:	81 e0 00 00 	save 
    1534:	81 e0 00 00 	save 
    1538:	81 90 00 13 	mov  %l3, %wim
    153c:	01 00 00 00 	nop 
    1540:	01 00 00 00 	nop 
    1544:	01 00 00 00 	nop 
    1548:	81 c4 40 00 	jmp  %l1
    154c:	81 cc 80 00 	rett  %l2
    1550:	00 00 00 00 	unimp  0
	...
    2080:	91 d0 20 00 	ta  0
    2084:	01 00 00 00 	nop 
    2088:	01 00 00 00 	nop 
    208c:	01 00 00 00 	nop 
    2090:	91 d0 20 00 	ta  0
    2094:	01 00 00 00 	nop 
    2098:	01 00 00 00 	nop 
    209c:	01 00 00 00 	nop 
    20a0:	91 d0 20 00 	ta  0
    20a4:	01 00 00 00 	nop 
    20a8:	01 00 00 00 	nop 
    20ac:	01 00 00 00 	nop 
    20b0:	91 d0 20 00 	ta  0
    20b4:	01 00 00 00 	nop 
    20b8:	01 00 00 00 	nop 
    20bc:	01 00 00 00 	nop 
    20c0:	91 d0 20 00 	ta  0
    20c4:	01 00 00 00 	nop 
    20c8:	01 00 00 00 	nop 
    20cc:	01 00 00 00 	nop 
    20d0:	10 bf fc ec 	b  1480 <DATA_SEGMENT_TO_COPY+0x1400>
    20d4:	01 00 00 00 	nop 
    20d8:	01 00 00 00 	nop 
    20dc:	01 00 00 00 	nop 
    20e0:	10 bf fd 01 	b  14e4 <DATA_SEGMENT_TO_COPY+0x1464>
    20e4:	01 00 00 00 	nop 
    20e8:	01 00 00 00 	nop 
    20ec:	01 00 00 00 	nop 
    20f0:	91 d0 20 00 	ta  0
    20f4:	01 00 00 00 	nop 
    20f8:	01 00 00 00 	nop 
    20fc:	01 00 00 00 	nop 
    2100:	91 d0 20 00 	ta  0
    2104:	01 00 00 00 	nop 
    2108:	01 00 00 00 	nop 
    210c:	01 00 00 00 	nop 
    2110:	91 d0 20 00 	ta  0
    2114:	01 00 00 00 	nop 
    2118:	01 00 00 00 	nop 
    211c:	01 00 00 00 	nop 
    2120:	91 d0 20 00 	ta  0
    2124:	01 00 00 00 	nop 
    2128:	01 00 00 00 	nop 
    212c:	01 00 00 00 	nop 
    2130:	91 d0 20 00 	ta  0
    2134:	01 00 00 00 	nop 
    2138:	01 00 00 00 	nop 
    213c:	01 00 00 00 	nop 
    2140:	91 d0 20 00 	ta  0
    2144:	01 00 00 00 	nop 
    2148:	01 00 00 00 	nop 
    214c:	01 00 00 00 	nop 
    2150:	91 d0 20 00 	ta  0
    2154:	01 00 00 00 	nop 
    2158:	01 00 00 00 	nop 
    215c:	01 00 00 00 	nop 
    2160:	91 d0 20 00 	ta  0
    2164:	01 00 00 00 	nop 
    2168:	01 00 00 00 	nop 
    216c:	01 00 00 00 	nop 
    2170:	91 d0 20 00 	ta  0
    2174:	01 00 00 00 	nop 
    2178:	01 00 00 00 	nop 
    217c:	01 00 00 00 	nop 
    2180:	91 d0 20 00 	ta  0
    2184:	01 00 00 00 	nop 
    2188:	01 00 00 00 	nop 
    218c:	01 00 00 00 	nop 
    2190:	91 d0 20 00 	ta  0
    2194:	01 00 00 00 	nop 
    2198:	01 00 00 00 	nop 
    219c:	01 00 00 00 	nop 
    21a0:	91 d0 20 00 	ta  0
    21a4:	01 00 00 00 	nop 
    21a8:	01 00 00 00 	nop 
    21ac:	01 00 00 00 	nop 
    21b0:	91 d0 20 00 	ta  0
    21b4:	01 00 00 00 	nop 
    21b8:	01 00 00 00 	nop 
    21bc:	01 00 00 00 	nop 
    21c0:	91 d0 20 00 	ta  0
    21c4:	01 00 00 00 	nop 
    21c8:	01 00 00 00 	nop 
    21cc:	01 00 00 00 	nop 
    21d0:	91 d0 20 00 	ta  0
    21d4:	01 00 00 00 	nop 
    21d8:	01 00 00 00 	nop 
    21dc:	01 00 00 00 	nop 
    21e0:	91 d0 20 00 	ta  0
    21e4:	01 00 00 00 	nop 
    21e8:	01 00 00 00 	nop 
    21ec:	01 00 00 00 	nop 
    21f0:	91 d0 20 00 	ta  0
    21f4:	01 00 00 00 	nop 
    21f8:	01 00 00 00 	nop 
    21fc:	01 00 00 00 	nop 
    2200:	91 d0 20 00 	ta  0
    2204:	01 00 00 00 	nop 
    2208:	01 00 00 00 	nop 
    220c:	01 00 00 00 	nop 
    2210:	91 d0 20 00 	ta  0
    2214:	01 00 00 00 	nop 
    2218:	01 00 00 00 	nop 
    221c:	01 00 00 00 	nop 
    2220:	91 d0 20 00 	ta  0
    2224:	01 00 00 00 	nop 
    2228:	01 00 00 00 	nop 
    222c:	01 00 00 00 	nop 
    2230:	91 d0 20 00 	ta  0
    2234:	01 00 00 00 	nop 
    2238:	01 00 00 00 	nop 
    223c:	01 00 00 00 	nop 
    2240:	91 d0 20 00 	ta  0
    2244:	01 00 00 00 	nop 
    2248:	01 00 00 00 	nop 
    224c:	01 00 00 00 	nop 
    2250:	91 d0 20 00 	ta  0
    2254:	01 00 00 00 	nop 
    2258:	01 00 00 00 	nop 
    225c:	01 00 00 00 	nop 
    2260:	91 d0 20 00 	ta  0
    2264:	01 00 00 00 	nop 
    2268:	01 00 00 00 	nop 
    226c:	01 00 00 00 	nop 
    2270:	91 d0 20 00 	ta  0
    2274:	01 00 00 00 	nop 
    2278:	01 00 00 00 	nop 
    227c:	01 00 00 00 	nop 
    2280:	91 d0 20 00 	ta  0
    2284:	01 00 00 00 	nop 
    2288:	01 00 00 00 	nop 
    228c:	01 00 00 00 	nop 
    2290:	91 d0 20 00 	ta  0
    2294:	01 00 00 00 	nop 
    2298:	01 00 00 00 	nop 
    229c:	01 00 00 00 	nop 
    22a0:	91 d0 20 00 	ta  0
    22a4:	01 00 00 00 	nop 
    22a8:	01 00 00 00 	nop 
    22ac:	01 00 00 00 	nop 
    22b0:	91 d0 20 00 	ta  0
    22b4:	01 00 00 00 	nop 
    22b8:	01 00 00 00 	nop 
    22bc:	01 00 00 00 	nop 
    22c0:	91 d0 20 00 	ta  0
    22c4:	01 00 00 00 	nop 
    22c8:	01 00 00 00 	nop 
    22cc:	01 00 00 00 	nop 
    22d0:	91 d0 20 00 	ta  0
    22d4:	01 00 00 00 	nop 
    22d8:	01 00 00 00 	nop 
    22dc:	01 00 00 00 	nop 
    22e0:	91 d0 20 00 	ta  0
    22e4:	01 00 00 00 	nop 
    22e8:	01 00 00 00 	nop 
    22ec:	01 00 00 00 	nop 
    22f0:	91 d0 20 00 	ta  0
    22f4:	01 00 00 00 	nop 
    22f8:	01 00 00 00 	nop 
    22fc:	01 00 00 00 	nop 
    2300:	91 d0 20 00 	ta  0
    2304:	01 00 00 00 	nop 
    2308:	01 00 00 00 	nop 
    230c:	01 00 00 00 	nop 
    2310:	91 d0 20 00 	ta  0
    2314:	01 00 00 00 	nop 
    2318:	01 00 00 00 	nop 
    231c:	01 00 00 00 	nop 
    2320:	91 d0 20 00 	ta  0
    2324:	01 00 00 00 	nop 
    2328:	01 00 00 00 	nop 
    232c:	01 00 00 00 	nop 
    2330:	91 d0 20 00 	ta  0
    2334:	01 00 00 00 	nop 
    2338:	01 00 00 00 	nop 
    233c:	01 00 00 00 	nop 
    2340:	91 d0 20 00 	ta  0
    2344:	01 00 00 00 	nop 
    2348:	01 00 00 00 	nop 
    234c:	01 00 00 00 	nop 
    2350:	91 d0 20 00 	ta  0
    2354:	01 00 00 00 	nop 
    2358:	01 00 00 00 	nop 
    235c:	01 00 00 00 	nop 
    2360:	91 d0 20 00 	ta  0
    2364:	01 00 00 00 	nop 
    2368:	01 00 00 00 	nop 
    236c:	01 00 00 00 	nop 
    2370:	91 d0 20 00 	ta  0
    2374:	01 00 00 00 	nop 
    2378:	01 00 00 00 	nop 
    237c:	01 00 00 00 	nop 
    2380:	91 d0 20 00 	ta  0
    2384:	01 00 00 00 	nop 
    2388:	01 00 00 00 	nop 
    238c:	01 00 00 00 	nop 
    2390:	91 d0 20 00 	ta  0
    2394:	01 00 00 00 	nop 
    2398:	01 00 00 00 	nop 
    239c:	01 00 00 00 	nop 
    23a0:	91 d0 20 00 	ta  0
    23a4:	01 00 00 00 	nop 
    23a8:	01 00 00 00 	nop 
    23ac:	01 00 00 00 	nop 
    23b0:	91 d0 20 00 	ta  0
    23b4:	01 00 00 00 	nop 
    23b8:	01 00 00 00 	nop 
    23bc:	01 00 00 00 	nop 
    23c0:	91 d0 20 00 	ta  0
    23c4:	01 00 00 00 	nop 
    23c8:	01 00 00 00 	nop 
    23cc:	01 00 00 00 	nop 
    23d0:	91 d0 20 00 	ta  0
    23d4:	01 00 00 00 	nop 
    23d8:	01 00 00 00 	nop 
    23dc:	01 00 00 00 	nop 
    23e0:	91 d0 20 00 	ta  0
    23e4:	01 00 00 00 	nop 
    23e8:	01 00 00 00 	nop 
    23ec:	01 00 00 00 	nop 
    23f0:	91 d0 20 00 	ta  0
    23f4:	01 00 00 00 	nop 
    23f8:	01 00 00 00 	nop 
    23fc:	01 00 00 00 	nop 
    2400:	91 d0 20 00 	ta  0
    2404:	01 00 00 00 	nop 
    2408:	01 00 00 00 	nop 
    240c:	01 00 00 00 	nop 
    2410:	91 d0 20 00 	ta  0
    2414:	01 00 00 00 	nop 
    2418:	01 00 00 00 	nop 
    241c:	01 00 00 00 	nop 
    2420:	91 d0 20 00 	ta  0
    2424:	01 00 00 00 	nop 
    2428:	01 00 00 00 	nop 
    242c:	01 00 00 00 	nop 
    2430:	91 d0 20 00 	ta  0
    2434:	01 00 00 00 	nop 
    2438:	01 00 00 00 	nop 
    243c:	01 00 00 00 	nop 
    2440:	91 d0 20 00 	ta  0
    2444:	01 00 00 00 	nop 
    2448:	01 00 00 00 	nop 
    244c:	01 00 00 00 	nop 
    2450:	91 d0 20 00 	ta  0
    2454:	01 00 00 00 	nop 
    2458:	01 00 00 00 	nop 
    245c:	01 00 00 00 	nop 
    2460:	91 d0 20 00 	ta  0
    2464:	01 00 00 00 	nop 
    2468:	01 00 00 00 	nop 
    246c:	01 00 00 00 	nop 
    2470:	91 d0 20 00 	ta  0
    2474:	01 00 00 00 	nop 
    2478:	01 00 00 00 	nop 
    247c:	01 00 00 00 	nop 
    2480:	91 d0 20 00 	ta  0
    2484:	01 00 00 00 	nop 
    2488:	01 00 00 00 	nop 
    248c:	01 00 00 00 	nop 
    2490:	91 d0 20 00 	ta  0
    2494:	01 00 00 00 	nop 
    2498:	01 00 00 00 	nop 
    249c:	01 00 00 00 	nop 
    24a0:	91 d0 20 00 	ta  0
    24a4:	01 00 00 00 	nop 
    24a8:	01 00 00 00 	nop 
    24ac:	01 00 00 00 	nop 
    24b0:	91 d0 20 00 	ta  0
    24b4:	01 00 00 00 	nop 
    24b8:	01 00 00 00 	nop 
    24bc:	01 00 00 00 	nop 
    24c0:	91 d0 20 00 	ta  0
    24c4:	01 00 00 00 	nop 
    24c8:	01 00 00 00 	nop 
    24cc:	01 00 00 00 	nop 
    24d0:	91 d0 20 00 	ta  0
    24d4:	01 00 00 00 	nop 
    24d8:	01 00 00 00 	nop 
    24dc:	01 00 00 00 	nop 
    24e0:	91 d0 20 00 	ta  0
    24e4:	01 00 00 00 	nop 
    24e8:	01 00 00 00 	nop 
    24ec:	01 00 00 00 	nop 
    24f0:	91 d0 20 00 	ta  0
    24f4:	01 00 00 00 	nop 
    24f8:	01 00 00 00 	nop 
    24fc:	01 00 00 00 	nop 
    2500:	91 d0 20 00 	ta  0
    2504:	01 00 00 00 	nop 
    2508:	01 00 00 00 	nop 
    250c:	01 00 00 00 	nop 
    2510:	91 d0 20 00 	ta  0
    2514:	01 00 00 00 	nop 
    2518:	01 00 00 00 	nop 
    251c:	01 00 00 00 	nop 
    2520:	91 d0 20 00 	ta  0
    2524:	01 00 00 00 	nop 
    2528:	01 00 00 00 	nop 
    252c:	01 00 00 00 	nop 
    2530:	91 d0 20 00 	ta  0
    2534:	01 00 00 00 	nop 
    2538:	01 00 00 00 	nop 
    253c:	01 00 00 00 	nop 
    2540:	91 d0 20 00 	ta  0
    2544:	01 00 00 00 	nop 
    2548:	01 00 00 00 	nop 
    254c:	01 00 00 00 	nop 
    2550:	91 d0 20 00 	ta  0
    2554:	01 00 00 00 	nop 
    2558:	01 00 00 00 	nop 
    255c:	01 00 00 00 	nop 
    2560:	91 d0 20 00 	ta  0
    2564:	01 00 00 00 	nop 
    2568:	01 00 00 00 	nop 
    256c:	01 00 00 00 	nop 
    2570:	91 d0 20 00 	ta  0
    2574:	01 00 00 00 	nop 
    2578:	01 00 00 00 	nop 
    257c:	01 00 00 00 	nop 
    2580:	91 d0 20 00 	ta  0
    2584:	01 00 00 00 	nop 
    2588:	01 00 00 00 	nop 
    258c:	01 00 00 00 	nop 
    2590:	91 d0 20 00 	ta  0
    2594:	01 00 00 00 	nop 
    2598:	01 00 00 00 	nop 
    259c:	01 00 00 00 	nop 
    25a0:	91 d0 20 00 	ta  0
    25a4:	01 00 00 00 	nop 
    25a8:	01 00 00 00 	nop 
    25ac:	01 00 00 00 	nop 
    25b0:	91 d0 20 00 	ta  0
    25b4:	01 00 00 00 	nop 
    25b8:	01 00 00 00 	nop 
    25bc:	01 00 00 00 	nop 
    25c0:	91 d0 20 00 	ta  0
    25c4:	01 00 00 00 	nop 
    25c8:	01 00 00 00 	nop 
    25cc:	01 00 00 00 	nop 
    25d0:	91 d0 20 00 	ta  0
    25d4:	01 00 00 00 	nop 
    25d8:	01 00 00 00 	nop 
    25dc:	01 00 00 00 	nop 
    25e0:	91 d0 20 00 	ta  0
    25e4:	01 00 00 00 	nop 
    25e8:	01 00 00 00 	nop 
    25ec:	01 00 00 00 	nop 
    25f0:	91 d0 20 00 	ta  0
    25f4:	01 00 00 00 	nop 
    25f8:	01 00 00 00 	nop 
    25fc:	01 00 00 00 	nop 
    2600:	91 d0 20 00 	ta  0
    2604:	01 00 00 00 	nop 
    2608:	01 00 00 00 	nop 
    260c:	01 00 00 00 	nop 
    2610:	91 d0 20 00 	ta  0
    2614:	01 00 00 00 	nop 
    2618:	01 00 00 00 	nop 
    261c:	01 00 00 00 	nop 
    2620:	91 d0 20 00 	ta  0
    2624:	01 00 00 00 	nop 
    2628:	01 00 00 00 	nop 
    262c:	01 00 00 00 	nop 
    2630:	91 d0 20 00 	ta  0
    2634:	01 00 00 00 	nop 
    2638:	01 00 00 00 	nop 
    263c:	01 00 00 00 	nop 
    2640:	91 d0 20 00 	ta  0
    2644:	01 00 00 00 	nop 
    2648:	01 00 00 00 	nop 
    264c:	01 00 00 00 	nop 
    2650:	91 d0 20 00 	ta  0
    2654:	01 00 00 00 	nop 
    2658:	01 00 00 00 	nop 
    265c:	01 00 00 00 	nop 
    2660:	91 d0 20 00 	ta  0
    2664:	01 00 00 00 	nop 
    2668:	01 00 00 00 	nop 
    266c:	01 00 00 00 	nop 
    2670:	91 d0 20 00 	ta  0
    2674:	01 00 00 00 	nop 
    2678:	01 00 00 00 	nop 
    267c:	01 00 00 00 	nop 
    2680:	91 d0 20 00 	ta  0
    2684:	01 00 00 00 	nop 
    2688:	01 00 00 00 	nop 
    268c:	01 00 00 00 	nop 
    2690:	91 d0 20 00 	ta  0
    2694:	01 00 00 00 	nop 
    2698:	01 00 00 00 	nop 
    269c:	01 00 00 00 	nop 
    26a0:	91 d0 20 00 	ta  0
    26a4:	01 00 00 00 	nop 
    26a8:	01 00 00 00 	nop 
    26ac:	01 00 00 00 	nop 
    26b0:	91 d0 20 00 	ta  0
    26b4:	01 00 00 00 	nop 
    26b8:	01 00 00 00 	nop 
    26bc:	01 00 00 00 	nop 
    26c0:	91 d0 20 00 	ta  0
    26c4:	01 00 00 00 	nop 
    26c8:	01 00 00 00 	nop 
    26cc:	01 00 00 00 	nop 
    26d0:	91 d0 20 00 	ta  0
    26d4:	01 00 00 00 	nop 
    26d8:	01 00 00 00 	nop 
    26dc:	01 00 00 00 	nop 
    26e0:	91 d0 20 00 	ta  0
    26e4:	01 00 00 00 	nop 
    26e8:	01 00 00 00 	nop 
    26ec:	01 00 00 00 	nop 
    26f0:	91 d0 20 00 	ta  0
    26f4:	01 00 00 00 	nop 
    26f8:	01 00 00 00 	nop 
    26fc:	01 00 00 00 	nop 
    2700:	91 d0 20 00 	ta  0
    2704:	01 00 00 00 	nop 
    2708:	01 00 00 00 	nop 
    270c:	01 00 00 00 	nop 
    2710:	91 d0 20 00 	ta  0
    2714:	01 00 00 00 	nop 
    2718:	01 00 00 00 	nop 
    271c:	01 00 00 00 	nop 
    2720:	91 d0 20 00 	ta  0
    2724:	01 00 00 00 	nop 
    2728:	01 00 00 00 	nop 
    272c:	01 00 00 00 	nop 
    2730:	91 d0 20 00 	ta  0
    2734:	01 00 00 00 	nop 
    2738:	01 00 00 00 	nop 
    273c:	01 00 00 00 	nop 
    2740:	91 d0 20 00 	ta  0
    2744:	01 00 00 00 	nop 
    2748:	01 00 00 00 	nop 
    274c:	01 00 00 00 	nop 
    2750:	91 d0 20 00 	ta  0
    2754:	01 00 00 00 	nop 
    2758:	01 00 00 00 	nop 
    275c:	01 00 00 00 	nop 
    2760:	91 d0 20 00 	ta  0
    2764:	01 00 00 00 	nop 
    2768:	01 00 00 00 	nop 
    276c:	01 00 00 00 	nop 
    2770:	91 d0 20 00 	ta  0
    2774:	01 00 00 00 	nop 
    2778:	01 00 00 00 	nop 
    277c:	01 00 00 00 	nop 
    2780:	91 d0 20 00 	ta  0
    2784:	01 00 00 00 	nop 
    2788:	01 00 00 00 	nop 
    278c:	01 00 00 00 	nop 
    2790:	91 d0 20 00 	ta  0
    2794:	01 00 00 00 	nop 
    2798:	01 00 00 00 	nop 
    279c:	01 00 00 00 	nop 
    27a0:	91 d0 20 00 	ta  0
    27a4:	01 00 00 00 	nop 
    27a8:	01 00 00 00 	nop 
    27ac:	01 00 00 00 	nop 
    27b0:	91 d0 20 00 	ta  0
    27b4:	01 00 00 00 	nop 
    27b8:	01 00 00 00 	nop 
    27bc:	01 00 00 00 	nop 
    27c0:	91 d0 20 00 	ta  0
    27c4:	01 00 00 00 	nop 
    27c8:	01 00 00 00 	nop 
    27cc:	01 00 00 00 	nop 
    27d0:	91 d0 20 00 	ta  0
    27d4:	01 00 00 00 	nop 
    27d8:	01 00 00 00 	nop 
    27dc:	01 00 00 00 	nop 
    27e0:	91 d0 20 00 	ta  0
    27e4:	01 00 00 00 	nop 
    27e8:	01 00 00 00 	nop 
    27ec:	01 00 00 00 	nop 
    27f0:	91 d0 20 00 	ta  0
    27f4:	01 00 00 00 	nop 
    27f8:	01 00 00 00 	nop 
    27fc:	01 00 00 00 	nop 
    2800:	91 d0 20 00 	ta  0
    2804:	01 00 00 00 	nop 
    2808:	01 00 00 00 	nop 
    280c:	01 00 00 00 	nop 
    2810:	91 d0 20 00 	ta  0
    2814:	01 00 00 00 	nop 
    2818:	01 00 00 00 	nop 
    281c:	01 00 00 00 	nop 
    2820:	91 d0 20 00 	ta  0
    2824:	01 00 00 00 	nop 
    2828:	01 00 00 00 	nop 
    282c:	01 00 00 00 	nop 
    2830:	91 d0 20 00 	ta  0
    2834:	01 00 00 00 	nop 
    2838:	01 00 00 00 	nop 
    283c:	01 00 00 00 	nop 
    2840:	91 d0 20 00 	ta  0
    2844:	01 00 00 00 	nop 
    2848:	01 00 00 00 	nop 
    284c:	01 00 00 00 	nop 
    2850:	91 d0 20 00 	ta  0
    2854:	01 00 00 00 	nop 
    2858:	01 00 00 00 	nop 
    285c:	01 00 00 00 	nop 
    2860:	91 d0 20 00 	ta  0
    2864:	01 00 00 00 	nop 
    2868:	01 00 00 00 	nop 
    286c:	01 00 00 00 	nop 
    2870:	91 d0 20 00 	ta  0
    2874:	01 00 00 00 	nop 
    2878:	01 00 00 00 	nop 
    287c:	01 00 00 00 	nop 
    2880:	91 d0 20 00 	ta  0
    2884:	01 00 00 00 	nop 
    2888:	01 00 00 00 	nop 
    288c:	01 00 00 00 	nop 
    2890:	91 d0 20 00 	ta  0
    2894:	01 00 00 00 	nop 
    2898:	01 00 00 00 	nop 
    289c:	01 00 00 00 	nop 
    28a0:	91 d0 20 00 	ta  0
    28a4:	01 00 00 00 	nop 
    28a8:	01 00 00 00 	nop 
    28ac:	01 00 00 00 	nop 
    28b0:	91 d0 20 00 	ta  0
    28b4:	01 00 00 00 	nop 
    28b8:	01 00 00 00 	nop 
    28bc:	01 00 00 00 	nop 
    28c0:	91 d0 20 00 	ta  0
    28c4:	01 00 00 00 	nop 
    28c8:	01 00 00 00 	nop 
    28cc:	01 00 00 00 	nop 
    28d0:	91 d0 20 00 	ta  0
    28d4:	01 00 00 00 	nop 
    28d8:	01 00 00 00 	nop 
    28dc:	01 00 00 00 	nop 
    28e0:	91 d0 20 00 	ta  0
    28e4:	01 00 00 00 	nop 
    28e8:	01 00 00 00 	nop 
    28ec:	01 00 00 00 	nop 
    28f0:	91 d0 20 00 	ta  0
    28f4:	01 00 00 00 	nop 
    28f8:	01 00 00 00 	nop 
    28fc:	01 00 00 00 	nop 
    2900:	91 d0 20 00 	ta  0
    2904:	01 00 00 00 	nop 
    2908:	01 00 00 00 	nop 
    290c:	01 00 00 00 	nop 
    2910:	91 d0 20 00 	ta  0
    2914:	01 00 00 00 	nop 
    2918:	01 00 00 00 	nop 
    291c:	01 00 00 00 	nop 
    2920:	91 d0 20 00 	ta  0
    2924:	01 00 00 00 	nop 
    2928:	01 00 00 00 	nop 
    292c:	01 00 00 00 	nop 
    2930:	91 d0 20 00 	ta  0
    2934:	01 00 00 00 	nop 
    2938:	01 00 00 00 	nop 
    293c:	01 00 00 00 	nop 
    2940:	91 d0 20 00 	ta  0
    2944:	01 00 00 00 	nop 
    2948:	01 00 00 00 	nop 
    294c:	01 00 00 00 	nop 
    2950:	91 d0 20 00 	ta  0
    2954:	01 00 00 00 	nop 
    2958:	01 00 00 00 	nop 
    295c:	01 00 00 00 	nop 
    2960:	91 d0 20 00 	ta  0
    2964:	01 00 00 00 	nop 
    2968:	01 00 00 00 	nop 
    296c:	01 00 00 00 	nop 
    2970:	91 d0 20 00 	ta  0
    2974:	01 00 00 00 	nop 
    2978:	01 00 00 00 	nop 
    297c:	01 00 00 00 	nop 
    2980:	91 d0 20 00 	ta  0
    2984:	01 00 00 00 	nop 
    2988:	01 00 00 00 	nop 
    298c:	01 00 00 00 	nop 
    2990:	91 d0 20 00 	ta  0
    2994:	01 00 00 00 	nop 
    2998:	01 00 00 00 	nop 
    299c:	01 00 00 00 	nop 
    29a0:	91 d0 20 00 	ta  0
    29a4:	01 00 00 00 	nop 
    29a8:	01 00 00 00 	nop 
    29ac:	01 00 00 00 	nop 
    29b0:	91 d0 20 00 	ta  0
    29b4:	01 00 00 00 	nop 
    29b8:	01 00 00 00 	nop 
    29bc:	01 00 00 00 	nop 
    29c0:	91 d0 20 00 	ta  0
    29c4:	01 00 00 00 	nop 
    29c8:	01 00 00 00 	nop 
    29cc:	01 00 00 00 	nop 
    29d0:	91 d0 20 00 	ta  0
    29d4:	01 00 00 00 	nop 
    29d8:	01 00 00 00 	nop 
    29dc:	01 00 00 00 	nop 
    29e0:	91 d0 20 00 	ta  0
    29e4:	01 00 00 00 	nop 
    29e8:	01 00 00 00 	nop 
    29ec:	01 00 00 00 	nop 
    29f0:	91 d0 20 00 	ta  0
    29f4:	01 00 00 00 	nop 
    29f8:	01 00 00 00 	nop 
    29fc:	01 00 00 00 	nop 
    2a00:	91 d0 20 00 	ta  0
    2a04:	01 00 00 00 	nop 
    2a08:	01 00 00 00 	nop 
    2a0c:	01 00 00 00 	nop 
    2a10:	91 d0 20 00 	ta  0
    2a14:	01 00 00 00 	nop 
    2a18:	01 00 00 00 	nop 
    2a1c:	01 00 00 00 	nop 
    2a20:	91 d0 20 00 	ta  0
    2a24:	01 00 00 00 	nop 
    2a28:	01 00 00 00 	nop 
    2a2c:	01 00 00 00 	nop 
    2a30:	91 d0 20 00 	ta  0
    2a34:	01 00 00 00 	nop 
    2a38:	01 00 00 00 	nop 
    2a3c:	01 00 00 00 	nop 
    2a40:	91 d0 20 00 	ta  0
    2a44:	01 00 00 00 	nop 
    2a48:	01 00 00 00 	nop 
    2a4c:	01 00 00 00 	nop 
    2a50:	91 d0 20 00 	ta  0
    2a54:	01 00 00 00 	nop 
    2a58:	01 00 00 00 	nop 
    2a5c:	01 00 00 00 	nop 
    2a60:	91 d0 20 00 	ta  0
    2a64:	01 00 00 00 	nop 
    2a68:	01 00 00 00 	nop 
    2a6c:	01 00 00 00 	nop 
    2a70:	91 d0 20 00 	ta  0
    2a74:	01 00 00 00 	nop 
    2a78:	01 00 00 00 	nop 
    2a7c:	01 00 00 00 	nop 
    2a80:	91 d0 20 00 	ta  0
    2a84:	01 00 00 00 	nop 
    2a88:	01 00 00 00 	nop 
    2a8c:	01 00 00 00 	nop 
    2a90:	91 d0 20 00 	ta  0
    2a94:	01 00 00 00 	nop 
    2a98:	01 00 00 00 	nop 
    2a9c:	01 00 00 00 	nop 
    2aa0:	91 d0 20 00 	ta  0
    2aa4:	01 00 00 00 	nop 
    2aa8:	01 00 00 00 	nop 
    2aac:	01 00 00 00 	nop 
    2ab0:	91 d0 20 00 	ta  0
    2ab4:	01 00 00 00 	nop 
    2ab8:	01 00 00 00 	nop 
    2abc:	01 00 00 00 	nop 
    2ac0:	91 d0 20 00 	ta  0
    2ac4:	01 00 00 00 	nop 
    2ac8:	01 00 00 00 	nop 
    2acc:	01 00 00 00 	nop 
    2ad0:	91 d0 20 00 	ta  0
    2ad4:	01 00 00 00 	nop 
    2ad8:	01 00 00 00 	nop 
    2adc:	01 00 00 00 	nop 
    2ae0:	91 d0 20 00 	ta  0
    2ae4:	01 00 00 00 	nop 
    2ae8:	01 00 00 00 	nop 
    2aec:	01 00 00 00 	nop 
    2af0:	91 d0 20 00 	ta  0
    2af4:	01 00 00 00 	nop 
    2af8:	01 00 00 00 	nop 
    2afc:	01 00 00 00 	nop 
    2b00:	91 d0 20 00 	ta  0
    2b04:	01 00 00 00 	nop 
    2b08:	01 00 00 00 	nop 
    2b0c:	01 00 00 00 	nop 
    2b10:	91 d0 20 00 	ta  0
    2b14:	01 00 00 00 	nop 
    2b18:	01 00 00 00 	nop 
    2b1c:	01 00 00 00 	nop 
    2b20:	91 d0 20 00 	ta  0
    2b24:	01 00 00 00 	nop 
    2b28:	01 00 00 00 	nop 
    2b2c:	01 00 00 00 	nop 
    2b30:	91 d0 20 00 	ta  0
    2b34:	01 00 00 00 	nop 
    2b38:	01 00 00 00 	nop 
    2b3c:	01 00 00 00 	nop 
    2b40:	91 d0 20 00 	ta  0
    2b44:	01 00 00 00 	nop 
    2b48:	01 00 00 00 	nop 
    2b4c:	01 00 00 00 	nop 
    2b50:	91 d0 20 00 	ta  0
    2b54:	01 00 00 00 	nop 
    2b58:	01 00 00 00 	nop 
    2b5c:	01 00 00 00 	nop 
    2b60:	91 d0 20 00 	ta  0
    2b64:	01 00 00 00 	nop 
    2b68:	01 00 00 00 	nop 
    2b6c:	01 00 00 00 	nop 
    2b70:	91 d0 20 00 	ta  0
    2b74:	01 00 00 00 	nop 
    2b78:	01 00 00 00 	nop 
    2b7c:	01 00 00 00 	nop 
    2b80:	91 d0 20 00 	ta  0
    2b84:	01 00 00 00 	nop 
    2b88:	01 00 00 00 	nop 
    2b8c:	01 00 00 00 	nop 
    2b90:	91 d0 20 00 	ta  0
    2b94:	01 00 00 00 	nop 
    2b98:	01 00 00 00 	nop 
    2b9c:	01 00 00 00 	nop 
    2ba0:	91 d0 20 00 	ta  0
    2ba4:	01 00 00 00 	nop 
    2ba8:	01 00 00 00 	nop 
    2bac:	01 00 00 00 	nop 
    2bb0:	91 d0 20 00 	ta  0
    2bb4:	01 00 00 00 	nop 
    2bb8:	01 00 00 00 	nop 
    2bbc:	01 00 00 00 	nop 
    2bc0:	91 d0 20 00 	ta  0
    2bc4:	01 00 00 00 	nop 
    2bc8:	01 00 00 00 	nop 
    2bcc:	01 00 00 00 	nop 
    2bd0:	91 d0 20 00 	ta  0
    2bd4:	01 00 00 00 	nop 
    2bd8:	01 00 00 00 	nop 
    2bdc:	01 00 00 00 	nop 
    2be0:	91 d0 20 00 	ta  0
    2be4:	01 00 00 00 	nop 
    2be8:	01 00 00 00 	nop 
    2bec:	01 00 00 00 	nop 
    2bf0:	91 d0 20 00 	ta  0
    2bf4:	01 00 00 00 	nop 
    2bf8:	01 00 00 00 	nop 
    2bfc:	01 00 00 00 	nop 
    2c00:	91 d0 20 00 	ta  0
    2c04:	01 00 00 00 	nop 
    2c08:	01 00 00 00 	nop 
    2c0c:	01 00 00 00 	nop 
    2c10:	91 d0 20 00 	ta  0
    2c14:	01 00 00 00 	nop 
    2c18:	01 00 00 00 	nop 
    2c1c:	01 00 00 00 	nop 
    2c20:	91 d0 20 00 	ta  0
    2c24:	01 00 00 00 	nop 
    2c28:	01 00 00 00 	nop 
    2c2c:	01 00 00 00 	nop 
    2c30:	91 d0 20 00 	ta  0
    2c34:	01 00 00 00 	nop 
    2c38:	01 00 00 00 	nop 
    2c3c:	01 00 00 00 	nop 
    2c40:	91 d0 20 00 	ta  0
    2c44:	01 00 00 00 	nop 
    2c48:	01 00 00 00 	nop 
    2c4c:	01 00 00 00 	nop 
    2c50:	91 d0 20 00 	ta  0
    2c54:	01 00 00 00 	nop 
    2c58:	01 00 00 00 	nop 
    2c5c:	01 00 00 00 	nop 
    2c60:	91 d0 20 00 	ta  0
    2c64:	01 00 00 00 	nop 
    2c68:	01 00 00 00 	nop 
    2c6c:	01 00 00 00 	nop 
    2c70:	91 d0 20 00 	ta  0
    2c74:	01 00 00 00 	nop 
    2c78:	01 00 00 00 	nop 
    2c7c:	01 00 00 00 	nop 
    2c80:	91 d0 20 00 	ta  0
    2c84:	01 00 00 00 	nop 
    2c88:	01 00 00 00 	nop 
    2c8c:	01 00 00 00 	nop 
    2c90:	91 d0 20 00 	ta  0
    2c94:	01 00 00 00 	nop 
    2c98:	01 00 00 00 	nop 
    2c9c:	01 00 00 00 	nop 
    2ca0:	91 d0 20 00 	ta  0
    2ca4:	01 00 00 00 	nop 
    2ca8:	01 00 00 00 	nop 
    2cac:	01 00 00 00 	nop 
    2cb0:	91 d0 20 00 	ta  0
    2cb4:	01 00 00 00 	nop 
    2cb8:	01 00 00 00 	nop 
    2cbc:	01 00 00 00 	nop 
    2cc0:	91 d0 20 00 	ta  0
    2cc4:	01 00 00 00 	nop 
    2cc8:	01 00 00 00 	nop 
    2ccc:	01 00 00 00 	nop 
    2cd0:	91 d0 20 00 	ta  0
    2cd4:	01 00 00 00 	nop 
    2cd8:	01 00 00 00 	nop 
    2cdc:	01 00 00 00 	nop 
    2ce0:	91 d0 20 00 	ta  0
    2ce4:	01 00 00 00 	nop 
    2ce8:	01 00 00 00 	nop 
    2cec:	01 00 00 00 	nop 
    2cf0:	91 d0 20 00 	ta  0
    2cf4:	01 00 00 00 	nop 
    2cf8:	01 00 00 00 	nop 
    2cfc:	01 00 00 00 	nop 
    2d00:	91 d0 20 00 	ta  0
    2d04:	01 00 00 00 	nop 
    2d08:	01 00 00 00 	nop 
    2d0c:	01 00 00 00 	nop 
    2d10:	91 d0 20 00 	ta  0
    2d14:	01 00 00 00 	nop 
    2d18:	01 00 00 00 	nop 
    2d1c:	01 00 00 00 	nop 
    2d20:	91 d0 20 00 	ta  0
    2d24:	01 00 00 00 	nop 
    2d28:	01 00 00 00 	nop 
    2d2c:	01 00 00 00 	nop 
    2d30:	91 d0 20 00 	ta  0
    2d34:	01 00 00 00 	nop 
    2d38:	01 00 00 00 	nop 
    2d3c:	01 00 00 00 	nop 
    2d40:	91 d0 20 00 	ta  0
    2d44:	01 00 00 00 	nop 
    2d48:	01 00 00 00 	nop 
    2d4c:	01 00 00 00 	nop 
    2d50:	91 d0 20 00 	ta  0
    2d54:	01 00 00 00 	nop 
    2d58:	01 00 00 00 	nop 
    2d5c:	01 00 00 00 	nop 
    2d60:	91 d0 20 00 	ta  0
    2d64:	01 00 00 00 	nop 
    2d68:	01 00 00 00 	nop 
    2d6c:	01 00 00 00 	nop 
    2d70:	91 d0 20 00 	ta  0
    2d74:	01 00 00 00 	nop 
    2d78:	01 00 00 00 	nop 
    2d7c:	01 00 00 00 	nop 
    2d80:	91 d0 20 00 	ta  0
    2d84:	01 00 00 00 	nop 
    2d88:	01 00 00 00 	nop 
    2d8c:	01 00 00 00 	nop 
    2d90:	91 d0 20 00 	ta  0
    2d94:	01 00 00 00 	nop 
    2d98:	01 00 00 00 	nop 
    2d9c:	01 00 00 00 	nop 
    2da0:	91 d0 20 00 	ta  0
    2da4:	01 00 00 00 	nop 
    2da8:	01 00 00 00 	nop 
    2dac:	01 00 00 00 	nop 
    2db0:	91 d0 20 00 	ta  0
    2db4:	01 00 00 00 	nop 
    2db8:	01 00 00 00 	nop 
    2dbc:	01 00 00 00 	nop 
    2dc0:	91 d0 20 00 	ta  0
    2dc4:	01 00 00 00 	nop 
    2dc8:	01 00 00 00 	nop 
    2dcc:	01 00 00 00 	nop 
    2dd0:	91 d0 20 00 	ta  0
    2dd4:	01 00 00 00 	nop 
    2dd8:	01 00 00 00 	nop 
    2ddc:	01 00 00 00 	nop 
    2de0:	91 d0 20 00 	ta  0
    2de4:	01 00 00 00 	nop 
    2de8:	01 00 00 00 	nop 
    2dec:	01 00 00 00 	nop 
    2df0:	91 d0 20 00 	ta  0
    2df4:	01 00 00 00 	nop 
    2df8:	01 00 00 00 	nop 
    2dfc:	01 00 00 00 	nop 
    2e00:	91 d0 20 00 	ta  0
    2e04:	01 00 00 00 	nop 
    2e08:	01 00 00 00 	nop 
    2e0c:	01 00 00 00 	nop 
    2e10:	91 d0 20 00 	ta  0
    2e14:	01 00 00 00 	nop 
    2e18:	01 00 00 00 	nop 
    2e1c:	01 00 00 00 	nop 
    2e20:	91 d0 20 00 	ta  0
    2e24:	01 00 00 00 	nop 
    2e28:	01 00 00 00 	nop 
    2e2c:	01 00 00 00 	nop 
    2e30:	91 d0 20 00 	ta  0
    2e34:	01 00 00 00 	nop 
    2e38:	01 00 00 00 	nop 
    2e3c:	01 00 00 00 	nop 
    2e40:	91 d0 20 00 	ta  0
    2e44:	01 00 00 00 	nop 
    2e48:	01 00 00 00 	nop 
    2e4c:	01 00 00 00 	nop 
    2e50:	91 d0 20 00 	ta  0
    2e54:	01 00 00 00 	nop 
    2e58:	01 00 00 00 	nop 
    2e5c:	01 00 00 00 	nop 
    2e60:	91 d0 20 00 	ta  0
    2e64:	01 00 00 00 	nop 
    2e68:	01 00 00 00 	nop 
    2e6c:	01 00 00 00 	nop 
    2e70:	91 d0 20 00 	ta  0
    2e74:	01 00 00 00 	nop 
    2e78:	01 00 00 00 	nop 
    2e7c:	01 00 00 00 	nop 
    2e80:	91 d0 20 00 	ta  0
    2e84:	01 00 00 00 	nop 
    2e88:	01 00 00 00 	nop 
    2e8c:	01 00 00 00 	nop 
    2e90:	91 d0 20 00 	ta  0
    2e94:	01 00 00 00 	nop 
    2e98:	01 00 00 00 	nop 
    2e9c:	01 00 00 00 	nop 
    2ea0:	91 d0 20 00 	ta  0
    2ea4:	01 00 00 00 	nop 
    2ea8:	01 00 00 00 	nop 
    2eac:	01 00 00 00 	nop 
    2eb0:	91 d0 20 00 	ta  0
    2eb4:	01 00 00 00 	nop 
    2eb8:	01 00 00 00 	nop 
    2ebc:	01 00 00 00 	nop 
    2ec0:	91 d0 20 00 	ta  0
    2ec4:	01 00 00 00 	nop 
    2ec8:	01 00 00 00 	nop 
    2ecc:	01 00 00 00 	nop 
    2ed0:	91 d0 20 00 	ta  0
    2ed4:	01 00 00 00 	nop 
    2ed8:	01 00 00 00 	nop 
    2edc:	01 00 00 00 	nop 
    2ee0:	91 d0 20 00 	ta  0
    2ee4:	01 00 00 00 	nop 
    2ee8:	01 00 00 00 	nop 
    2eec:	01 00 00 00 	nop 
    2ef0:	91 d0 20 00 	ta  0
    2ef4:	01 00 00 00 	nop 
    2ef8:	01 00 00 00 	nop 
    2efc:	01 00 00 00 	nop 
    2f00:	91 d0 20 00 	ta  0
    2f04:	01 00 00 00 	nop 
    2f08:	01 00 00 00 	nop 
    2f0c:	01 00 00 00 	nop 
    2f10:	91 d0 20 00 	ta  0
    2f14:	01 00 00 00 	nop 
    2f18:	01 00 00 00 	nop 
    2f1c:	01 00 00 00 	nop 
    2f20:	91 d0 20 00 	ta  0
    2f24:	01 00 00 00 	nop 
    2f28:	01 00 00 00 	nop 
    2f2c:	01 00 00 00 	nop 
    2f30:	91 d0 20 00 	ta  0
    2f34:	01 00 00 00 	nop 
    2f38:	01 00 00 00 	nop 
    2f3c:	01 00 00 00 	nop 
    2f40:	91 d0 20 00 	ta  0
    2f44:	01 00 00 00 	nop 
    2f48:	01 00 00 00 	nop 
    2f4c:	01 00 00 00 	nop 
    2f50:	91 d0 20 00 	ta  0
    2f54:	01 00 00 00 	nop 
    2f58:	01 00 00 00 	nop 
    2f5c:	01 00 00 00 	nop 
    2f60:	91 d0 20 00 	ta  0
    2f64:	01 00 00 00 	nop 
    2f68:	01 00 00 00 	nop 
    2f6c:	01 00 00 00 	nop 
    2f70:	91 d0 20 00 	ta  0
    2f74:	01 00 00 00 	nop 
    2f78:	01 00 00 00 	nop 
    2f7c:	01 00 00 00 	nop 
    2f80:	91 d0 20 00 	ta  0
    2f84:	01 00 00 00 	nop 
    2f88:	01 00 00 00 	nop 
    2f8c:	01 00 00 00 	nop 
    2f90:	91 d0 20 00 	ta  0
    2f94:	01 00 00 00 	nop 
    2f98:	01 00 00 00 	nop 
    2f9c:	01 00 00 00 	nop 
    2fa0:	91 d0 20 00 	ta  0
    2fa4:	01 00 00 00 	nop 
    2fa8:	01 00 00 00 	nop 
    2fac:	01 00 00 00 	nop 
    2fb0:	91 d0 20 00 	ta  0
    2fb4:	01 00 00 00 	nop 
    2fb8:	01 00 00 00 	nop 
    2fbc:	01 00 00 00 	nop 
    2fc0:	91 d0 20 00 	ta  0
    2fc4:	01 00 00 00 	nop 
    2fc8:	01 00 00 00 	nop 
    2fcc:	01 00 00 00 	nop 
    2fd0:	91 d0 20 00 	ta  0
    2fd4:	01 00 00 00 	nop 
    2fd8:	01 00 00 00 	nop 
    2fdc:	01 00 00 00 	nop 
    2fe0:	91 d0 20 00 	ta  0
    2fe4:	01 00 00 00 	nop 
    2fe8:	01 00 00 00 	nop 
    2fec:	01 00 00 00 	nop 
    2ff0:	91 d0 20 00 	ta  0
    2ff4:	01 00 00 00 	nop 
    2ff8:	01 00 00 00 	nop 
    2ffc:	01 00 00 00 	nop 
    3000:	91 d0 20 00 	ta  0
    3004:	01 00 00 00 	nop 
    3008:	01 00 00 00 	nop 
    300c:	01 00 00 00 	nop 
    3010:	91 d0 20 00 	ta  0
    3014:	01 00 00 00 	nop 
    3018:	01 00 00 00 	nop 
    301c:	01 00 00 00 	nop 
    3020:	91 d0 20 00 	ta  0
    3024:	01 00 00 00 	nop 
    3028:	01 00 00 00 	nop 
    302c:	01 00 00 00 	nop 
    3030:	91 d0 20 00 	ta  0
    3034:	01 00 00 00 	nop 
    3038:	01 00 00 00 	nop 
    303c:	01 00 00 00 	nop 
    3040:	91 d0 20 00 	ta  0
    3044:	01 00 00 00 	nop 
    3048:	01 00 00 00 	nop 
    304c:	01 00 00 00 	nop 
    3050:	91 d0 20 00 	ta  0
    3054:	01 00 00 00 	nop 
    3058:	01 00 00 00 	nop 
    305c:	01 00 00 00 	nop 
    3060:	91 d0 20 00 	ta  0
    3064:	01 00 00 00 	nop 
    3068:	01 00 00 00 	nop 
    306c:	01 00 00 00 	nop 
    3070:	01 00 00 00 	nop 
    3074:	01 00 00 00 	nop 
    3078:	01 00 00 00 	nop 
    307c:	01 00 00 00 	nop 
    3080:	9d e3 bf a0 	save  %sp, -96, %sp
    3084:	90 10 20 01 	mov  1, %o0
    3088:	92 10 20 00 	clr  %o1
    308c:	94 10 20 00 	clr  %o2
    3090:	40 00 0d 4e 	call  65c8 <DATA_SEGMENT_TO_COPY+0x6548>
    3094:	01 00 00 00 	nop 
    3098:	81 e8 00 00 	restore 
    309c:	81 c3 e0 08 	retl 
    30a0:	01 00 00 00 	nop 
    30a4:	9d e3 bf 90 	save  %sp, -112, %sp
    30a8:	40 00 0c 7f 	call  62a4 <DATA_SEGMENT_TO_COPY+0x6224>
    30ac:	01 00 00 00 	nop 
    30b0:	d0 27 bf fc 	st  %o0, [ %fp + -4 ]
    30b4:	40 00 0c 84 	call  62c4 <DATA_SEGMENT_TO_COPY+0x6244>
    30b8:	01 00 00 00 	nop 
    30bc:	d0 27 bf f8 	st  %o0, [ %fp + -8 ]
    30c0:	c2 07 bf fc 	ld  [ %fp + -4 ], %g1
    30c4:	85 28 60 18 	sll  %g1, 0x18, %g2
    30c8:	c2 07 bf f8 	ld  [ %fp + -8 ], %g1
    30cc:	83 30 60 08 	srl  %g1, 8, %g1
    30d0:	82 10 80 01 	or  %g2, %g1, %g1
    30d4:	c2 27 bf f4 	st  %g1, [ %fp + -12 ]
    30d8:	c2 07 bf f4 	ld  [ %fp + -12 ], %g1
    30dc:	b0 10 00 01 	mov  %g1, %i0
    30e0:	81 e8 00 00 	restore 
    30e4:	81 c3 e0 08 	retl 
    30e8:	01 00 00 00 	nop 
    30ec:	40 00 51 44 	call  175fc <DATA_SEGMENT_TO_COPY+0x1757c>
    30f0:	40 00 52 a0 	call  17b70 <DATA_SEGMENT_TO_COPY+0x17af0>
    30f4:	40 00 52 a0 	call  17b74 <DATA_SEGMENT_TO_COPY+0x17af4>
    30f8:	40 00 52 a0 	call  17b78 <DATA_SEGMENT_TO_COPY+0x17af8>
    30fc:	40 00 52 a0 	call  17b7c <DATA_SEGMENT_TO_COPY+0x17afc>
    3100:	40 00 52 a0 	call  17b80 <DATA_SEGMENT_TO_COPY+0x17b00>
    3104:	40 00 52 a0 	call  17b84 <DATA_SEGMENT_TO_COPY+0x17b04>
    3108:	40 00 52 a0 	call  17b88 <DATA_SEGMENT_TO_COPY+0x17b08>
    310c:	40 00 52 a0 	call  17b8c <DATA_SEGMENT_TO_COPY+0x17b0c>
    3110:	40 00 52 a0 	call  17b90 <DATA_SEGMENT_TO_COPY+0x17b10>
    3114:	40 00 52 a0 	call  17b94 <DATA_SEGMENT_TO_COPY+0x17b14>
    3118:	40 00 52 a0 	call  17b98 <DATA_SEGMENT_TO_COPY+0x17b18>
    311c:	40 00 52 a0 	call  17b9c <DATA_SEGMENT_TO_COPY+0x17b1c>
    3120:	40 00 52 a0 	call  17ba0 <DATA_SEGMENT_TO_COPY+0x17b20>
    3124:	40 00 52 a0 	call  17ba4 <DATA_SEGMENT_TO_COPY+0x17b24>
    3128:	40 00 52 a0 	call  17ba8 <DATA_SEGMENT_TO_COPY+0x17b28>
    312c:	40 00 52 a0 	call  17bac <DATA_SEGMENT_TO_COPY+0x17b2c>
    3130:	40 00 52 a0 	call  17bb0 <DATA_SEGMENT_TO_COPY+0x17b30>
    3134:	40 00 52 a0 	call  17bb4 <DATA_SEGMENT_TO_COPY+0x17b34>
    3138:	40 00 52 a0 	call  17bb8 <DATA_SEGMENT_TO_COPY+0x17b38>
    313c:	40 00 52 a0 	call  17bbc <DATA_SEGMENT_TO_COPY+0x17b3c>
    3140:	40 00 52 a0 	call  17bc0 <DATA_SEGMENT_TO_COPY+0x17b40>
    3144:	40 00 52 a0 	call  17bc4 <DATA_SEGMENT_TO_COPY+0x17b44>
    3148:	40 00 51 e8 	call  178e8 <DATA_SEGMENT_TO_COPY+0x17868>
    314c:	40 00 52 a0 	call  17bcc <DATA_SEGMENT_TO_COPY+0x17b4c>
    3150:	40 00 52 a0 	call  17bd0 <DATA_SEGMENT_TO_COPY+0x17b50>
    3154:	40 00 52 a0 	call  17bd4 <DATA_SEGMENT_TO_COPY+0x17b54>
    3158:	40 00 52 a0 	call  17bd8 <DATA_SEGMENT_TO_COPY+0x17b58>
    315c:	40 00 52 a0 	call  17bdc <DATA_SEGMENT_TO_COPY+0x17b5c>
    3160:	40 00 52 a0 	call  17be0 <DATA_SEGMENT_TO_COPY+0x17b60>
    3164:	40 00 52 a0 	call  17be4 <DATA_SEGMENT_TO_COPY+0x17b64>
    3168:	40 00 52 a0 	call  17be8 <DATA_SEGMENT_TO_COPY+0x17b68>
    316c:	40 00 51 50 	call  176ac <DATA_SEGMENT_TO_COPY+0x1762c>
    3170:	40 00 52 a0 	call  17bf0 <DATA_SEGMENT_TO_COPY+0x17b70>
    3174:	40 00 4e b0 	call  16c34 <DATA_SEGMENT_TO_COPY+0x16bb4>
    3178:	40 00 52 04 	call  17988 <DATA_SEGMENT_TO_COPY+0x17908>
    317c:	40 00 52 a0 	call  17bfc <DATA_SEGMENT_TO_COPY+0x17b7c>
    3180:	40 00 52 18 	call  179e0 <DATA_SEGMENT_TO_COPY+0x17960>
    3184:	40 00 52 a0 	call  17c04 <DATA_SEGMENT_TO_COPY+0x17b84>
    3188:	40 00 52 a0 	call  17c08 <DATA_SEGMENT_TO_COPY+0x17b88>
    318c:	40 00 52 04 	call  1799c <DATA_SEGMENT_TO_COPY+0x1791c>
    3190:	40 00 52 a0 	call  17c10 <DATA_SEGMENT_TO_COPY+0x17b90>
    3194:	40 00 52 a0 	call  17c14 <DATA_SEGMENT_TO_COPY+0x17b94>
    3198:	40 00 52 a0 	call  17c18 <DATA_SEGMENT_TO_COPY+0x17b98>
    319c:	40 00 52 a0 	call  17c1c <DATA_SEGMENT_TO_COPY+0x17b9c>
    31a0:	40 00 52 a0 	call  17c20 <DATA_SEGMENT_TO_COPY+0x17ba0>
    31a4:	40 00 51 d8 	call  17904 <DATA_SEGMENT_TO_COPY+0x17884>
    31a8:	40 00 50 e0 	call  17528 <DATA_SEGMENT_TO_COPY+0x174a8>
    31ac:	40 00 52 a0 	call  17c2c <DATA_SEGMENT_TO_COPY+0x17bac>
    31b0:	40 00 52 a0 	call  17c30 <DATA_SEGMENT_TO_COPY+0x17bb0>
    31b4:	40 00 4f 70 	call  16f74 <DATA_SEGMENT_TO_COPY+0x16ef4>
    31b8:	40 00 52 a0 	call  17c38 <DATA_SEGMENT_TO_COPY+0x17bb8>
    31bc:	40 00 53 28 	call  17e5c <DATA_SEGMENT_TO_COPY+0x17ddc>
    31c0:	40 00 52 a0 	call  17c40 <DATA_SEGMENT_TO_COPY+0x17bc0>
    31c4:	40 00 52 a0 	call  17c44 <DATA_SEGMENT_TO_COPY+0x17bc4>
    31c8:	40 00 51 f4 	call  17998 <DATA_SEGMENT_TO_COPY+0x17918>
    31cc:	40 00 4c 38 	call  162ac <DATA_SEGMENT_TO_COPY+0x1622c>
    31d0:	40 00 4c 74 	call  163a0 <DATA_SEGMENT_TO_COPY+0x16320>
    31d4:	40 00 4c 74 	call  163a4 <DATA_SEGMENT_TO_COPY+0x16324>
    31d8:	40 00 4c 4c 	call  16308 <DATA_SEGMENT_TO_COPY+0x16288>
    31dc:	40 00 4c 74 	call  163ac <DATA_SEGMENT_TO_COPY+0x1632c>
    31e0:	40 00 4c 74 	call  163b0 <DATA_SEGMENT_TO_COPY+0x16330>
    31e4:	40 00 4c 74 	call  163b4 <DATA_SEGMENT_TO_COPY+0x16334>
    31e8:	40 00 4c 74 	call  163b8 <DATA_SEGMENT_TO_COPY+0x16338>
    31ec:	40 00 4c 74 	call  163bc <DATA_SEGMENT_TO_COPY+0x1633c>
    31f0:	40 00 4c 74 	call  163c0 <DATA_SEGMENT_TO_COPY+0x16340>
    31f4:	40 00 4c 74 	call  163c4 <DATA_SEGMENT_TO_COPY+0x16344>
    31f8:	40 00 4c 24 	call  16288 <DATA_SEGMENT_TO_COPY+0x16208>
    31fc:	40 00 4c 74 	call  163cc <DATA_SEGMENT_TO_COPY+0x1634c>
    3200:	40 00 4c 10 	call  16240 <DATA_SEGMENT_TO_COPY+0x161c0>
    3204:	40 00 4c 74 	call  163d4 <DATA_SEGMENT_TO_COPY+0x16354>
    3208:	40 00 4c 74 	call  163d8 <DATA_SEGMENT_TO_COPY+0x16358>
    320c:	40 00 4c 60 	call  1638c <DATA_SEGMENT_TO_COPY+0x1630c>
    3210:	9d e3 bf 98 	save  %sp, -104, %sp
    3214:	f0 27 a0 44 	st  %i0, [ %fp + 0x44 ]
    3218:	f2 27 a0 48 	st  %i1, [ %fp + 0x48 ]
    321c:	c2 07 a0 44 	ld  [ %fp + 0x44 ], %g1
    3220:	c2 27 bf fc 	st  %g1, [ %fp + -4 ]
    3224:	10 80 00 05 	b  3238 <DATA_SEGMENT_TO_COPY+0x31b8>
    3228:	01 00 00 00 	nop 
    322c:	c2 07 bf fc 	ld  [ %fp + -4 ], %g1
    3230:	82 00 60 01 	inc  %g1
    3234:	c2 27 bf fc 	st  %g1, [ %fp + -4 ]
    3238:	c2 07 bf fc 	ld  [ %fp + -4 ], %g1
    323c:	c2 08 40 00 	ldub  [ %g1 ], %g1
    3240:	83 28 60 18 	sll  %g1, 0x18, %g1
    3244:	83 38 60 18 	sra  %g1, 0x18, %g1
    3248:	80 a0 60 00 	cmp  %g1, 0
    324c:	02 80 00 0d 	be  3280 <DATA_SEGMENT_TO_COPY+0x3200>
    3250:	01 00 00 00 	nop 
    3254:	c2 07 a0 48 	ld  [ %fp + 0x48 ], %g1
    3258:	82 18 60 00 	xor  %g1, 0, %g1
    325c:	80 a0 00 01 	cmp  %g0, %g1
    3260:	82 40 20 00 	addx  %g0, 0, %g1
    3264:	c4 07 a0 48 	ld  [ %fp + 0x48 ], %g2
    3268:	84 00 bf ff 	add  %g2, -1, %g2
    326c:	c4 27 a0 48 	st  %g2, [ %fp + 0x48 ]
    3270:	82 08 60 ff 	and  %g1, 0xff, %g1
    3274:	80 a0 60 00 	cmp  %g1, 0
    3278:	12 bf ff ed 	bne  322c <DATA_SEGMENT_TO_COPY+0x31ac>
    327c:	01 00 00 00 	nop 
    3280:	c4 07 bf fc 	ld  [ %fp + -4 ], %g2
    3284:	c2 07 a0 44 	ld  [ %fp + 0x44 ], %g1
    3288:	82 20 80 01 	sub  %g2, %g1, %g1
    328c:	b0 10 00 01 	mov  %g1, %i0
    3290:	81 e8 00 00 	restore 
    3294:	81 c3 e0 08 	retl 
    3298:	01 00 00 00 	nop 
    329c:	9d e3 bf 98 	save  %sp, -104, %sp
    32a0:	f0 27 a0 44 	st  %i0, [ %fp + 0x44 ]
    32a4:	c0 27 bf fc 	clr  [ %fp + -4 ]
    32a8:	10 80 00 11 	b  32ec <DATA_SEGMENT_TO_COPY+0x326c>
    32ac:	01 00 00 00 	nop 
    32b0:	c2 07 bf fc 	ld  [ %fp + -4 ], %g1
    32b4:	82 00 40 01 	add  %g1, %g1, %g1
    32b8:	85 28 60 02 	sll  %g1, 2, %g2
    32bc:	86 00 40 02 	add  %g1, %g2, %g3
    32c0:	c2 07 a0 44 	ld  [ %fp + 0x44 ], %g1
    32c4:	c2 00 40 00 	ld  [ %g1 ], %g1
    32c8:	c4 08 40 00 	ldub  [ %g1 ], %g2
    32cc:	85 28 a0 18 	sll  %g2, 0x18, %g2
    32d0:	85 38 a0 18 	sra  %g2, 0x18, %g2
    32d4:	84 00 c0 02 	add  %g3, %g2, %g2
    32d8:	84 00 bf d0 	add  %g2, -48, %g2
    32dc:	c4 27 bf fc 	st  %g2, [ %fp + -4 ]
    32e0:	84 00 60 01 	add  %g1, 1, %g2
    32e4:	c2 07 a0 44 	ld  [ %fp + 0x44 ], %g1
    32e8:	c4 20 40 00 	st  %g2, [ %g1 ]
    32ec:	c2 07 a0 44 	ld  [ %fp + 0x44 ], %g1
    32f0:	c2 00 40 00 	ld  [ %g1 ], %g1
    32f4:	c2 08 40 00 	ldub  [ %g1 ], %g1
    32f8:	83 28 60 18 	sll  %g1, 0x18, %g1
    32fc:	83 38 60 18 	sra  %g1, 0x18, %g1
    3300:	80 a0 60 2f 	cmp  %g1, 0x2f
    3304:	04 80 00 0a 	ble  332c <DATA_SEGMENT_TO_COPY+0x32ac>
    3308:	01 00 00 00 	nop 
    330c:	c2 07 a0 44 	ld  [ %fp + 0x44 ], %g1
    3310:	c2 00 40 00 	ld  [ %g1 ], %g1
    3314:	c2 08 40 00 	ldub  [ %g1 ], %g1
    3318:	83 28 60 18 	sll  %g1, 0x18, %g1
    331c:	83 38 60 18 	sra  %g1, 0x18, %g1
    3320:	80 a0 60 39 	cmp  %g1, 0x39
    3324:	04 bf ff e3 	ble  32b0 <DATA_SEGMENT_TO_COPY+0x3230>
    3328:	01 00 00 00 	nop 
    332c:	c2 07 bf fc 	ld  [ %fp + -4 ], %g1
    3330:	b0 10 00 01 	mov  %g1, %i0
    3334:	81 e8 00 00 	restore 
    3338:	81 c3 e0 08 	retl 
    333c:	01 00 00 00 	nop 
    3340:	9d e3 bf 50 	save  %sp, -176, %sp
    3344:	f0 27 a0 44 	st  %i0, [ %fp + 0x44 ]
    3348:	f2 27 a0 48 	st  %i1, [ %fp + 0x48 ]
    334c:	f4 27 a0 4c 	st  %i2, [ %fp + 0x4c ]
    3350:	f6 27 a0 50 	st  %i3, [ %fp + 0x50 ]
    3354:	f8 27 a0 54 	st  %i4, [ %fp + 0x54 ]
    3358:	fa 27 a0 58 	st  %i5, [ %fp + 0x58 ]
    335c:	03 10 01 00 	sethi  %hi(0x40040000), %g1
    3360:	82 10 60 d0 	or  %g1, 0xd0, %g1	! 400400d0 <DATA_SEGMENT_TO_COPY+0x40040050>
    3364:	c2 00 40 00 	ld  [ %g1 ], %g1
    3368:	c2 27 bf f8 	st  %g1, [ %fp + -8 ]
    336c:	c2 07 a0 58 	ld  [ %fp + 0x58 ], %g1
    3370:	82 08 60 40 	and  %g1, 0x40, %g1
    3374:	80 a0 60 00 	cmp  %g1, 0
    3378:	02 80 00 06 	be  3390 <DATA_SEGMENT_TO_COPY+0x3310>
    337c:	01 00 00 00 	nop 
    3380:	03 10 01 00 	sethi  %hi(0x40040000), %g1
    3384:	82 10 60 d4 	or  %g1, 0xd4, %g1	! 400400d4 <DATA_SEGMENT_TO_COPY+0x40040054>
    3388:	c2 00 40 00 	ld  [ %g1 ], %g1
    338c:	c2 27 bf f8 	st  %g1, [ %fp + -8 ]
    3390:	c2 07 a0 58 	ld  [ %fp + 0x58 ], %g1
    3394:	82 08 60 10 	and  %g1, 0x10, %g1
    3398:	80 a0 60 00 	cmp  %g1, 0
    339c:	02 80 00 05 	be  33b0 <DATA_SEGMENT_TO_COPY+0x3330>
    33a0:	01 00 00 00 	nop 
    33a4:	c2 07 a0 58 	ld  [ %fp + 0x58 ], %g1
    33a8:	82 08 7f fe 	and  %g1, -2, %g1
    33ac:	c2 27 a0 58 	st  %g1, [ %fp + 0x58 ]
    33b0:	c2 07 a0 4c 	ld  [ %fp + 0x4c ], %g1
    33b4:	80 a0 60 01 	cmp  %g1, 1
    33b8:	04 80 00 06 	ble  33d0 <DATA_SEGMENT_TO_COPY+0x3350>
    33bc:	01 00 00 00 	nop 
    33c0:	c2 07 a0 4c 	ld  [ %fp + 0x4c ], %g1
    33c4:	80 a0 60 24 	cmp  %g1, 0x24
    33c8:	04 80 00 05 	ble  33dc <DATA_SEGMENT_TO_COPY+0x335c>
    33cc:	01 00 00 00 	nop 
    33d0:	82 10 20 00 	clr  %g1	! 0 <_start>
    33d4:	10 80 01 28 	b  3874 <DATA_SEGMENT_TO_COPY+0x37f4>
    33d8:	01 00 00 00 	nop 
    33dc:	c2 07 a0 58 	ld  [ %fp + 0x58 ], %g1
    33e0:	82 08 60 01 	and  %g1, 1, %g1
    33e4:	80 a0 60 00 	cmp  %g1, 0
    33e8:	02 80 00 05 	be  33fc <DATA_SEGMENT_TO_COPY+0x337c>
    33ec:	01 00 00 00 	nop 
    33f0:	82 10 20 30 	mov  0x30, %g1	! 30 <_copy_segment_u64>
    33f4:	10 80 00 03 	b  3400 <DATA_SEGMENT_TO_COPY+0x3380>
    33f8:	01 00 00 00 	nop 
    33fc:	82 10 20 20 	mov  0x20, %g1	! 20 <_start+0x20>
    3400:	c2 2f bf f3 	stb  %g1, [ %fp + -13 ]
    3404:	c0 2f bf ff 	clrb  [ %fp + -1 ]
    3408:	c2 07 a0 58 	ld  [ %fp + 0x58 ], %g1
    340c:	82 08 60 02 	and  %g1, 2, %g1
    3410:	80 a0 60 00 	cmp  %g1, 0
    3414:	02 80 00 26 	be  34ac <DATA_SEGMENT_TO_COPY+0x342c>
    3418:	01 00 00 00 	nop 
    341c:	c2 07 a0 48 	ld  [ %fp + 0x48 ], %g1
    3420:	80 a0 60 00 	cmp  %g1, 0
    3424:	16 80 00 0c 	bge  3454 <DATA_SEGMENT_TO_COPY+0x33d4>
    3428:	01 00 00 00 	nop 
    342c:	82 10 20 2d 	mov  0x2d, %g1	! 2d <_start+0x2d>
    3430:	c2 2f bf ff 	stb  %g1, [ %fp + -1 ]
    3434:	c2 07 a0 48 	ld  [ %fp + 0x48 ], %g1
    3438:	82 20 00 01 	neg  %g1
    343c:	c2 27 a0 48 	st  %g1, [ %fp + 0x48 ]
    3440:	c2 07 a0 50 	ld  [ %fp + 0x50 ], %g1
    3444:	82 00 7f ff 	add  %g1, -1, %g1
    3448:	c2 27 a0 50 	st  %g1, [ %fp + 0x50 ]
    344c:	10 80 00 18 	b  34ac <DATA_SEGMENT_TO_COPY+0x342c>
    3450:	01 00 00 00 	nop 
    3454:	c2 07 a0 58 	ld  [ %fp + 0x58 ], %g1
    3458:	82 08 60 04 	and  %g1, 4, %g1
    345c:	80 a0 60 00 	cmp  %g1, 0
    3460:	02 80 00 09 	be  3484 <DATA_SEGMENT_TO_COPY+0x3404>
    3464:	01 00 00 00 	nop 
    3468:	82 10 20 2b 	mov  0x2b, %g1	! 2b <_start+0x2b>
    346c:	c2 2f bf ff 	stb  %g1, [ %fp + -1 ]
    3470:	c2 07 a0 50 	ld  [ %fp + 0x50 ], %g1
    3474:	82 00 7f ff 	add  %g1, -1, %g1
    3478:	c2 27 a0 50 	st  %g1, [ %fp + 0x50 ]
    347c:	10 80 00 0c 	b  34ac <DATA_SEGMENT_TO_COPY+0x342c>
    3480:	01 00 00 00 	nop 
    3484:	c2 07 a0 58 	ld  [ %fp + 0x58 ], %g1
    3488:	82 08 60 08 	and  %g1, 8, %g1
    348c:	80 a0 60 00 	cmp  %g1, 0
    3490:	02 80 00 07 	be  34ac <DATA_SEGMENT_TO_COPY+0x342c>
    3494:	01 00 00 00 	nop 
    3498:	82 10 20 20 	mov  0x20, %g1	! 20 <_start+0x20>
    349c:	c2 2f bf ff 	stb  %g1, [ %fp + -1 ]
    34a0:	c2 07 a0 50 	ld  [ %fp + 0x50 ], %g1
    34a4:	82 00 7f ff 	add  %g1, -1, %g1
    34a8:	c2 27 a0 50 	st  %g1, [ %fp + 0x50 ]
    34ac:	c2 07 a0 58 	ld  [ %fp + 0x58 ], %g1
    34b0:	82 08 60 20 	and  %g1, 0x20, %g1
    34b4:	80 a0 60 00 	cmp  %g1, 0
    34b8:	02 80 00 12 	be  3500 <DATA_SEGMENT_TO_COPY+0x3480>
    34bc:	01 00 00 00 	nop 
    34c0:	c2 07 a0 4c 	ld  [ %fp + 0x4c ], %g1
    34c4:	80 a0 60 10 	cmp  %g1, 0x10
    34c8:	12 80 00 07 	bne  34e4 <DATA_SEGMENT_TO_COPY+0x3464>
    34cc:	01 00 00 00 	nop 
    34d0:	c2 07 a0 50 	ld  [ %fp + 0x50 ], %g1
    34d4:	82 00 7f fe 	add  %g1, -2, %g1
    34d8:	c2 27 a0 50 	st  %g1, [ %fp + 0x50 ]
    34dc:	10 80 00 09 	b  3500 <DATA_SEGMENT_TO_COPY+0x3480>
    34e0:	01 00 00 00 	nop 
    34e4:	c2 07 a0 4c 	ld  [ %fp + 0x4c ], %g1
    34e8:	80 a0 60 08 	cmp  %g1, 8
    34ec:	12 80 00 05 	bne  3500 <DATA_SEGMENT_TO_COPY+0x3480>
    34f0:	01 00 00 00 	nop 
    34f4:	c2 07 a0 50 	ld  [ %fp + 0x50 ], %g1
    34f8:	82 00 7f ff 	add  %g1, -1, %g1
    34fc:	c2 27 a0 50 	st  %g1, [ %fp + 0x50 ]
    3500:	c0 27 bf f4 	clr  [ %fp + -12 ]
    3504:	c2 07 a0 48 	ld  [ %fp + 0x48 ], %g1
    3508:	80 a0 60 00 	cmp  %g1, 0
    350c:	12 80 00 25 	bne  35a0 <DATA_SEGMENT_TO_COPY+0x3520>
    3510:	01 00 00 00 	nop 
    3514:	c2 07 bf f4 	ld  [ %fp + -12 ], %g1
    3518:	82 07 80 01 	add  %fp, %g1, %g1
    351c:	84 10 20 30 	mov  0x30, %g2
    3520:	c4 28 7f b0 	stb  %g2, [ %g1 + -80 ]
    3524:	c2 07 bf f4 	ld  [ %fp + -12 ], %g1
    3528:	82 00 60 01 	inc  %g1
    352c:	c2 27 bf f4 	st  %g1, [ %fp + -12 ]
    3530:	10 80 00 20 	b  35b0 <DATA_SEGMENT_TO_COPY+0x3530>
    3534:	01 00 00 00 	nop 
    3538:	c2 07 a0 48 	ld  [ %fp + 0x48 ], %g1
    353c:	c4 07 a0 4c 	ld  [ %fp + 0x4c ], %g2
    3540:	81 80 20 00 	mov  %g0, %y
    3544:	01 00 00 00 	nop 
    3548:	01 00 00 00 	nop 
    354c:	01 00 00 00 	nop 
    3550:	86 70 40 02 	udiv  %g1, %g2, %g3
    3554:	84 58 c0 02 	smul  %g3, %g2, %g2
    3558:	82 20 40 02 	sub  %g1, %g2, %g1
    355c:	c4 07 bf f8 	ld  [ %fp + -8 ], %g2
    3560:	82 00 80 01 	add  %g2, %g1, %g1
    3564:	c4 08 40 00 	ldub  [ %g1 ], %g2
    3568:	c2 07 bf f4 	ld  [ %fp + -12 ], %g1
    356c:	82 07 80 01 	add  %fp, %g1, %g1
    3570:	c4 28 7f b0 	stb  %g2, [ %g1 + -80 ]
    3574:	c2 07 bf f4 	ld  [ %fp + -12 ], %g1
    3578:	82 00 60 01 	inc  %g1
    357c:	c2 27 bf f4 	st  %g1, [ %fp + -12 ]
    3580:	c6 07 a0 48 	ld  [ %fp + 0x48 ], %g3
    3584:	c4 07 a0 4c 	ld  [ %fp + 0x4c ], %g2
    3588:	81 80 20 00 	mov  %g0, %y
    358c:	01 00 00 00 	nop 
    3590:	01 00 00 00 	nop 
    3594:	01 00 00 00 	nop 
    3598:	82 70 c0 02 	udiv  %g3, %g2, %g1
    359c:	c2 27 a0 48 	st  %g1, [ %fp + 0x48 ]
    35a0:	c2 07 a0 48 	ld  [ %fp + 0x48 ], %g1
    35a4:	80 a0 60 00 	cmp  %g1, 0
    35a8:	12 bf ff e4 	bne  3538 <DATA_SEGMENT_TO_COPY+0x34b8>
    35ac:	01 00 00 00 	nop 
    35b0:	c4 07 bf f4 	ld  [ %fp + -12 ], %g2
    35b4:	c2 07 a0 54 	ld  [ %fp + 0x54 ], %g1
    35b8:	80 a0 80 01 	cmp  %g2, %g1
    35bc:	04 80 00 04 	ble  35cc <DATA_SEGMENT_TO_COPY+0x354c>
    35c0:	01 00 00 00 	nop 
    35c4:	c2 07 bf f4 	ld  [ %fp + -12 ], %g1
    35c8:	c2 27 a0 54 	st  %g1, [ %fp + 0x54 ]
    35cc:	c4 07 a0 50 	ld  [ %fp + 0x50 ], %g2
    35d0:	c2 07 a0 54 	ld  [ %fp + 0x54 ], %g1
    35d4:	82 20 80 01 	sub  %g2, %g1, %g1
    35d8:	c2 27 a0 50 	st  %g1, [ %fp + 0x50 ]
    35dc:	c2 07 a0 58 	ld  [ %fp + 0x58 ], %g1
    35e0:	82 08 60 11 	and  %g1, 0x11, %g1
    35e4:	80 a0 60 00 	cmp  %g1, 0
    35e8:	12 80 00 16 	bne  3640 <DATA_SEGMENT_TO_COPY+0x35c0>
    35ec:	01 00 00 00 	nop 
    35f0:	10 80 00 08 	b  3610 <DATA_SEGMENT_TO_COPY+0x3590>
    35f4:	01 00 00 00 	nop 
    35f8:	c2 07 a0 44 	ld  [ %fp + 0x44 ], %g1
    35fc:	84 10 20 20 	mov  0x20, %g2
    3600:	c4 28 40 00 	stb  %g2, [ %g1 ]
    3604:	c2 07 a0 44 	ld  [ %fp + 0x44 ], %g1
    3608:	82 00 60 01 	inc  %g1
    360c:	c2 27 a0 44 	st  %g1, [ %fp + 0x44 ]
    3610:	c2 07 a0 50 	ld  [ %fp + 0x50 ], %g1
    3614:	85 38 60 1f 	sra  %g1, 0x1f, %g2
    3618:	c2 07 a0 50 	ld  [ %fp + 0x50 ], %g1
    361c:	82 20 80 01 	sub  %g2, %g1, %g1
    3620:	83 30 60 1f 	srl  %g1, 0x1f, %g1
    3624:	c4 07 a0 50 	ld  [ %fp + 0x50 ], %g2
    3628:	84 00 bf ff 	add  %g2, -1, %g2
    362c:	c4 27 a0 50 	st  %g2, [ %fp + 0x50 ]
    3630:	82 08 60 ff 	and  %g1, 0xff, %g1
    3634:	80 a0 60 00 	cmp  %g1, 0
    3638:	12 bf ff f0 	bne  35f8 <DATA_SEGMENT_TO_COPY+0x3578>
    363c:	01 00 00 00 	nop 
    3640:	c2 0f bf ff 	ldub  [ %fp + -1 ], %g1
    3644:	83 28 60 18 	sll  %g1, 0x18, %g1
    3648:	83 38 60 18 	sra  %g1, 0x18, %g1
    364c:	80 a0 60 00 	cmp  %g1, 0
    3650:	02 80 00 08 	be  3670 <DATA_SEGMENT_TO_COPY+0x35f0>
    3654:	01 00 00 00 	nop 
    3658:	c2 07 a0 44 	ld  [ %fp + 0x44 ], %g1
    365c:	c4 0f bf ff 	ldub  [ %fp + -1 ], %g2
    3660:	c4 28 40 00 	stb  %g2, [ %g1 ]
    3664:	c2 07 a0 44 	ld  [ %fp + 0x44 ], %g1
    3668:	82 00 60 01 	inc  %g1
    366c:	c2 27 a0 44 	st  %g1, [ %fp + 0x44 ]
    3670:	c2 07 a0 58 	ld  [ %fp + 0x58 ], %g1
    3674:	82 08 60 20 	and  %g1, 0x20, %g1
    3678:	80 a0 60 00 	cmp  %g1, 0
    367c:	02 80 00 21 	be  3700 <DATA_SEGMENT_TO_COPY+0x3680>
    3680:	01 00 00 00 	nop 
    3684:	c2 07 a0 4c 	ld  [ %fp + 0x4c ], %g1
    3688:	80 a0 60 08 	cmp  %g1, 8
    368c:	12 80 00 0a 	bne  36b4 <DATA_SEGMENT_TO_COPY+0x3634>
    3690:	01 00 00 00 	nop 
    3694:	c2 07 a0 44 	ld  [ %fp + 0x44 ], %g1
    3698:	84 10 20 30 	mov  0x30, %g2
    369c:	c4 28 40 00 	stb  %g2, [ %g1 ]
    36a0:	c2 07 a0 44 	ld  [ %fp + 0x44 ], %g1
    36a4:	82 00 60 01 	inc  %g1
    36a8:	c2 27 a0 44 	st  %g1, [ %fp + 0x44 ]
    36ac:	10 80 00 15 	b  3700 <DATA_SEGMENT_TO_COPY+0x3680>
    36b0:	01 00 00 00 	nop 
    36b4:	c2 07 a0 4c 	ld  [ %fp + 0x4c ], %g1
    36b8:	80 a0 60 10 	cmp  %g1, 0x10
    36bc:	12 80 00 11 	bne  3700 <DATA_SEGMENT_TO_COPY+0x3680>
    36c0:	01 00 00 00 	nop 
    36c4:	c2 07 a0 44 	ld  [ %fp + 0x44 ], %g1
    36c8:	84 10 20 30 	mov  0x30, %g2
    36cc:	c4 28 40 00 	stb  %g2, [ %g1 ]
    36d0:	c2 07 a0 44 	ld  [ %fp + 0x44 ], %g1
    36d4:	82 00 60 01 	inc  %g1
    36d8:	c2 27 a0 44 	st  %g1, [ %fp + 0x44 ]
    36dc:	03 10 01 00 	sethi  %hi(0x40040000), %g1
    36e0:	82 10 60 d0 	or  %g1, 0xd0, %g1	! 400400d0 <DATA_SEGMENT_TO_COPY+0x40040050>
    36e4:	c2 00 40 00 	ld  [ %g1 ], %g1
    36e8:	c4 08 60 21 	ldub  [ %g1 + 0x21 ], %g2
    36ec:	c2 07 a0 44 	ld  [ %fp + 0x44 ], %g1
    36f0:	c4 28 40 00 	stb  %g2, [ %g1 ]
    36f4:	c2 07 a0 44 	ld  [ %fp + 0x44 ], %g1
    36f8:	82 00 60 01 	inc  %g1
    36fc:	c2 27 a0 44 	st  %g1, [ %fp + 0x44 ]
    3700:	c2 07 a0 58 	ld  [ %fp + 0x58 ], %g1
    3704:	82 08 60 10 	and  %g1, 0x10, %g1
    3708:	80 a0 60 00 	cmp  %g1, 0
    370c:	12 80 00 20 	bne  378c <DATA_SEGMENT_TO_COPY+0x370c>
    3710:	01 00 00 00 	nop 
    3714:	10 80 00 08 	b  3734 <DATA_SEGMENT_TO_COPY+0x36b4>
    3718:	01 00 00 00 	nop 
    371c:	c2 07 a0 44 	ld  [ %fp + 0x44 ], %g1
    3720:	c4 0f bf f3 	ldub  [ %fp + -13 ], %g2
    3724:	c4 28 40 00 	stb  %g2, [ %g1 ]
    3728:	c2 07 a0 44 	ld  [ %fp + 0x44 ], %g1
    372c:	82 00 60 01 	inc  %g1
    3730:	c2 27 a0 44 	st  %g1, [ %fp + 0x44 ]
    3734:	c2 07 a0 50 	ld  [ %fp + 0x50 ], %g1
    3738:	85 38 60 1f 	sra  %g1, 0x1f, %g2
    373c:	c2 07 a0 50 	ld  [ %fp + 0x50 ], %g1
    3740:	82 20 80 01 	sub  %g2, %g1, %g1
    3744:	83 30 60 1f 	srl  %g1, 0x1f, %g1
    3748:	c4 07 a0 50 	ld  [ %fp + 0x50 ], %g2
    374c:	84 00 bf ff 	add  %g2, -1, %g2
    3750:	c4 27 a0 50 	st  %g2, [ %fp + 0x50 ]
    3754:	82 08 60 ff 	and  %g1, 0xff, %g1
    3758:	80 a0 60 00 	cmp  %g1, 0
    375c:	12 bf ff f0 	bne  371c <DATA_SEGMENT_TO_COPY+0x369c>
    3760:	01 00 00 00 	nop 
    3764:	10 80 00 0a 	b  378c <DATA_SEGMENT_TO_COPY+0x370c>
    3768:	01 00 00 00 	nop 
    376c:	c2 07 a0 44 	ld  [ %fp + 0x44 ], %g1
    3770:	84 10 20 30 	mov  0x30, %g2
    3774:	c4 28 40 00 	stb  %g2, [ %g1 ]
    3778:	c2 07 a0 44 	ld  [ %fp + 0x44 ], %g1
    377c:	82 00 60 01 	inc  %g1
    3780:	c2 27 a0 44 	st  %g1, [ %fp + 0x44 ]
    3784:	10 80 00 03 	b  3790 <DATA_SEGMENT_TO_COPY+0x3710>
    3788:	01 00 00 00 	nop 
    378c:	01 00 00 00 	nop 
    3790:	82 10 20 01 	mov  1, %g1	! 1 <_start+0x1>
    3794:	c6 07 a0 54 	ld  [ %fp + 0x54 ], %g3
    3798:	c4 07 bf f4 	ld  [ %fp + -12 ], %g2
    379c:	80 a0 c0 02 	cmp  %g3, %g2
    37a0:	14 80 00 03 	bg  37ac <DATA_SEGMENT_TO_COPY+0x372c>
    37a4:	01 00 00 00 	nop 
    37a8:	82 10 20 00 	clr  %g1	! 0 <_start>
    37ac:	c4 07 a0 54 	ld  [ %fp + 0x54 ], %g2
    37b0:	84 00 bf ff 	add  %g2, -1, %g2
    37b4:	c4 27 a0 54 	st  %g2, [ %fp + 0x54 ]
    37b8:	82 08 60 ff 	and  %g1, 0xff, %g1
    37bc:	80 a0 60 00 	cmp  %g1, 0
    37c0:	12 bf ff eb 	bne  376c <DATA_SEGMENT_TO_COPY+0x36ec>
    37c4:	01 00 00 00 	nop 
    37c8:	10 80 00 0a 	b  37f0 <DATA_SEGMENT_TO_COPY+0x3770>
    37cc:	01 00 00 00 	nop 
    37d0:	c2 07 bf f4 	ld  [ %fp + -12 ], %g1
    37d4:	82 07 80 01 	add  %fp, %g1, %g1
    37d8:	c4 08 7f b0 	ldub  [ %g1 + -80 ], %g2
    37dc:	c2 07 a0 44 	ld  [ %fp + 0x44 ], %g1
    37e0:	c4 28 40 00 	stb  %g2, [ %g1 ]
    37e4:	c2 07 a0 44 	ld  [ %fp + 0x44 ], %g1
    37e8:	82 00 60 01 	inc  %g1
    37ec:	c2 27 a0 44 	st  %g1, [ %fp + 0x44 ]
    37f0:	c2 07 bf f4 	ld  [ %fp + -12 ], %g1
    37f4:	85 38 60 1f 	sra  %g1, 0x1f, %g2
    37f8:	c2 07 bf f4 	ld  [ %fp + -12 ], %g1
    37fc:	82 20 80 01 	sub  %g2, %g1, %g1
    3800:	83 30 60 1f 	srl  %g1, 0x1f, %g1
    3804:	c4 07 bf f4 	ld  [ %fp + -12 ], %g2
    3808:	84 00 bf ff 	add  %g2, -1, %g2
    380c:	c4 27 bf f4 	st  %g2, [ %fp + -12 ]
    3810:	82 08 60 ff 	and  %g1, 0xff, %g1
    3814:	80 a0 60 00 	cmp  %g1, 0
    3818:	12 bf ff ee 	bne  37d0 <DATA_SEGMENT_TO_COPY+0x3750>
    381c:	01 00 00 00 	nop 
    3820:	10 80 00 08 	b  3840 <DATA_SEGMENT_TO_COPY+0x37c0>
    3824:	01 00 00 00 	nop 
    3828:	c2 07 a0 44 	ld  [ %fp + 0x44 ], %g1
    382c:	84 10 20 20 	mov  0x20, %g2
    3830:	c4 28 40 00 	stb  %g2, [ %g1 ]
    3834:	c2 07 a0 44 	ld  [ %fp + 0x44 ], %g1
    3838:	82 00 60 01 	inc  %g1
    383c:	c2 27 a0 44 	st  %g1, [ %fp + 0x44 ]
    3840:	c2 07 a0 50 	ld  [ %fp + 0x50 ], %g1
    3844:	85 38 60 1f 	sra  %g1, 0x1f, %g2
    3848:	c2 07 a0 50 	ld  [ %fp + 0x50 ], %g1
    384c:	82 20 80 01 	sub  %g2, %g1, %g1
    3850:	83 30 60 1f 	srl  %g1, 0x1f, %g1
    3854:	c4 07 a0 50 	ld  [ %fp + 0x50 ], %g2
    3858:	84 00 bf ff 	add  %g2, -1, %g2
    385c:	c4 27 a0 50 	st  %g2, [ %fp + 0x50 ]
    3860:	82 08 60 ff 	and  %g1, 0xff, %g1
    3864:	80 a0 60 00 	cmp  %g1, 0
    3868:	12 bf ff f0 	bne  3828 <DATA_SEGMENT_TO_COPY+0x37a8>
    386c:	01 00 00 00 	nop 
    3870:	c2 07 a0 44 	ld  [ %fp + 0x44 ], %g1
    3874:	b0 10 00 01 	mov  %g1, %i0
    3878:	81 e8 00 00 	restore 
    387c:	81 c3 e0 08 	retl 
    3880:	01 00 00 00 	nop 
    3884:	9d e3 bf 78 	save  %sp, -136, %sp
    3888:	f0 27 a0 44 	st  %i0, [ %fp + 0x44 ]
    388c:	f2 27 a0 48 	st  %i1, [ %fp + 0x48 ]
    3890:	f4 27 a0 4c 	st  %i2, [ %fp + 0x4c ]
    3894:	f6 27 a0 50 	st  %i3, [ %fp + 0x50 ]
    3898:	f8 27 a0 54 	st  %i4, [ %fp + 0x54 ]
    389c:	03 10 01 00 	sethi  %hi(0x40040000), %g1
    38a0:	82 10 60 d0 	or  %g1, 0xd0, %g1	! 400400d0 <DATA_SEGMENT_TO_COPY+0x40040050>
    38a4:	c2 00 40 00 	ld  [ %g1 ], %g1
    38a8:	c2 27 bf fc 	st  %g1, [ %fp + -4 ]
    38ac:	c2 07 a0 54 	ld  [ %fp + 0x54 ], %g1
    38b0:	82 08 60 40 	and  %g1, 0x40, %g1
    38b4:	80 a0 60 00 	cmp  %g1, 0
    38b8:	02 80 00 06 	be  38d0 <DATA_SEGMENT_TO_COPY+0x3850>
    38bc:	01 00 00 00 	nop 
    38c0:	03 10 01 00 	sethi  %hi(0x40040000), %g1
    38c4:	82 10 60 d4 	or  %g1, 0xd4, %g1	! 400400d4 <DATA_SEGMENT_TO_COPY+0x40040054>
    38c8:	c2 00 40 00 	ld  [ %g1 ], %g1
    38cc:	c2 27 bf fc 	st  %g1, [ %fp + -4 ]
    38d0:	c0 27 bf f4 	clr  [ %fp + -12 ]
    38d4:	c0 27 bf f8 	clr  [ %fp + -8 ]
    38d8:	10 80 00 2f 	b  3994 <DATA_SEGMENT_TO_COPY+0x3914>
    38dc:	01 00 00 00 	nop 
    38e0:	c2 07 bf f8 	ld  [ %fp + -8 ], %g1
    38e4:	80 a0 60 00 	cmp  %g1, 0
    38e8:	02 80 00 09 	be  390c <DATA_SEGMENT_TO_COPY+0x388c>
    38ec:	01 00 00 00 	nop 
    38f0:	c2 07 bf f4 	ld  [ %fp + -12 ], %g1
    38f4:	82 07 80 01 	add  %fp, %g1, %g1
    38f8:	84 10 20 3a 	mov  0x3a, %g2
    38fc:	c4 28 7f d8 	stb  %g2, [ %g1 + -40 ]
    3900:	c2 07 bf f4 	ld  [ %fp + -12 ], %g1
    3904:	82 00 60 01 	inc  %g1
    3908:	c2 27 bf f4 	st  %g1, [ %fp + -12 ]
    390c:	c2 07 bf f8 	ld  [ %fp + -8 ], %g1
    3910:	c4 07 a0 48 	ld  [ %fp + 0x48 ], %g2
    3914:	82 00 80 01 	add  %g2, %g1, %g1
    3918:	c2 08 40 00 	ldub  [ %g1 ], %g1
    391c:	82 08 60 ff 	and  %g1, 0xff, %g1
    3920:	83 30 60 04 	srl  %g1, 4, %g1
    3924:	82 08 60 ff 	and  %g1, 0xff, %g1
    3928:	c4 07 bf fc 	ld  [ %fp + -4 ], %g2
    392c:	82 00 80 01 	add  %g2, %g1, %g1
    3930:	c4 08 40 00 	ldub  [ %g1 ], %g2
    3934:	c2 07 bf f4 	ld  [ %fp + -12 ], %g1
    3938:	82 07 80 01 	add  %fp, %g1, %g1
    393c:	c4 28 7f d8 	stb  %g2, [ %g1 + -40 ]
    3940:	c2 07 bf f4 	ld  [ %fp + -12 ], %g1
    3944:	82 00 60 01 	inc  %g1
    3948:	c2 27 bf f4 	st  %g1, [ %fp + -12 ]
    394c:	c2 07 bf f8 	ld  [ %fp + -8 ], %g1
    3950:	c4 07 a0 48 	ld  [ %fp + 0x48 ], %g2
    3954:	82 00 80 01 	add  %g2, %g1, %g1
    3958:	c2 08 40 00 	ldub  [ %g1 ], %g1
    395c:	82 08 60 ff 	and  %g1, 0xff, %g1
    3960:	82 08 60 0f 	and  %g1, 0xf, %g1
    3964:	c4 07 bf fc 	ld  [ %fp + -4 ], %g2
    3968:	82 00 80 01 	add  %g2, %g1, %g1
    396c:	c4 08 40 00 	ldub  [ %g1 ], %g2
    3970:	c2 07 bf f4 	ld  [ %fp + -12 ], %g1
    3974:	82 07 80 01 	add  %fp, %g1, %g1
    3978:	c4 28 7f d8 	stb  %g2, [ %g1 + -40 ]
    397c:	c2 07 bf f4 	ld  [ %fp + -12 ], %g1
    3980:	82 00 60 01 	inc  %g1
    3984:	c2 27 bf f4 	st  %g1, [ %fp + -12 ]
    3988:	c2 07 bf f8 	ld  [ %fp + -8 ], %g1
    398c:	82 00 60 01 	inc  %g1
    3990:	c2 27 bf f8 	st  %g1, [ %fp + -8 ]
    3994:	c2 07 bf f8 	ld  [ %fp + -8 ], %g1
    3998:	80 a0 60 05 	cmp  %g1, 5
    399c:	04 bf ff d1 	ble  38e0 <DATA_SEGMENT_TO_COPY+0x3860>
    39a0:	01 00 00 00 	nop 
    39a4:	c2 07 a0 54 	ld  [ %fp + 0x54 ], %g1
    39a8:	82 08 60 10 	and  %g1, 0x10, %g1
    39ac:	80 a0 60 00 	cmp  %g1, 0
    39b0:	12 80 00 18 	bne  3a10 <DATA_SEGMENT_TO_COPY+0x3990>
    39b4:	01 00 00 00 	nop 
    39b8:	10 80 00 08 	b  39d8 <DATA_SEGMENT_TO_COPY+0x3958>
    39bc:	01 00 00 00 	nop 
    39c0:	c2 07 a0 44 	ld  [ %fp + 0x44 ], %g1
    39c4:	84 10 20 20 	mov  0x20, %g2
    39c8:	c4 28 40 00 	stb  %g2, [ %g1 ]
    39cc:	c2 07 a0 44 	ld  [ %fp + 0x44 ], %g1
    39d0:	82 00 60 01 	inc  %g1
    39d4:	c2 27 a0 44 	st  %g1, [ %fp + 0x44 ]
    39d8:	82 10 20 01 	mov  1, %g1
    39dc:	c6 07 a0 4c 	ld  [ %fp + 0x4c ], %g3
    39e0:	c4 07 bf f4 	ld  [ %fp + -12 ], %g2
    39e4:	80 a0 c0 02 	cmp  %g3, %g2
    39e8:	14 80 00 03 	bg  39f4 <DATA_SEGMENT_TO_COPY+0x3974>
    39ec:	01 00 00 00 	nop 
    39f0:	82 10 20 00 	clr  %g1	! 0 <_start>
    39f4:	c4 07 a0 4c 	ld  [ %fp + 0x4c ], %g2
    39f8:	84 00 bf ff 	add  %g2, -1, %g2
    39fc:	c4 27 a0 4c 	st  %g2, [ %fp + 0x4c ]
    3a00:	82 08 60 ff 	and  %g1, 0xff, %g1
    3a04:	80 a0 60 00 	cmp  %g1, 0
    3a08:	12 bf ff ee 	bne  39c0 <DATA_SEGMENT_TO_COPY+0x3940>
    3a0c:	01 00 00 00 	nop 
    3a10:	c0 27 bf f8 	clr  [ %fp + -8 ]
    3a14:	10 80 00 0d 	b  3a48 <DATA_SEGMENT_TO_COPY+0x39c8>
    3a18:	01 00 00 00 	nop 
    3a1c:	c2 07 bf f8 	ld  [ %fp + -8 ], %g1
    3a20:	82 07 80 01 	add  %fp, %g1, %g1
    3a24:	c4 08 7f d8 	ldub  [ %g1 + -40 ], %g2
    3a28:	c2 07 a0 44 	ld  [ %fp + 0x44 ], %g1
    3a2c:	c4 28 40 00 	stb  %g2, [ %g1 ]
    3a30:	c2 07 a0 44 	ld  [ %fp + 0x44 ], %g1
    3a34:	82 00 60 01 	inc  %g1
    3a38:	c2 27 a0 44 	st  %g1, [ %fp + 0x44 ]
    3a3c:	c2 07 bf f8 	ld  [ %fp + -8 ], %g1
    3a40:	82 00 60 01 	inc  %g1
    3a44:	c2 27 bf f8 	st  %g1, [ %fp + -8 ]
    3a48:	c4 07 bf f8 	ld  [ %fp + -8 ], %g2
    3a4c:	c2 07 bf f4 	ld  [ %fp + -12 ], %g1
    3a50:	80 a0 80 01 	cmp  %g2, %g1
    3a54:	06 bf ff f2 	bl  3a1c <DATA_SEGMENT_TO_COPY+0x399c>
    3a58:	01 00 00 00 	nop 
    3a5c:	10 80 00 08 	b  3a7c <DATA_SEGMENT_TO_COPY+0x39fc>
    3a60:	01 00 00 00 	nop 
    3a64:	c2 07 a0 44 	ld  [ %fp + 0x44 ], %g1
    3a68:	84 10 20 20 	mov  0x20, %g2
    3a6c:	c4 28 40 00 	stb  %g2, [ %g1 ]
    3a70:	c2 07 a0 44 	ld  [ %fp + 0x44 ], %g1
    3a74:	82 00 60 01 	inc  %g1
    3a78:	c2 27 a0 44 	st  %g1, [ %fp + 0x44 ]
    3a7c:	82 10 20 01 	mov  1, %g1
    3a80:	c6 07 a0 4c 	ld  [ %fp + 0x4c ], %g3
    3a84:	c4 07 bf f4 	ld  [ %fp + -12 ], %g2
    3a88:	80 a0 c0 02 	cmp  %g3, %g2
    3a8c:	14 80 00 03 	bg  3a98 <DATA_SEGMENT_TO_COPY+0x3a18>
    3a90:	01 00 00 00 	nop 
    3a94:	82 10 20 00 	clr  %g1	! 0 <_start>
    3a98:	c4 07 a0 4c 	ld  [ %fp + 0x4c ], %g2
    3a9c:	84 00 bf ff 	add  %g2, -1, %g2
    3aa0:	c4 27 a0 4c 	st  %g2, [ %fp + 0x4c ]
    3aa4:	82 08 60 ff 	and  %g1, 0xff, %g1
    3aa8:	80 a0 60 00 	cmp  %g1, 0
    3aac:	12 bf ff ee 	bne  3a64 <DATA_SEGMENT_TO_COPY+0x39e4>
    3ab0:	01 00 00 00 	nop 
    3ab4:	c2 07 a0 44 	ld  [ %fp + 0x44 ], %g1
    3ab8:	b0 10 00 01 	mov  %g1, %i0
    3abc:	81 e8 00 00 	restore 
    3ac0:	81 c3 e0 08 	retl 
    3ac4:	01 00 00 00 	nop 
    3ac8:	9d e3 bf 78 	save  %sp, -136, %sp
    3acc:	f0 27 a0 44 	st  %i0, [ %fp + 0x44 ]
    3ad0:	f2 27 a0 48 	st  %i1, [ %fp + 0x48 ]
    3ad4:	f4 27 a0 4c 	st  %i2, [ %fp + 0x4c ]
    3ad8:	f6 27 a0 50 	st  %i3, [ %fp + 0x50 ]
    3adc:	f8 27 a0 54 	st  %i4, [ %fp + 0x54 ]
    3ae0:	c0 27 bf f4 	clr  [ %fp + -12 ]
    3ae4:	c0 27 bf fc 	clr  [ %fp + -4 ]
    3ae8:	10 80 00 94 	b  3d38 <DATA_SEGMENT_TO_COPY+0x3cb8>
    3aec:	01 00 00 00 	nop 
    3af0:	c2 07 bf fc 	ld  [ %fp + -4 ], %g1
    3af4:	80 a0 60 00 	cmp  %g1, 0
    3af8:	02 80 00 09 	be  3b1c <DATA_SEGMENT_TO_COPY+0x3a9c>
    3afc:	01 00 00 00 	nop 
    3b00:	c2 07 bf f4 	ld  [ %fp + -12 ], %g1
    3b04:	82 07 80 01 	add  %fp, %g1, %g1
    3b08:	84 10 20 2e 	mov  0x2e, %g2
    3b0c:	c4 28 7f d8 	stb  %g2, [ %g1 + -40 ]
    3b10:	c2 07 bf f4 	ld  [ %fp + -12 ], %g1
    3b14:	82 00 60 01 	inc  %g1
    3b18:	c2 27 bf f4 	st  %g1, [ %fp + -12 ]
    3b1c:	c2 07 bf fc 	ld  [ %fp + -4 ], %g1
    3b20:	c4 07 a0 48 	ld  [ %fp + 0x48 ], %g2
    3b24:	82 00 80 01 	add  %g2, %g1, %g1
    3b28:	c2 08 40 00 	ldub  [ %g1 ], %g1
    3b2c:	82 08 60 ff 	and  %g1, 0xff, %g1
    3b30:	c2 27 bf f8 	st  %g1, [ %fp + -8 ]
    3b34:	c2 07 bf f8 	ld  [ %fp + -8 ], %g1
    3b38:	80 a0 60 00 	cmp  %g1, 0
    3b3c:	12 80 00 0e 	bne  3b74 <DATA_SEGMENT_TO_COPY+0x3af4>
    3b40:	01 00 00 00 	nop 
    3b44:	03 10 01 00 	sethi  %hi(0x40040000), %g1
    3b48:	82 10 60 d0 	or  %g1, 0xd0, %g1	! 400400d0 <DATA_SEGMENT_TO_COPY+0x40040050>
    3b4c:	c2 00 40 00 	ld  [ %g1 ], %g1
    3b50:	c4 08 40 00 	ldub  [ %g1 ], %g2
    3b54:	c2 07 bf f4 	ld  [ %fp + -12 ], %g1
    3b58:	82 07 80 01 	add  %fp, %g1, %g1
    3b5c:	c4 28 7f d8 	stb  %g2, [ %g1 + -40 ]
    3b60:	c2 07 bf f4 	ld  [ %fp + -12 ], %g1
    3b64:	82 00 60 01 	inc  %g1
    3b68:	c2 27 bf f4 	st  %g1, [ %fp + -12 ]
    3b6c:	10 80 00 70 	b  3d2c <DATA_SEGMENT_TO_COPY+0x3cac>
    3b70:	01 00 00 00 	nop 
    3b74:	c2 07 bf f8 	ld  [ %fp + -8 ], %g1
    3b78:	80 a0 60 63 	cmp  %g1, 0x63
    3b7c:	04 80 00 3e 	ble  3c74 <DATA_SEGMENT_TO_COPY+0x3bf4>
    3b80:	01 00 00 00 	nop 
    3b84:	03 10 01 00 	sethi  %hi(0x40040000), %g1
    3b88:	82 10 60 d0 	or  %g1, 0xd0, %g1	! 400400d0 <DATA_SEGMENT_TO_COPY+0x40040050>
    3b8c:	c4 00 40 00 	ld  [ %g1 ], %g2
    3b90:	c2 07 bf f8 	ld  [ %fp + -8 ], %g1
    3b94:	87 38 60 1f 	sra  %g1, 0x1f, %g3
    3b98:	81 80 e0 00 	mov  %g3, %y
    3b9c:	01 00 00 00 	nop 
    3ba0:	01 00 00 00 	nop 
    3ba4:	01 00 00 00 	nop 
    3ba8:	82 78 60 64 	sdiv  %g1, 0x64, %g1
    3bac:	82 00 80 01 	add  %g2, %g1, %g1
    3bb0:	c4 08 40 00 	ldub  [ %g1 ], %g2
    3bb4:	c2 07 bf f4 	ld  [ %fp + -12 ], %g1
    3bb8:	82 07 80 01 	add  %fp, %g1, %g1
    3bbc:	c4 28 7f d8 	stb  %g2, [ %g1 + -40 ]
    3bc0:	c2 07 bf f4 	ld  [ %fp + -12 ], %g1
    3bc4:	82 00 60 01 	inc  %g1
    3bc8:	c2 27 bf f4 	st  %g1, [ %fp + -12 ]
    3bcc:	c2 07 bf f8 	ld  [ %fp + -8 ], %g1
    3bd0:	87 38 60 1f 	sra  %g1, 0x1f, %g3
    3bd4:	81 80 e0 00 	mov  %g3, %y
    3bd8:	01 00 00 00 	nop 
    3bdc:	01 00 00 00 	nop 
    3be0:	01 00 00 00 	nop 
    3be4:	84 78 60 64 	sdiv  %g1, 0x64, %g2
    3be8:	84 58 a0 64 	smul  %g2, 0x64, %g2
    3bec:	82 20 40 02 	sub  %g1, %g2, %g1
    3bf0:	c2 27 bf f8 	st  %g1, [ %fp + -8 ]
    3bf4:	03 10 01 00 	sethi  %hi(0x40040000), %g1
    3bf8:	82 10 60 d0 	or  %g1, 0xd0, %g1	! 400400d0 <DATA_SEGMENT_TO_COPY+0x40040050>
    3bfc:	c4 00 40 00 	ld  [ %g1 ], %g2
    3c00:	c2 07 bf f8 	ld  [ %fp + -8 ], %g1
    3c04:	87 38 60 1f 	sra  %g1, 0x1f, %g3
    3c08:	81 80 e0 00 	mov  %g3, %y
    3c0c:	01 00 00 00 	nop 
    3c10:	01 00 00 00 	nop 
    3c14:	01 00 00 00 	nop 
    3c18:	82 78 60 0a 	sdiv  %g1, 0xa, %g1
    3c1c:	82 00 80 01 	add  %g2, %g1, %g1
    3c20:	c4 08 40 00 	ldub  [ %g1 ], %g2
    3c24:	c2 07 bf f4 	ld  [ %fp + -12 ], %g1
    3c28:	82 07 80 01 	add  %fp, %g1, %g1
    3c2c:	c4 28 7f d8 	stb  %g2, [ %g1 + -40 ]
    3c30:	c2 07 bf f4 	ld  [ %fp + -12 ], %g1
    3c34:	82 00 60 01 	inc  %g1
    3c38:	c2 27 bf f4 	st  %g1, [ %fp + -12 ]
    3c3c:	c4 07 bf f8 	ld  [ %fp + -8 ], %g2
    3c40:	87 38 a0 1f 	sra  %g2, 0x1f, %g3
    3c44:	81 80 e0 00 	mov  %g3, %y
    3c48:	01 00 00 00 	nop 
    3c4c:	01 00 00 00 	nop 
    3c50:	01 00 00 00 	nop 
    3c54:	82 78 a0 0a 	sdiv  %g2, 0xa, %g1
    3c58:	82 00 40 01 	add  %g1, %g1, %g1
    3c5c:	87 28 60 02 	sll  %g1, 2, %g3
    3c60:	82 00 40 03 	add  %g1, %g3, %g1
    3c64:	82 20 80 01 	sub  %g2, %g1, %g1
    3c68:	c2 27 bf f8 	st  %g1, [ %fp + -8 ]
    3c6c:	10 80 00 24 	b  3cfc <DATA_SEGMENT_TO_COPY+0x3c7c>
    3c70:	01 00 00 00 	nop 
    3c74:	c2 07 bf f8 	ld  [ %fp + -8 ], %g1
    3c78:	80 a0 60 09 	cmp  %g1, 9
    3c7c:	04 80 00 20 	ble  3cfc <DATA_SEGMENT_TO_COPY+0x3c7c>
    3c80:	01 00 00 00 	nop 
    3c84:	03 10 01 00 	sethi  %hi(0x40040000), %g1
    3c88:	82 10 60 d0 	or  %g1, 0xd0, %g1	! 400400d0 <DATA_SEGMENT_TO_COPY+0x40040050>
    3c8c:	c4 00 40 00 	ld  [ %g1 ], %g2
    3c90:	c2 07 bf f8 	ld  [ %fp + -8 ], %g1
    3c94:	87 38 60 1f 	sra  %g1, 0x1f, %g3
    3c98:	81 80 e0 00 	mov  %g3, %y
    3c9c:	01 00 00 00 	nop 
    3ca0:	01 00 00 00 	nop 
    3ca4:	01 00 00 00 	nop 
    3ca8:	82 78 60 0a 	sdiv  %g1, 0xa, %g1
    3cac:	82 00 80 01 	add  %g2, %g1, %g1
    3cb0:	c4 08 40 00 	ldub  [ %g1 ], %g2
    3cb4:	c2 07 bf f4 	ld  [ %fp + -12 ], %g1
    3cb8:	82 07 80 01 	add  %fp, %g1, %g1
    3cbc:	c4 28 7f d8 	stb  %g2, [ %g1 + -40 ]
    3cc0:	c2 07 bf f4 	ld  [ %fp + -12 ], %g1
    3cc4:	82 00 60 01 	inc  %g1
    3cc8:	c2 27 bf f4 	st  %g1, [ %fp + -12 ]
    3ccc:	c4 07 bf f8 	ld  [ %fp + -8 ], %g2
    3cd0:	87 38 a0 1f 	sra  %g2, 0x1f, %g3
    3cd4:	81 80 e0 00 	mov  %g3, %y
    3cd8:	01 00 00 00 	nop 
    3cdc:	01 00 00 00 	nop 
    3ce0:	01 00 00 00 	nop 
    3ce4:	82 78 a0 0a 	sdiv  %g2, 0xa, %g1
    3ce8:	82 00 40 01 	add  %g1, %g1, %g1
    3cec:	87 28 60 02 	sll  %g1, 2, %g3
    3cf0:	82 00 40 03 	add  %g1, %g3, %g1
    3cf4:	82 20 80 01 	sub  %g2, %g1, %g1
    3cf8:	c2 27 bf f8 	st  %g1, [ %fp + -8 ]
    3cfc:	03 10 01 00 	sethi  %hi(0x40040000), %g1
    3d00:	82 10 60 d0 	or  %g1, 0xd0, %g1	! 400400d0 <DATA_SEGMENT_TO_COPY+0x40040050>
    3d04:	c4 00 40 00 	ld  [ %g1 ], %g2
    3d08:	c2 07 bf f8 	ld  [ %fp + -8 ], %g1
    3d0c:	82 00 80 01 	add  %g2, %g1, %g1
    3d10:	c4 08 40 00 	ldub  [ %g1 ], %g2
    3d14:	c2 07 bf f4 	ld  [ %fp + -12 ], %g1
    3d18:	82 07 80 01 	add  %fp, %g1, %g1
    3d1c:	c4 28 7f d8 	stb  %g2, [ %g1 + -40 ]
    3d20:	c2 07 bf f4 	ld  [ %fp + -12 ], %g1
    3d24:	82 00 60 01 	inc  %g1
    3d28:	c2 27 bf f4 	st  %g1, [ %fp + -12 ]
    3d2c:	c2 07 bf fc 	ld  [ %fp + -4 ], %g1
    3d30:	82 00 60 01 	inc  %g1
    3d34:	c2 27 bf fc 	st  %g1, [ %fp + -4 ]
    3d38:	c2 07 bf fc 	ld  [ %fp + -4 ], %g1
    3d3c:	80 a0 60 03 	cmp  %g1, 3
    3d40:	04 bf ff 6c 	ble  3af0 <DATA_SEGMENT_TO_COPY+0x3a70>
    3d44:	01 00 00 00 	nop 
    3d48:	c2 07 a0 54 	ld  [ %fp + 0x54 ], %g1
    3d4c:	82 08 60 10 	and  %g1, 0x10, %g1
    3d50:	80 a0 60 00 	cmp  %g1, 0
    3d54:	12 80 00 18 	bne  3db4 <DATA_SEGMENT_TO_COPY+0x3d34>
    3d58:	01 00 00 00 	nop 
    3d5c:	10 80 00 08 	b  3d7c <DATA_SEGMENT_TO_COPY+0x3cfc>
    3d60:	01 00 00 00 	nop 
    3d64:	c2 07 a0 44 	ld  [ %fp + 0x44 ], %g1
    3d68:	84 10 20 20 	mov  0x20, %g2
    3d6c:	c4 28 40 00 	stb  %g2, [ %g1 ]
    3d70:	c2 07 a0 44 	ld  [ %fp + 0x44 ], %g1
    3d74:	82 00 60 01 	inc  %g1
    3d78:	c2 27 a0 44 	st  %g1, [ %fp + 0x44 ]
    3d7c:	82 10 20 01 	mov  1, %g1
    3d80:	c6 07 a0 4c 	ld  [ %fp + 0x4c ], %g3
    3d84:	c4 07 bf f4 	ld  [ %fp + -12 ], %g2
    3d88:	80 a0 c0 02 	cmp  %g3, %g2
    3d8c:	14 80 00 03 	bg  3d98 <DATA_SEGMENT_TO_COPY+0x3d18>
    3d90:	01 00 00 00 	nop 
    3d94:	82 10 20 00 	clr  %g1	! 0 <_start>
    3d98:	c4 07 a0 4c 	ld  [ %fp + 0x4c ], %g2
    3d9c:	84 00 bf ff 	add  %g2, -1, %g2
    3da0:	c4 27 a0 4c 	st  %g2, [ %fp + 0x4c ]
    3da4:	82 08 60 ff 	and  %g1, 0xff, %g1
    3da8:	80 a0 60 00 	cmp  %g1, 0
    3dac:	12 bf ff ee 	bne  3d64 <DATA_SEGMENT_TO_COPY+0x3ce4>
    3db0:	01 00 00 00 	nop 
    3db4:	c0 27 bf fc 	clr  [ %fp + -4 ]
    3db8:	10 80 00 0d 	b  3dec <DATA_SEGMENT_TO_COPY+0x3d6c>
    3dbc:	01 00 00 00 	nop 
    3dc0:	c2 07 bf fc 	ld  [ %fp + -4 ], %g1
    3dc4:	82 07 80 01 	add  %fp, %g1, %g1
    3dc8:	c4 08 7f d8 	ldub  [ %g1 + -40 ], %g2
    3dcc:	c2 07 a0 44 	ld  [ %fp + 0x44 ], %g1
    3dd0:	c4 28 40 00 	stb  %g2, [ %g1 ]
    3dd4:	c2 07 a0 44 	ld  [ %fp + 0x44 ], %g1
    3dd8:	82 00 60 01 	inc  %g1
    3ddc:	c2 27 a0 44 	st  %g1, [ %fp + 0x44 ]
    3de0:	c2 07 bf fc 	ld  [ %fp + -4 ], %g1
    3de4:	82 00 60 01 	inc  %g1
    3de8:	c2 27 bf fc 	st  %g1, [ %fp + -4 ]
    3dec:	c4 07 bf fc 	ld  [ %fp + -4 ], %g2
    3df0:	c2 07 bf f4 	ld  [ %fp + -12 ], %g1
    3df4:	80 a0 80 01 	cmp  %g2, %g1
    3df8:	06 bf ff f2 	bl  3dc0 <DATA_SEGMENT_TO_COPY+0x3d40>
    3dfc:	01 00 00 00 	nop 
    3e00:	10 80 00 08 	b  3e20 <DATA_SEGMENT_TO_COPY+0x3da0>
    3e04:	01 00 00 00 	nop 
    3e08:	c2 07 a0 44 	ld  [ %fp + 0x44 ], %g1
    3e0c:	84 10 20 20 	mov  0x20, %g2
    3e10:	c4 28 40 00 	stb  %g2, [ %g1 ]
    3e14:	c2 07 a0 44 	ld  [ %fp + 0x44 ], %g1
    3e18:	82 00 60 01 	inc  %g1
    3e1c:	c2 27 a0 44 	st  %g1, [ %fp + 0x44 ]
    3e20:	82 10 20 01 	mov  1, %g1
    3e24:	c6 07 a0 4c 	ld  [ %fp + 0x4c ], %g3
    3e28:	c4 07 bf f4 	ld  [ %fp + -12 ], %g2
    3e2c:	80 a0 c0 02 	cmp  %g3, %g2
    3e30:	14 80 00 03 	bg  3e3c <DATA_SEGMENT_TO_COPY+0x3dbc>
    3e34:	01 00 00 00 	nop 
    3e38:	82 10 20 00 	clr  %g1	! 0 <_start>
    3e3c:	c4 07 a0 4c 	ld  [ %fp + 0x4c ], %g2
    3e40:	84 00 bf ff 	add  %g2, -1, %g2
    3e44:	c4 27 a0 4c 	st  %g2, [ %fp + 0x4c ]
    3e48:	82 08 60 ff 	and  %g1, 0xff, %g1
    3e4c:	80 a0 60 00 	cmp  %g1, 0
    3e50:	12 bf ff ee 	bne  3e08 <DATA_SEGMENT_TO_COPY+0x3d88>
    3e54:	01 00 00 00 	nop 
    3e58:	c2 07 a0 44 	ld  [ %fp + 0x44 ], %g1
    3e5c:	b0 10 00 01 	mov  %g1, %i0
    3e60:	81 e8 00 00 	restore 
    3e64:	81 c3 e0 08 	retl 
    3e68:	01 00 00 00 	nop 
    3e6c:	9d e3 bf 98 	save  %sp, -104, %sp
    3e70:	f0 27 a0 44 	st  %i0, [ %fp + 0x44 ]
    3e74:	f2 27 a0 48 	st  %i1, [ %fp + 0x48 ]
    3e78:	f4 27 a0 4c 	st  %i2, [ %fp + 0x4c ]
    3e7c:	c2 07 a0 4c 	ld  [ %fp + 0x4c ], %g1
    3e80:	c4 07 a0 48 	ld  [ %fp + 0x48 ], %g2
    3e84:	82 00 80 01 	add  %g2, %g1, %g1
    3e88:	c2 27 bf fc 	st  %g1, [ %fp + -4 ]
    3e8c:	10 80 00 0c 	b  3ebc <DATA_SEGMENT_TO_COPY+0x3e3c>
    3e90:	01 00 00 00 	nop 
    3e94:	c2 07 a0 48 	ld  [ %fp + 0x48 ], %g1
    3e98:	c4 08 40 00 	ldub  [ %g1 ], %g2
    3e9c:	c2 07 a0 44 	ld  [ %fp + 0x44 ], %g1
    3ea0:	c4 28 40 00 	stb  %g2, [ %g1 ]
    3ea4:	c2 07 a0 44 	ld  [ %fp + 0x44 ], %g1
    3ea8:	82 00 60 01 	inc  %g1
    3eac:	c2 27 a0 44 	st  %g1, [ %fp + 0x44 ]
    3eb0:	c2 07 a0 48 	ld  [ %fp + 0x48 ], %g1
    3eb4:	82 00 60 01 	inc  %g1
    3eb8:	c2 27 a0 48 	st  %g1, [ %fp + 0x48 ]
    3ebc:	c4 07 a0 48 	ld  [ %fp + 0x48 ], %g2
    3ec0:	c2 07 bf fc 	ld  [ %fp + -4 ], %g1
    3ec4:	80 a0 80 01 	cmp  %g2, %g1
    3ec8:	12 bf ff f3 	bne  3e94 <DATA_SEGMENT_TO_COPY+0x3e14>
    3ecc:	01 00 00 00 	nop 
    3ed0:	81 e8 00 00 	restore 
    3ed4:	81 c3 e0 08 	retl 
    3ed8:	01 00 00 00 	nop 
    3edc:	9d e3 bf 28 	save  %sp, -216, %sp
    3ee0:	f0 3f bf 88 	std  %i0, [ %fp + -120 ]
    3ee4:	f4 27 a0 4c 	st  %i2, [ %fp + 0x4c ]
    3ee8:	82 10 00 1b 	mov  %i3, %g1
    3eec:	f8 27 a0 54 	st  %i4, [ %fp + 0x54 ]
    3ef0:	c2 2f a0 50 	stb  %g1, [ %fp + 0x50 ]
    3ef4:	c0 27 bf f4 	clr  [ %fp + -12 ]
    3ef8:	c0 27 bf f0 	clr  [ %fp + -16 ]
    3efc:	c2 0f a0 50 	ldub  [ %fp + 0x50 ], %g1
    3f00:	83 28 60 18 	sll  %g1, 0x18, %g1
    3f04:	83 38 60 18 	sra  %g1, 0x18, %g1
    3f08:	80 a0 60 47 	cmp  %g1, 0x47
    3f0c:	02 80 00 08 	be  3f2c <DATA_SEGMENT_TO_COPY+0x3eac>
    3f10:	01 00 00 00 	nop 
    3f14:	c2 0f a0 50 	ldub  [ %fp + 0x50 ], %g1
    3f18:	83 28 60 18 	sll  %g1, 0x18, %g1
    3f1c:	83 38 60 18 	sra  %g1, 0x18, %g1
    3f20:	80 a0 60 45 	cmp  %g1, 0x45
    3f24:	12 80 00 07 	bne  3f40 <DATA_SEGMENT_TO_COPY+0x3ec0>
    3f28:	01 00 00 00 	nop 
    3f2c:	82 10 20 01 	mov  1, %g1	! 1 <_start+0x1>
    3f30:	c2 27 bf f0 	st  %g1, [ %fp + -16 ]
    3f34:	c2 0f a0 50 	ldub  [ %fp + 0x50 ], %g1
    3f38:	82 00 60 20 	add  %g1, 0x20, %g1
    3f3c:	c2 2f a0 50 	stb  %g1, [ %fp + 0x50 ]
    3f40:	c2 0f a0 50 	ldub  [ %fp + 0x50 ], %g1
    3f44:	83 28 60 18 	sll  %g1, 0x18, %g1
    3f48:	83 38 60 18 	sra  %g1, 0x18, %g1
    3f4c:	80 a0 60 67 	cmp  %g1, 0x67
    3f50:	12 80 00 27 	bne  3fec <DATA_SEGMENT_TO_COPY+0x3f6c>
    3f54:	01 00 00 00 	nop 
    3f58:	86 07 bf e8 	add  %fp, -24, %g3
    3f5c:	84 07 bf e4 	add  %fp, -28, %g2
    3f60:	82 07 bf 90 	add  %fp, -112, %g1
    3f64:	d0 1f bf 88 	ldd  [ %fp + -120 ], %o0
    3f68:	d4 07 a0 54 	ld  [ %fp + 0x54 ], %o2
    3f6c:	96 10 00 03 	mov  %g3, %o3
    3f70:	98 10 00 02 	mov  %g2, %o4
    3f74:	9a 10 00 01 	mov  %g1, %o5
    3f78:	40 00 06 ee 	call  5b30 <DATA_SEGMENT_TO_COPY+0x5ab0>
    3f7c:	01 00 00 00 	nop 
    3f80:	d0 27 bf f4 	st  %o0, [ %fp + -12 ]
    3f84:	c2 07 bf e8 	ld  [ %fp + -24 ], %g1
    3f88:	82 00 7f ff 	add  %g1, -1, %g1
    3f8c:	c2 27 bf ec 	st  %g1, [ %fp + -20 ]
    3f90:	c2 07 bf ec 	ld  [ %fp + -20 ], %g1
    3f94:	80 a0 7f fc 	cmp  %g1, -4
    3f98:	06 80 00 08 	bl  3fb8 <DATA_SEGMENT_TO_COPY+0x3f38>
    3f9c:	01 00 00 00 	nop 
    3fa0:	c2 07 a0 54 	ld  [ %fp + 0x54 ], %g1
    3fa4:	84 00 7f ff 	add  %g1, -1, %g2
    3fa8:	c2 07 bf ec 	ld  [ %fp + -20 ], %g1
    3fac:	80 a0 80 01 	cmp  %g2, %g1
    3fb0:	16 80 00 09 	bge  3fd4 <DATA_SEGMENT_TO_COPY+0x3f54>
    3fb4:	01 00 00 00 	nop 
    3fb8:	82 10 20 65 	mov  0x65, %g1	! 65 <copy_program_image_u64+0xd>
    3fbc:	c2 2f a0 50 	stb  %g1, [ %fp + 0x50 ]
    3fc0:	c2 07 a0 54 	ld  [ %fp + 0x54 ], %g1
    3fc4:	82 00 7f ff 	add  %g1, -1, %g1
    3fc8:	c2 27 a0 54 	st  %g1, [ %fp + 0x54 ]
    3fcc:	10 80 00 08 	b  3fec <DATA_SEGMENT_TO_COPY+0x3f6c>
    3fd0:	01 00 00 00 	nop 
    3fd4:	82 10 20 66 	mov  0x66, %g1	! 66 <copy_program_image_u64+0xe>
    3fd8:	c2 2f a0 50 	stb  %g1, [ %fp + 0x50 ]
    3fdc:	c2 07 bf e8 	ld  [ %fp + -24 ], %g1
    3fe0:	c4 07 a0 54 	ld  [ %fp + 0x54 ], %g2
    3fe4:	82 20 80 01 	sub  %g2, %g1, %g1
    3fe8:	c2 27 a0 54 	st  %g1, [ %fp + 0x54 ]
    3fec:	c2 0f a0 50 	ldub  [ %fp + 0x50 ], %g1
    3ff0:	83 28 60 18 	sll  %g1, 0x18, %g1
    3ff4:	83 38 60 18 	sra  %g1, 0x18, %g1
    3ff8:	80 a0 60 65 	cmp  %g1, 0x65
    3ffc:	12 80 00 af 	bne  42b8 <DATA_SEGMENT_TO_COPY+0x4238>
    4000:	01 00 00 00 	nop 
    4004:	c2 07 a0 54 	ld  [ %fp + 0x54 ], %g1
    4008:	88 00 60 01 	add  %g1, 1, %g4
    400c:	86 07 bf e8 	add  %fp, -24, %g3
    4010:	84 07 bf e4 	add  %fp, -28, %g2
    4014:	82 07 bf 90 	add  %fp, -112, %g1
    4018:	d0 1f bf 88 	ldd  [ %fp + -120 ], %o0
    401c:	94 10 00 04 	mov  %g4, %o2
    4020:	96 10 00 03 	mov  %g3, %o3
    4024:	98 10 00 02 	mov  %g2, %o4
    4028:	9a 10 00 01 	mov  %g1, %o5
    402c:	40 00 06 c1 	call  5b30 <DATA_SEGMENT_TO_COPY+0x5ab0>
    4030:	01 00 00 00 	nop 
    4034:	d0 27 bf f4 	st  %o0, [ %fp + -12 ]
    4038:	c2 07 bf e4 	ld  [ %fp + -28 ], %g1
    403c:	80 a0 60 00 	cmp  %g1, 0
    4040:	02 80 00 08 	be  4060 <DATA_SEGMENT_TO_COPY+0x3fe0>
    4044:	01 00 00 00 	nop 
    4048:	c2 07 a0 4c 	ld  [ %fp + 0x4c ], %g1
    404c:	84 10 20 2d 	mov  0x2d, %g2
    4050:	c4 28 40 00 	stb  %g2, [ %g1 ]
    4054:	c2 07 a0 4c 	ld  [ %fp + 0x4c ], %g1
    4058:	82 00 60 01 	inc  %g1
    405c:	c2 27 a0 4c 	st  %g1, [ %fp + 0x4c ]
    4060:	c2 07 bf f4 	ld  [ %fp + -12 ], %g1
    4064:	c4 08 40 00 	ldub  [ %g1 ], %g2
    4068:	c2 07 a0 4c 	ld  [ %fp + 0x4c ], %g1
    406c:	c4 28 40 00 	stb  %g2, [ %g1 ]
    4070:	c2 07 a0 4c 	ld  [ %fp + 0x4c ], %g1
    4074:	82 00 60 01 	inc  %g1
    4078:	c2 27 a0 4c 	st  %g1, [ %fp + 0x4c ]
    407c:	c2 07 a0 54 	ld  [ %fp + 0x54 ], %g1
    4080:	80 a0 60 00 	cmp  %g1, 0
    4084:	04 80 00 08 	ble  40a4 <DATA_SEGMENT_TO_COPY+0x4024>
    4088:	01 00 00 00 	nop 
    408c:	c2 07 a0 4c 	ld  [ %fp + 0x4c ], %g1
    4090:	84 10 20 2e 	mov  0x2e, %g2
    4094:	c4 28 40 00 	stb  %g2, [ %g1 ]
    4098:	c2 07 a0 4c 	ld  [ %fp + 0x4c ], %g1
    409c:	82 00 60 01 	inc  %g1
    40a0:	c2 27 a0 4c 	st  %g1, [ %fp + 0x4c ]
    40a4:	c2 07 bf f4 	ld  [ %fp + -12 ], %g1
    40a8:	82 00 60 01 	inc  %g1
    40ac:	d0 07 a0 4c 	ld  [ %fp + 0x4c ], %o0
    40b0:	92 10 00 01 	mov  %g1, %o1
    40b4:	d4 07 a0 54 	ld  [ %fp + 0x54 ], %o2
    40b8:	7f ff ff 6d 	call  3e6c <DATA_SEGMENT_TO_COPY+0x3dec>
    40bc:	01 00 00 00 	nop 
    40c0:	c2 07 a0 54 	ld  [ %fp + 0x54 ], %g1
    40c4:	c4 07 a0 4c 	ld  [ %fp + 0x4c ], %g2
    40c8:	82 00 80 01 	add  %g2, %g1, %g1
    40cc:	c2 27 a0 4c 	st  %g1, [ %fp + 0x4c ]
    40d0:	c2 07 bf f0 	ld  [ %fp + -16 ], %g1
    40d4:	80 a0 60 00 	cmp  %g1, 0
    40d8:	02 80 00 05 	be  40ec <DATA_SEGMENT_TO_COPY+0x406c>
    40dc:	01 00 00 00 	nop 
    40e0:	82 10 20 45 	mov  0x45, %g1	! 45 <_copy_segment_u64+0x15>
    40e4:	10 80 00 03 	b  40f0 <DATA_SEGMENT_TO_COPY+0x4070>
    40e8:	01 00 00 00 	nop 
    40ec:	82 10 20 65 	mov  0x65, %g1	! 65 <copy_program_image_u64+0xd>
    40f0:	c4 07 a0 4c 	ld  [ %fp + 0x4c ], %g2
    40f4:	c2 28 80 00 	stb  %g1, [ %g2 ]
    40f8:	c2 07 a0 4c 	ld  [ %fp + 0x4c ], %g1
    40fc:	82 00 60 01 	inc  %g1
    4100:	c2 27 a0 4c 	st  %g1, [ %fp + 0x4c ]
    4104:	c2 07 bf e8 	ld  [ %fp + -24 ], %g1
    4108:	80 a0 60 00 	cmp  %g1, 0
    410c:	12 80 00 11 	bne  4150 <DATA_SEGMENT_TO_COPY+0x40d0>
    4110:	01 00 00 00 	nop 
    4114:	d5 1f bf 88 	ldd  [ %fp + -120 ], %f10
    4118:	03 10 01 00 	sethi  %hi(0x40040000), %g1
    411c:	82 10 60 50 	or  %g1, 0x50, %g1	! 40040050 <DATA_SEGMENT_TO_COPY+0x4003ffd0>
    4120:	d1 18 40 00 	ldd  [ %g1 ], %f8
    4124:	81 aa 8a 48 	fcmpd  %f10, %f8
    4128:	01 00 00 00 	nop 
    412c:	03 80 00 05 	fbne  4140 <DATA_SEGMENT_TO_COPY+0x40c0>
    4130:	01 00 00 00 	nop 
    4134:	c0 27 bf fc 	clr  [ %fp + -4 ]
    4138:	10 80 00 09 	b  415c <DATA_SEGMENT_TO_COPY+0x40dc>
    413c:	01 00 00 00 	nop 
    4140:	82 10 3f ff 	mov  -1, %g1	! ffffffff <DATA_SEGMENT_TO_COPY+0xffffff7f>
    4144:	c2 27 bf fc 	st  %g1, [ %fp + -4 ]
    4148:	10 80 00 05 	b  415c <DATA_SEGMENT_TO_COPY+0x40dc>
    414c:	01 00 00 00 	nop 
    4150:	c2 07 bf e8 	ld  [ %fp + -24 ], %g1
    4154:	82 00 7f ff 	add  %g1, -1, %g1
    4158:	c2 27 bf fc 	st  %g1, [ %fp + -4 ]
    415c:	c2 07 bf fc 	ld  [ %fp + -4 ], %g1
    4160:	80 a0 60 00 	cmp  %g1, 0
    4164:	16 80 00 0d 	bge  4198 <DATA_SEGMENT_TO_COPY+0x4118>
    4168:	01 00 00 00 	nop 
    416c:	c2 07 a0 4c 	ld  [ %fp + 0x4c ], %g1
    4170:	84 10 20 2d 	mov  0x2d, %g2
    4174:	c4 28 40 00 	stb  %g2, [ %g1 ]
    4178:	c2 07 a0 4c 	ld  [ %fp + 0x4c ], %g1
    417c:	82 00 60 01 	inc  %g1
    4180:	c2 27 a0 4c 	st  %g1, [ %fp + 0x4c ]
    4184:	c2 07 bf fc 	ld  [ %fp + -4 ], %g1
    4188:	82 20 00 01 	neg  %g1
    418c:	c2 27 bf fc 	st  %g1, [ %fp + -4 ]
    4190:	10 80 00 08 	b  41b0 <DATA_SEGMENT_TO_COPY+0x4130>
    4194:	01 00 00 00 	nop 
    4198:	c2 07 a0 4c 	ld  [ %fp + 0x4c ], %g1
    419c:	84 10 20 2b 	mov  0x2b, %g2
    41a0:	c4 28 40 00 	stb  %g2, [ %g1 ]
    41a4:	c2 07 a0 4c 	ld  [ %fp + 0x4c ], %g1
    41a8:	82 00 60 01 	inc  %g1
    41ac:	c2 27 a0 4c 	st  %g1, [ %fp + 0x4c ]
    41b0:	c2 07 a0 4c 	ld  [ %fp + 0x4c ], %g1
    41b4:	86 00 60 02 	add  %g1, 2, %g3
    41b8:	c4 07 bf fc 	ld  [ %fp + -4 ], %g2
    41bc:	89 38 a0 1f 	sra  %g2, 0x1f, %g4
    41c0:	81 81 20 00 	mov  %g4, %y
    41c4:	01 00 00 00 	nop 
    41c8:	01 00 00 00 	nop 
    41cc:	01 00 00 00 	nop 
    41d0:	82 78 a0 0a 	sdiv  %g2, 0xa, %g1
    41d4:	82 00 40 01 	add  %g1, %g1, %g1
    41d8:	89 28 60 02 	sll  %g1, 2, %g4
    41dc:	82 00 40 04 	add  %g1, %g4, %g1
    41e0:	82 20 80 01 	sub  %g2, %g1, %g1
    41e4:	82 00 60 30 	add  %g1, 0x30, %g1
    41e8:	c2 28 c0 00 	stb  %g1, [ %g3 ]
    41ec:	c2 07 bf fc 	ld  [ %fp + -4 ], %g1
    41f0:	85 38 60 1f 	sra  %g1, 0x1f, %g2
    41f4:	81 80 a0 00 	mov  %g2, %y
    41f8:	01 00 00 00 	nop 
    41fc:	01 00 00 00 	nop 
    4200:	01 00 00 00 	nop 
    4204:	82 78 60 0a 	sdiv  %g1, 0xa, %g1
    4208:	c2 27 bf fc 	st  %g1, [ %fp + -4 ]
    420c:	c2 07 a0 4c 	ld  [ %fp + 0x4c ], %g1
    4210:	86 00 60 01 	add  %g1, 1, %g3
    4214:	c4 07 bf fc 	ld  [ %fp + -4 ], %g2
    4218:	89 38 a0 1f 	sra  %g2, 0x1f, %g4
    421c:	81 81 20 00 	mov  %g4, %y
    4220:	01 00 00 00 	nop 
    4224:	01 00 00 00 	nop 
    4228:	01 00 00 00 	nop 
    422c:	82 78 a0 0a 	sdiv  %g2, 0xa, %g1
    4230:	82 00 40 01 	add  %g1, %g1, %g1
    4234:	89 28 60 02 	sll  %g1, 2, %g4
    4238:	82 00 40 04 	add  %g1, %g4, %g1
    423c:	82 20 80 01 	sub  %g2, %g1, %g1
    4240:	82 00 60 30 	add  %g1, 0x30, %g1
    4244:	c2 28 c0 00 	stb  %g1, [ %g3 ]
    4248:	c2 07 bf fc 	ld  [ %fp + -4 ], %g1
    424c:	85 38 60 1f 	sra  %g1, 0x1f, %g2
    4250:	81 80 a0 00 	mov  %g2, %y
    4254:	01 00 00 00 	nop 
    4258:	01 00 00 00 	nop 
    425c:	01 00 00 00 	nop 
    4260:	82 78 60 0a 	sdiv  %g1, 0xa, %g1
    4264:	c2 27 bf fc 	st  %g1, [ %fp + -4 ]
    4268:	c4 07 bf fc 	ld  [ %fp + -4 ], %g2
    426c:	87 38 a0 1f 	sra  %g2, 0x1f, %g3
    4270:	81 80 e0 00 	mov  %g3, %y
    4274:	01 00 00 00 	nop 
    4278:	01 00 00 00 	nop 
    427c:	01 00 00 00 	nop 
    4280:	82 78 a0 0a 	sdiv  %g2, 0xa, %g1
    4284:	82 00 40 01 	add  %g1, %g1, %g1
    4288:	87 28 60 02 	sll  %g1, 2, %g3
    428c:	82 00 40 03 	add  %g1, %g3, %g1
    4290:	82 20 80 01 	sub  %g2, %g1, %g1
    4294:	82 00 60 30 	add  %g1, 0x30, %g1
    4298:	84 10 00 01 	mov  %g1, %g2
    429c:	c2 07 a0 4c 	ld  [ %fp + 0x4c ], %g1
    42a0:	c4 28 40 00 	stb  %g2, [ %g1 ]
    42a4:	c2 07 a0 4c 	ld  [ %fp + 0x4c ], %g1
    42a8:	82 00 60 03 	add  %g1, 3, %g1
    42ac:	c2 27 a0 4c 	st  %g1, [ %fp + 0x4c ]
    42b0:	10 80 00 a4 	b  4540 <DATA_SEGMENT_TO_COPY+0x44c0>
    42b4:	01 00 00 00 	nop 
    42b8:	c2 0f a0 50 	ldub  [ %fp + 0x50 ], %g1
    42bc:	83 28 60 18 	sll  %g1, 0x18, %g1
    42c0:	83 38 60 18 	sra  %g1, 0x18, %g1
    42c4:	80 a0 60 66 	cmp  %g1, 0x66
    42c8:	12 80 00 9e 	bne  4540 <DATA_SEGMENT_TO_COPY+0x44c0>
    42cc:	01 00 00 00 	nop 
    42d0:	86 07 bf e8 	add  %fp, -24, %g3
    42d4:	84 07 bf e4 	add  %fp, -28, %g2
    42d8:	82 07 bf 90 	add  %fp, -112, %g1
    42dc:	d0 1f bf 88 	ldd  [ %fp + -120 ], %o0
    42e0:	d4 07 a0 54 	ld  [ %fp + 0x54 ], %o2
    42e4:	96 10 00 03 	mov  %g3, %o3
    42e8:	98 10 00 02 	mov  %g2, %o4
    42ec:	9a 10 00 01 	mov  %g1, %o5
    42f0:	40 00 06 37 	call  5bcc <DATA_SEGMENT_TO_COPY+0x5b4c>
    42f4:	01 00 00 00 	nop 
    42f8:	d0 27 bf f4 	st  %o0, [ %fp + -12 ]
    42fc:	c2 07 bf e4 	ld  [ %fp + -28 ], %g1
    4300:	80 a0 60 00 	cmp  %g1, 0
    4304:	02 80 00 08 	be  4324 <DATA_SEGMENT_TO_COPY+0x42a4>
    4308:	01 00 00 00 	nop 
    430c:	c2 07 a0 4c 	ld  [ %fp + 0x4c ], %g1
    4310:	84 10 20 2d 	mov  0x2d, %g2
    4314:	c4 28 40 00 	stb  %g2, [ %g1 ]
    4318:	c2 07 a0 4c 	ld  [ %fp + 0x4c ], %g1
    431c:	82 00 60 01 	inc  %g1
    4320:	c2 27 a0 4c 	st  %g1, [ %fp + 0x4c ]
    4324:	c2 07 bf f4 	ld  [ %fp + -12 ], %g1
    4328:	c2 08 40 00 	ldub  [ %g1 ], %g1
    432c:	83 28 60 18 	sll  %g1, 0x18, %g1
    4330:	83 38 60 18 	sra  %g1, 0x18, %g1
    4334:	80 a0 60 00 	cmp  %g1, 0
    4338:	02 80 00 61 	be  44bc <DATA_SEGMENT_TO_COPY+0x443c>
    433c:	01 00 00 00 	nop 
    4340:	c2 07 bf e8 	ld  [ %fp + -24 ], %g1
    4344:	80 a0 60 00 	cmp  %g1, 0
    4348:	14 80 00 35 	bg  441c <DATA_SEGMENT_TO_COPY+0x439c>
    434c:	01 00 00 00 	nop 
    4350:	c2 07 a0 4c 	ld  [ %fp + 0x4c ], %g1
    4354:	84 10 20 30 	mov  0x30, %g2
    4358:	c4 28 40 00 	stb  %g2, [ %g1 ]
    435c:	c2 07 a0 4c 	ld  [ %fp + 0x4c ], %g1
    4360:	82 00 60 01 	inc  %g1
    4364:	c2 27 a0 4c 	st  %g1, [ %fp + 0x4c ]
    4368:	c2 07 a0 4c 	ld  [ %fp + 0x4c ], %g1
    436c:	84 10 20 2e 	mov  0x2e, %g2
    4370:	c4 28 40 00 	stb  %g2, [ %g1 ]
    4374:	c2 07 a0 4c 	ld  [ %fp + 0x4c ], %g1
    4378:	82 00 60 01 	inc  %g1
    437c:	c2 27 a0 4c 	st  %g1, [ %fp + 0x4c ]
    4380:	c0 27 bf f8 	clr  [ %fp + -8 ]
    4384:	10 80 00 0b 	b  43b0 <DATA_SEGMENT_TO_COPY+0x4330>
    4388:	01 00 00 00 	nop 
    438c:	c2 07 a0 4c 	ld  [ %fp + 0x4c ], %g1
    4390:	84 10 20 30 	mov  0x30, %g2
    4394:	c4 28 40 00 	stb  %g2, [ %g1 ]
    4398:	c2 07 a0 4c 	ld  [ %fp + 0x4c ], %g1
    439c:	82 00 60 01 	inc  %g1
    43a0:	c2 27 a0 4c 	st  %g1, [ %fp + 0x4c ]
    43a4:	c2 07 bf f8 	ld  [ %fp + -8 ], %g1
    43a8:	82 00 60 01 	inc  %g1
    43ac:	c2 27 bf f8 	st  %g1, [ %fp + -8 ]
    43b0:	c2 07 bf e8 	ld  [ %fp + -24 ], %g1
    43b4:	84 20 00 01 	neg  %g1, %g2
    43b8:	c2 07 bf f8 	ld  [ %fp + -8 ], %g1
    43bc:	80 a0 80 01 	cmp  %g2, %g1
    43c0:	14 bf ff f3 	bg  438c <DATA_SEGMENT_TO_COPY+0x430c>
    43c4:	01 00 00 00 	nop 
    43c8:	10 80 00 0c 	b  43f8 <DATA_SEGMENT_TO_COPY+0x4378>
    43cc:	01 00 00 00 	nop 
    43d0:	c2 07 bf f4 	ld  [ %fp + -12 ], %g1
    43d4:	c4 08 40 00 	ldub  [ %g1 ], %g2
    43d8:	c2 07 a0 4c 	ld  [ %fp + 0x4c ], %g1
    43dc:	c4 28 40 00 	stb  %g2, [ %g1 ]
    43e0:	c2 07 a0 4c 	ld  [ %fp + 0x4c ], %g1
    43e4:	82 00 60 01 	inc  %g1
    43e8:	c2 27 a0 4c 	st  %g1, [ %fp + 0x4c ]
    43ec:	c2 07 bf f4 	ld  [ %fp + -12 ], %g1
    43f0:	82 00 60 01 	inc  %g1
    43f4:	c2 27 bf f4 	st  %g1, [ %fp + -12 ]
    43f8:	c2 07 bf f4 	ld  [ %fp + -12 ], %g1
    43fc:	c2 08 40 00 	ldub  [ %g1 ], %g1
    4400:	83 28 60 18 	sll  %g1, 0x18, %g1
    4404:	83 38 60 18 	sra  %g1, 0x18, %g1
    4408:	80 a0 60 00 	cmp  %g1, 0
    440c:	12 bf ff f1 	bne  43d0 <DATA_SEGMENT_TO_COPY+0x4350>
    4410:	01 00 00 00 	nop 
    4414:	10 80 00 4b 	b  4540 <DATA_SEGMENT_TO_COPY+0x44c0>
    4418:	01 00 00 00 	nop 
    441c:	c0 27 bf f8 	clr  [ %fp + -8 ]
    4420:	10 80 00 1e 	b  4498 <DATA_SEGMENT_TO_COPY+0x4418>
    4424:	01 00 00 00 	nop 
    4428:	c2 07 bf e8 	ld  [ %fp + -24 ], %g1
    442c:	c4 07 bf f8 	ld  [ %fp + -8 ], %g2
    4430:	82 18 80 01 	xor  %g2, %g1, %g1
    4434:	80 a0 00 01 	cmp  %g0, %g1
    4438:	82 60 3f ff 	subx  %g0, -1, %g1
    443c:	c4 07 bf f8 	ld  [ %fp + -8 ], %g2
    4440:	84 00 a0 01 	inc  %g2
    4444:	c4 27 bf f8 	st  %g2, [ %fp + -8 ]
    4448:	82 08 60 ff 	and  %g1, 0xff, %g1
    444c:	80 a0 60 00 	cmp  %g1, 0
    4450:	02 80 00 08 	be  4470 <DATA_SEGMENT_TO_COPY+0x43f0>
    4454:	01 00 00 00 	nop 
    4458:	c2 07 a0 4c 	ld  [ %fp + 0x4c ], %g1
    445c:	84 10 20 2e 	mov  0x2e, %g2
    4460:	c4 28 40 00 	stb  %g2, [ %g1 ]
    4464:	c2 07 a0 4c 	ld  [ %fp + 0x4c ], %g1
    4468:	82 00 60 01 	inc  %g1
    446c:	c2 27 a0 4c 	st  %g1, [ %fp + 0x4c ]
    4470:	c2 07 bf f4 	ld  [ %fp + -12 ], %g1
    4474:	c4 08 40 00 	ldub  [ %g1 ], %g2
    4478:	c2 07 a0 4c 	ld  [ %fp + 0x4c ], %g1
    447c:	c4 28 40 00 	stb  %g2, [ %g1 ]
    4480:	c2 07 a0 4c 	ld  [ %fp + 0x4c ], %g1
    4484:	82 00 60 01 	inc  %g1
    4488:	c2 27 a0 4c 	st  %g1, [ %fp + 0x4c ]
    448c:	c2 07 bf f4 	ld  [ %fp + -12 ], %g1
    4490:	82 00 60 01 	inc  %g1
    4494:	c2 27 bf f4 	st  %g1, [ %fp + -12 ]
    4498:	c2 07 bf f4 	ld  [ %fp + -12 ], %g1
    449c:	c2 08 40 00 	ldub  [ %g1 ], %g1
    44a0:	83 28 60 18 	sll  %g1, 0x18, %g1
    44a4:	83 38 60 18 	sra  %g1, 0x18, %g1
    44a8:	80 a0 60 00 	cmp  %g1, 0
    44ac:	12 bf ff df 	bne  4428 <DATA_SEGMENT_TO_COPY+0x43a8>
    44b0:	01 00 00 00 	nop 
    44b4:	10 80 00 23 	b  4540 <DATA_SEGMENT_TO_COPY+0x44c0>
    44b8:	01 00 00 00 	nop 
    44bc:	c2 07 a0 4c 	ld  [ %fp + 0x4c ], %g1
    44c0:	84 10 20 30 	mov  0x30, %g2
    44c4:	c4 28 40 00 	stb  %g2, [ %g1 ]
    44c8:	c2 07 a0 4c 	ld  [ %fp + 0x4c ], %g1
    44cc:	82 00 60 01 	inc  %g1
    44d0:	c2 27 a0 4c 	st  %g1, [ %fp + 0x4c ]
    44d4:	c2 07 a0 54 	ld  [ %fp + 0x54 ], %g1
    44d8:	80 a0 60 00 	cmp  %g1, 0
    44dc:	04 80 00 19 	ble  4540 <DATA_SEGMENT_TO_COPY+0x44c0>
    44e0:	01 00 00 00 	nop 
    44e4:	c2 07 a0 4c 	ld  [ %fp + 0x4c ], %g1
    44e8:	84 10 20 2e 	mov  0x2e, %g2
    44ec:	c4 28 40 00 	stb  %g2, [ %g1 ]
    44f0:	c2 07 a0 4c 	ld  [ %fp + 0x4c ], %g1
    44f4:	82 00 60 01 	inc  %g1
    44f8:	c2 27 a0 4c 	st  %g1, [ %fp + 0x4c ]
    44fc:	c0 27 bf f8 	clr  [ %fp + -8 ]
    4500:	10 80 00 0b 	b  452c <DATA_SEGMENT_TO_COPY+0x44ac>
    4504:	01 00 00 00 	nop 
    4508:	c2 07 a0 4c 	ld  [ %fp + 0x4c ], %g1
    450c:	84 10 20 30 	mov  0x30, %g2
    4510:	c4 28 40 00 	stb  %g2, [ %g1 ]
    4514:	c2 07 a0 4c 	ld  [ %fp + 0x4c ], %g1
    4518:	82 00 60 01 	inc  %g1
    451c:	c2 27 a0 4c 	st  %g1, [ %fp + 0x4c ]
    4520:	c2 07 bf f8 	ld  [ %fp + -8 ], %g1
    4524:	82 00 60 01 	inc  %g1
    4528:	c2 27 bf f8 	st  %g1, [ %fp + -8 ]
    452c:	c4 07 bf f8 	ld  [ %fp + -8 ], %g2
    4530:	c2 07 a0 54 	ld  [ %fp + 0x54 ], %g1
    4534:	80 a0 80 01 	cmp  %g2, %g1
    4538:	06 bf ff f4 	bl  4508 <DATA_SEGMENT_TO_COPY+0x4488>
    453c:	01 00 00 00 	nop 
    4540:	c2 07 a0 4c 	ld  [ %fp + 0x4c ], %g1
    4544:	c0 28 40 00 	clrb  [ %g1 ]
    4548:	81 e8 00 00 	restore 
    454c:	81 c3 e0 08 	retl 
    4550:	01 00 00 00 	nop 
    4554:	9d e3 bf 98 	save  %sp, -104, %sp
    4558:	f0 27 a0 44 	st  %i0, [ %fp + 0x44 ]
    455c:	10 80 00 1a 	b  45c4 <DATA_SEGMENT_TO_COPY+0x4544>
    4560:	01 00 00 00 	nop 
    4564:	c2 07 a0 44 	ld  [ %fp + 0x44 ], %g1
    4568:	c2 08 40 00 	ldub  [ %g1 ], %g1
    456c:	83 28 60 18 	sll  %g1, 0x18, %g1
    4570:	83 38 60 18 	sra  %g1, 0x18, %g1
    4574:	80 a0 60 2e 	cmp  %g1, 0x2e
    4578:	02 80 00 48 	be  4698 <DATA_SEGMENT_TO_COPY+0x4618>
    457c:	01 00 00 00 	nop 
    4580:	c2 07 a0 44 	ld  [ %fp + 0x44 ], %g1
    4584:	c2 08 40 00 	ldub  [ %g1 ], %g1
    4588:	83 28 60 18 	sll  %g1, 0x18, %g1
    458c:	83 38 60 18 	sra  %g1, 0x18, %g1
    4590:	80 a0 60 65 	cmp  %g1, 0x65
    4594:	02 80 00 13 	be  45e0 <DATA_SEGMENT_TO_COPY+0x4560>
    4598:	01 00 00 00 	nop 
    459c:	c2 07 a0 44 	ld  [ %fp + 0x44 ], %g1
    45a0:	c2 08 40 00 	ldub  [ %g1 ], %g1
    45a4:	83 28 60 18 	sll  %g1, 0x18, %g1
    45a8:	83 38 60 18 	sra  %g1, 0x18, %g1
    45ac:	80 a0 60 45 	cmp  %g1, 0x45
    45b0:	02 80 00 0c 	be  45e0 <DATA_SEGMENT_TO_COPY+0x4560>
    45b4:	01 00 00 00 	nop 
    45b8:	c2 07 a0 44 	ld  [ %fp + 0x44 ], %g1
    45bc:	82 00 60 01 	inc  %g1
    45c0:	c2 27 a0 44 	st  %g1, [ %fp + 0x44 ]
    45c4:	c2 07 a0 44 	ld  [ %fp + 0x44 ], %g1
    45c8:	c2 08 40 00 	ldub  [ %g1 ], %g1
    45cc:	83 28 60 18 	sll  %g1, 0x18, %g1
    45d0:	83 38 60 18 	sra  %g1, 0x18, %g1
    45d4:	80 a0 60 00 	cmp  %g1, 0
    45d8:	12 bf ff e3 	bne  4564 <DATA_SEGMENT_TO_COPY+0x44e4>
    45dc:	01 00 00 00 	nop 
    45e0:	c2 07 a0 44 	ld  [ %fp + 0x44 ], %g1
    45e4:	c2 08 40 00 	ldub  [ %g1 ], %g1
    45e8:	83 28 60 18 	sll  %g1, 0x18, %g1
    45ec:	83 38 60 18 	sra  %g1, 0x18, %g1
    45f0:	80 a0 60 00 	cmp  %g1, 0
    45f4:	02 80 00 1f 	be  4670 <DATA_SEGMENT_TO_COPY+0x45f0>
    45f8:	01 00 00 00 	nop 
    45fc:	d0 07 a0 44 	ld  [ %fp + 0x44 ], %o0
    4600:	92 10 21 00 	mov  0x100, %o1
    4604:	7f ff fb 03 	call  3210 <DATA_SEGMENT_TO_COPY+0x3190>
    4608:	01 00 00 00 	nop 
    460c:	82 10 00 08 	mov  %o0, %g1
    4610:	c2 27 bf fc 	st  %g1, [ %fp + -4 ]
    4614:	10 80 00 0e 	b  464c <DATA_SEGMENT_TO_COPY+0x45cc>
    4618:	01 00 00 00 	nop 
    461c:	c2 07 bf fc 	ld  [ %fp + -4 ], %g1
    4620:	82 00 60 01 	inc  %g1
    4624:	c4 07 a0 44 	ld  [ %fp + 0x44 ], %g2
    4628:	82 00 80 01 	add  %g2, %g1, %g1
    462c:	c4 07 bf fc 	ld  [ %fp + -4 ], %g2
    4630:	c6 07 a0 44 	ld  [ %fp + 0x44 ], %g3
    4634:	84 00 c0 02 	add  %g3, %g2, %g2
    4638:	c4 08 80 00 	ldub  [ %g2 ], %g2
    463c:	c4 28 40 00 	stb  %g2, [ %g1 ]
    4640:	c2 07 bf fc 	ld  [ %fp + -4 ], %g1
    4644:	82 00 7f ff 	add  %g1, -1, %g1
    4648:	c2 27 bf fc 	st  %g1, [ %fp + -4 ]
    464c:	c2 07 bf fc 	ld  [ %fp + -4 ], %g1
    4650:	80 a0 60 00 	cmp  %g1, 0
    4654:	14 bf ff f2 	bg  461c <DATA_SEGMENT_TO_COPY+0x459c>
    4658:	01 00 00 00 	nop 
    465c:	c2 07 a0 44 	ld  [ %fp + 0x44 ], %g1
    4660:	84 10 20 2e 	mov  0x2e, %g2
    4664:	c4 28 40 00 	stb  %g2, [ %g1 ]
    4668:	10 80 00 0d 	b  469c <DATA_SEGMENT_TO_COPY+0x461c>
    466c:	01 00 00 00 	nop 
    4670:	c2 07 a0 44 	ld  [ %fp + 0x44 ], %g1
    4674:	84 10 20 2e 	mov  0x2e, %g2
    4678:	c4 28 40 00 	stb  %g2, [ %g1 ]
    467c:	c2 07 a0 44 	ld  [ %fp + 0x44 ], %g1
    4680:	82 00 60 01 	inc  %g1
    4684:	c2 27 a0 44 	st  %g1, [ %fp + 0x44 ]
    4688:	c2 07 a0 44 	ld  [ %fp + 0x44 ], %g1
    468c:	c0 28 40 00 	clrb  [ %g1 ]
    4690:	10 80 00 03 	b  469c <DATA_SEGMENT_TO_COPY+0x461c>
    4694:	01 00 00 00 	nop 
    4698:	01 00 00 00 	nop 
    469c:	81 e8 00 00 	restore 
    46a0:	81 c3 e0 08 	retl 
    46a4:	01 00 00 00 	nop 
    46a8:	9d e3 bf 98 	save  %sp, -104, %sp
    46ac:	f0 27 a0 44 	st  %i0, [ %fp + 0x44 ]
    46b0:	10 80 00 05 	b  46c4 <DATA_SEGMENT_TO_COPY+0x4644>
    46b4:	01 00 00 00 	nop 
    46b8:	c2 07 a0 44 	ld  [ %fp + 0x44 ], %g1
    46bc:	82 00 60 01 	inc  %g1
    46c0:	c2 27 a0 44 	st  %g1, [ %fp + 0x44 ]
    46c4:	c2 07 a0 44 	ld  [ %fp + 0x44 ], %g1
    46c8:	c2 08 40 00 	ldub  [ %g1 ], %g1
    46cc:	83 28 60 18 	sll  %g1, 0x18, %g1
    46d0:	83 38 60 18 	sra  %g1, 0x18, %g1
    46d4:	80 a0 60 00 	cmp  %g1, 0
    46d8:	02 80 00 09 	be  46fc <DATA_SEGMENT_TO_COPY+0x467c>
    46dc:	01 00 00 00 	nop 
    46e0:	c2 07 a0 44 	ld  [ %fp + 0x44 ], %g1
    46e4:	c2 08 40 00 	ldub  [ %g1 ], %g1
    46e8:	83 28 60 18 	sll  %g1, 0x18, %g1
    46ec:	83 38 60 18 	sra  %g1, 0x18, %g1
    46f0:	80 a0 60 2e 	cmp  %g1, 0x2e
    46f4:	12 bf ff f1 	bne  46b8 <DATA_SEGMENT_TO_COPY+0x4638>
    46f8:	01 00 00 00 	nop 
    46fc:	c2 07 a0 44 	ld  [ %fp + 0x44 ], %g1
    4700:	c2 08 40 00 	ldub  [ %g1 ], %g1
    4704:	83 28 60 18 	sll  %g1, 0x18, %g1
    4708:	83 38 60 18 	sra  %g1, 0x18, %g1
    470c:	82 18 60 00 	xor  %g1, 0, %g1
    4710:	80 a0 00 01 	cmp  %g0, %g1
    4714:	82 40 20 00 	addx  %g0, 0, %g1
    4718:	c4 07 a0 44 	ld  [ %fp + 0x44 ], %g2
    471c:	84 00 a0 01 	inc  %g2
    4720:	c4 27 a0 44 	st  %g2, [ %fp + 0x44 ]
    4724:	82 08 60 ff 	and  %g1, 0xff, %g1
    4728:	80 a0 60 00 	cmp  %g1, 0
    472c:	02 80 00 43 	be  4838 <DATA_SEGMENT_TO_COPY+0x47b8>
    4730:	01 00 00 00 	nop 
    4734:	10 80 00 05 	b  4748 <DATA_SEGMENT_TO_COPY+0x46c8>
    4738:	01 00 00 00 	nop 
    473c:	c2 07 a0 44 	ld  [ %fp + 0x44 ], %g1
    4740:	82 00 60 01 	inc  %g1
    4744:	c2 27 a0 44 	st  %g1, [ %fp + 0x44 ]
    4748:	c2 07 a0 44 	ld  [ %fp + 0x44 ], %g1
    474c:	c2 08 40 00 	ldub  [ %g1 ], %g1
    4750:	83 28 60 18 	sll  %g1, 0x18, %g1
    4754:	83 38 60 18 	sra  %g1, 0x18, %g1
    4758:	80 a0 60 00 	cmp  %g1, 0
    475c:	02 80 00 10 	be  479c <DATA_SEGMENT_TO_COPY+0x471c>
    4760:	01 00 00 00 	nop 
    4764:	c2 07 a0 44 	ld  [ %fp + 0x44 ], %g1
    4768:	c2 08 40 00 	ldub  [ %g1 ], %g1
    476c:	83 28 60 18 	sll  %g1, 0x18, %g1
    4770:	83 38 60 18 	sra  %g1, 0x18, %g1
    4774:	80 a0 60 65 	cmp  %g1, 0x65
    4778:	02 80 00 09 	be  479c <DATA_SEGMENT_TO_COPY+0x471c>
    477c:	01 00 00 00 	nop 
    4780:	c2 07 a0 44 	ld  [ %fp + 0x44 ], %g1
    4784:	c2 08 40 00 	ldub  [ %g1 ], %g1
    4788:	83 28 60 18 	sll  %g1, 0x18, %g1
    478c:	83 38 60 18 	sra  %g1, 0x18, %g1
    4790:	80 a0 60 45 	cmp  %g1, 0x45
    4794:	12 bf ff ea 	bne  473c <DATA_SEGMENT_TO_COPY+0x46bc>
    4798:	01 00 00 00 	nop 
    479c:	c2 07 a0 44 	ld  [ %fp + 0x44 ], %g1
    47a0:	c2 27 bf fc 	st  %g1, [ %fp + -4 ]
    47a4:	c2 07 a0 44 	ld  [ %fp + 0x44 ], %g1
    47a8:	82 00 7f ff 	add  %g1, -1, %g1
    47ac:	c2 27 a0 44 	st  %g1, [ %fp + 0x44 ]
    47b0:	10 80 00 05 	b  47c4 <DATA_SEGMENT_TO_COPY+0x4744>
    47b4:	01 00 00 00 	nop 
    47b8:	c2 07 a0 44 	ld  [ %fp + 0x44 ], %g1
    47bc:	82 00 7f ff 	add  %g1, -1, %g1
    47c0:	c2 27 a0 44 	st  %g1, [ %fp + 0x44 ]
    47c4:	c2 07 a0 44 	ld  [ %fp + 0x44 ], %g1
    47c8:	c2 08 40 00 	ldub  [ %g1 ], %g1
    47cc:	83 28 60 18 	sll  %g1, 0x18, %g1
    47d0:	83 38 60 18 	sra  %g1, 0x18, %g1
    47d4:	80 a0 60 30 	cmp  %g1, 0x30
    47d8:	02 bf ff f8 	be  47b8 <DATA_SEGMENT_TO_COPY+0x4738>
    47dc:	01 00 00 00 	nop 
    47e0:	c2 07 a0 44 	ld  [ %fp + 0x44 ], %g1
    47e4:	c2 08 40 00 	ldub  [ %g1 ], %g1
    47e8:	83 28 60 18 	sll  %g1, 0x18, %g1
    47ec:	83 38 60 18 	sra  %g1, 0x18, %g1
    47f0:	80 a0 60 2e 	cmp  %g1, 0x2e
    47f4:	12 80 00 0c 	bne  4824 <DATA_SEGMENT_TO_COPY+0x47a4>
    47f8:	01 00 00 00 	nop 
    47fc:	c2 07 a0 44 	ld  [ %fp + 0x44 ], %g1
    4800:	82 00 7f ff 	add  %g1, -1, %g1
    4804:	c2 27 a0 44 	st  %g1, [ %fp + 0x44 ]
    4808:	10 80 00 07 	b  4824 <DATA_SEGMENT_TO_COPY+0x47a4>
    480c:	01 00 00 00 	nop 
    4810:	c2 07 a0 44 	ld  [ %fp + 0x44 ], %g1
    4814:	82 00 60 01 	inc  %g1
    4818:	c2 27 a0 44 	st  %g1, [ %fp + 0x44 ]
    481c:	c2 07 a0 44 	ld  [ %fp + 0x44 ], %g1
    4820:	c0 28 40 00 	clrb  [ %g1 ]
    4824:	c4 07 a0 44 	ld  [ %fp + 0x44 ], %g2
    4828:	c2 07 bf fc 	ld  [ %fp + -4 ], %g1
    482c:	80 a0 80 01 	cmp  %g2, %g1
    4830:	12 bf ff f8 	bne  4810 <DATA_SEGMENT_TO_COPY+0x4790>
    4834:	01 00 00 00 	nop 
    4838:	81 e8 00 00 	restore 
    483c:	81 c3 e0 08 	retl 
    4840:	01 00 00 00 	nop 
    4844:	9d e3 bf 38 	save  %sp, -200, %sp
    4848:	f0 27 a0 44 	st  %i0, [ %fp + 0x44 ]
    484c:	f2 27 bf 98 	st  %i1, [ %fp + -104 ]
    4850:	f4 27 bf 9c 	st  %i2, [ %fp + -100 ]
    4854:	f6 27 a0 50 	st  %i3, [ %fp + 0x50 ]
    4858:	f8 27 a0 54 	st  %i4, [ %fp + 0x54 ]
    485c:	82 10 00 1d 	mov  %i5, %g1
    4860:	c2 2f a0 58 	stb  %g1, [ %fp + 0x58 ]
    4864:	c2 07 a0 5c 	ld  [ %fp + 0x5c ], %g1
    4868:	82 08 60 10 	and  %g1, 0x10, %g1
    486c:	80 a0 60 00 	cmp  %g1, 0
    4870:	02 80 00 05 	be  4884 <DATA_SEGMENT_TO_COPY+0x4804>
    4874:	01 00 00 00 	nop 
    4878:	c2 07 a0 5c 	ld  [ %fp + 0x5c ], %g1
    487c:	82 08 7f fe 	and  %g1, -2, %g1
    4880:	c2 27 a0 5c 	st  %g1, [ %fp + 0x5c ]
    4884:	c2 07 a0 5c 	ld  [ %fp + 0x5c ], %g1
    4888:	82 08 60 01 	and  %g1, 1, %g1
    488c:	80 a0 60 00 	cmp  %g1, 0
    4890:	02 80 00 05 	be  48a4 <DATA_SEGMENT_TO_COPY+0x4824>
    4894:	01 00 00 00 	nop 
    4898:	82 10 20 30 	mov  0x30, %g1	! 30 <_copy_segment_u64>
    489c:	10 80 00 03 	b  48a8 <DATA_SEGMENT_TO_COPY+0x4828>
    48a0:	01 00 00 00 	nop 
    48a4:	82 10 20 20 	mov  0x20, %g1	! 20 <_start+0x20>
    48a8:	c2 2f bf f7 	stb  %g1, [ %fp + -9 ]
    48ac:	c0 2f bf ff 	clrb  [ %fp + -1 ]
    48b0:	c2 07 a0 5c 	ld  [ %fp + 0x5c ], %g1
    48b4:	82 08 60 02 	and  %g1, 2, %g1
    48b8:	80 a0 60 00 	cmp  %g1, 0
    48bc:	02 80 00 2a 	be  4964 <DATA_SEGMENT_TO_COPY+0x48e4>
    48c0:	01 00 00 00 	nop 
    48c4:	d5 1f bf 98 	ldd  [ %fp + -104 ], %f10
    48c8:	03 10 01 00 	sethi  %hi(0x40040000), %g1
    48cc:	82 10 60 58 	or  %g1, 0x58, %g1	! 40040058 <DATA_SEGMENT_TO_COPY+0x4003ffd8>
    48d0:	d1 18 40 00 	ldd  [ %g1 ], %f8
    48d4:	81 aa 8a c8 	fcmped  %f10, %f8
    48d8:	01 00 00 00 	nop 
    48dc:	19 80 00 0c 	fbuge  490c <DATA_SEGMENT_TO_COPY+0x488c>
    48e0:	01 00 00 00 	nop 
    48e4:	82 10 20 2d 	mov  0x2d, %g1	! 2d <_start+0x2d>
    48e8:	c2 2f bf ff 	stb  %g1, [ %fp + -1 ]
    48ec:	d1 1f bf 98 	ldd  [ %fp + -104 ], %f8
    48f0:	91 a0 00 a8 	fnegs  %f8, %f8
    48f4:	d1 3f bf 98 	std  %f8, [ %fp + -104 ]
    48f8:	c2 07 a0 50 	ld  [ %fp + 0x50 ], %g1
    48fc:	82 00 7f ff 	add  %g1, -1, %g1
    4900:	c2 27 a0 50 	st  %g1, [ %fp + 0x50 ]
    4904:	10 80 00 18 	b  4964 <DATA_SEGMENT_TO_COPY+0x48e4>
    4908:	01 00 00 00 	nop 
    490c:	c2 07 a0 5c 	ld  [ %fp + 0x5c ], %g1
    4910:	82 08 60 04 	and  %g1, 4, %g1
    4914:	80 a0 60 00 	cmp  %g1, 0
    4918:	02 80 00 09 	be  493c <DATA_SEGMENT_TO_COPY+0x48bc>
    491c:	01 00 00 00 	nop 
    4920:	82 10 20 2b 	mov  0x2b, %g1	! 2b <_start+0x2b>
    4924:	c2 2f bf ff 	stb  %g1, [ %fp + -1 ]
    4928:	c2 07 a0 50 	ld  [ %fp + 0x50 ], %g1
    492c:	82 00 7f ff 	add  %g1, -1, %g1
    4930:	c2 27 a0 50 	st  %g1, [ %fp + 0x50 ]
    4934:	10 80 00 0c 	b  4964 <DATA_SEGMENT_TO_COPY+0x48e4>
    4938:	01 00 00 00 	nop 
    493c:	c2 07 a0 5c 	ld  [ %fp + 0x5c ], %g1
    4940:	82 08 60 08 	and  %g1, 8, %g1
    4944:	80 a0 60 00 	cmp  %g1, 0
    4948:	02 80 00 07 	be  4964 <DATA_SEGMENT_TO_COPY+0x48e4>
    494c:	01 00 00 00 	nop 
    4950:	82 10 20 20 	mov  0x20, %g1	! 20 <_start+0x20>
    4954:	c2 2f bf ff 	stb  %g1, [ %fp + -1 ]
    4958:	c2 07 a0 50 	ld  [ %fp + 0x50 ], %g1
    495c:	82 00 7f ff 	add  %g1, -1, %g1
    4960:	c2 27 a0 50 	st  %g1, [ %fp + 0x50 ]
    4964:	c2 07 a0 54 	ld  [ %fp + 0x54 ], %g1
    4968:	80 a0 60 00 	cmp  %g1, 0
    496c:	16 80 00 04 	bge  497c <DATA_SEGMENT_TO_COPY+0x48fc>
    4970:	01 00 00 00 	nop 
    4974:	82 10 20 06 	mov  6, %g1	! 6 <_start+0x6>
    4978:	c2 27 a0 54 	st  %g1, [ %fp + 0x54 ]
    497c:	84 07 bf a0 	add  %fp, -96, %g2
    4980:	c2 0f a0 58 	ldub  [ %fp + 0x58 ], %g1
    4984:	83 28 60 18 	sll  %g1, 0x18, %g1
    4988:	83 38 60 18 	sra  %g1, 0x18, %g1
    498c:	d0 1f bf 98 	ldd  [ %fp + -104 ], %o0
    4990:	94 10 00 02 	mov  %g2, %o2
    4994:	96 10 00 01 	mov  %g1, %o3
    4998:	d8 07 a0 54 	ld  [ %fp + 0x54 ], %o4
    499c:	7f ff fd 50 	call  3edc <DATA_SEGMENT_TO_COPY+0x3e5c>
    49a0:	01 00 00 00 	nop 
    49a4:	c2 07 a0 5c 	ld  [ %fp + 0x5c ], %g1
    49a8:	82 08 60 20 	and  %g1, 0x20, %g1
    49ac:	80 a0 60 00 	cmp  %g1, 0
    49b0:	02 80 00 0a 	be  49d8 <DATA_SEGMENT_TO_COPY+0x4958>
    49b4:	01 00 00 00 	nop 
    49b8:	c2 07 a0 54 	ld  [ %fp + 0x54 ], %g1
    49bc:	80 a0 60 00 	cmp  %g1, 0
    49c0:	12 80 00 06 	bne  49d8 <DATA_SEGMENT_TO_COPY+0x4958>
    49c4:	01 00 00 00 	nop 
    49c8:	82 07 bf a0 	add  %fp, -96, %g1
    49cc:	90 10 00 01 	mov  %g1, %o0
    49d0:	7f ff fe e1 	call  4554 <DATA_SEGMENT_TO_COPY+0x44d4>
    49d4:	01 00 00 00 	nop 
    49d8:	c2 0f a0 58 	ldub  [ %fp + 0x58 ], %g1
    49dc:	83 28 60 18 	sll  %g1, 0x18, %g1
    49e0:	83 38 60 18 	sra  %g1, 0x18, %g1
    49e4:	80 a0 60 67 	cmp  %g1, 0x67
    49e8:	12 80 00 0b 	bne  4a14 <DATA_SEGMENT_TO_COPY+0x4994>
    49ec:	01 00 00 00 	nop 
    49f0:	c2 07 a0 5c 	ld  [ %fp + 0x5c ], %g1
    49f4:	82 08 60 20 	and  %g1, 0x20, %g1
    49f8:	80 a0 60 00 	cmp  %g1, 0
    49fc:	12 80 00 06 	bne  4a14 <DATA_SEGMENT_TO_COPY+0x4994>
    4a00:	01 00 00 00 	nop 
    4a04:	82 07 bf a0 	add  %fp, -96, %g1
    4a08:	90 10 00 01 	mov  %g1, %o0
    4a0c:	7f ff ff 27 	call  46a8 <DATA_SEGMENT_TO_COPY+0x4628>
    4a10:	01 00 00 00 	nop 
    4a14:	82 07 bf a0 	add  %fp, -96, %g1
    4a18:	90 10 00 01 	mov  %g1, %o0
    4a1c:	92 10 21 00 	mov  0x100, %o1
    4a20:	7f ff f9 fc 	call  3210 <DATA_SEGMENT_TO_COPY+0x3190>
    4a24:	01 00 00 00 	nop 
    4a28:	82 10 00 08 	mov  %o0, %g1
    4a2c:	c2 27 bf f0 	st  %g1, [ %fp + -16 ]
    4a30:	c4 07 a0 50 	ld  [ %fp + 0x50 ], %g2
    4a34:	c2 07 bf f0 	ld  [ %fp + -16 ], %g1
    4a38:	82 20 80 01 	sub  %g2, %g1, %g1
    4a3c:	c2 27 a0 50 	st  %g1, [ %fp + 0x50 ]
    4a40:	c2 07 a0 5c 	ld  [ %fp + 0x5c ], %g1
    4a44:	82 08 60 11 	and  %g1, 0x11, %g1
    4a48:	80 a0 60 00 	cmp  %g1, 0
    4a4c:	12 80 00 16 	bne  4aa4 <DATA_SEGMENT_TO_COPY+0x4a24>
    4a50:	01 00 00 00 	nop 
    4a54:	10 80 00 08 	b  4a74 <DATA_SEGMENT_TO_COPY+0x49f4>
    4a58:	01 00 00 00 	nop 
    4a5c:	c2 07 a0 44 	ld  [ %fp + 0x44 ], %g1
    4a60:	84 10 20 20 	mov  0x20, %g2
    4a64:	c4 28 40 00 	stb  %g2, [ %g1 ]
    4a68:	c2 07 a0 44 	ld  [ %fp + 0x44 ], %g1
    4a6c:	82 00 60 01 	inc  %g1
    4a70:	c2 27 a0 44 	st  %g1, [ %fp + 0x44 ]
    4a74:	c2 07 a0 50 	ld  [ %fp + 0x50 ], %g1
    4a78:	85 38 60 1f 	sra  %g1, 0x1f, %g2
    4a7c:	c2 07 a0 50 	ld  [ %fp + 0x50 ], %g1
    4a80:	82 20 80 01 	sub  %g2, %g1, %g1
    4a84:	83 30 60 1f 	srl  %g1, 0x1f, %g1
    4a88:	c4 07 a0 50 	ld  [ %fp + 0x50 ], %g2
    4a8c:	84 00 bf ff 	add  %g2, -1, %g2
    4a90:	c4 27 a0 50 	st  %g2, [ %fp + 0x50 ]
    4a94:	82 08 60 ff 	and  %g1, 0xff, %g1
    4a98:	80 a0 60 00 	cmp  %g1, 0
    4a9c:	12 bf ff f0 	bne  4a5c <DATA_SEGMENT_TO_COPY+0x49dc>
    4aa0:	01 00 00 00 	nop 
    4aa4:	c2 0f bf ff 	ldub  [ %fp + -1 ], %g1
    4aa8:	83 28 60 18 	sll  %g1, 0x18, %g1
    4aac:	83 38 60 18 	sra  %g1, 0x18, %g1
    4ab0:	80 a0 60 00 	cmp  %g1, 0
    4ab4:	02 80 00 08 	be  4ad4 <DATA_SEGMENT_TO_COPY+0x4a54>
    4ab8:	01 00 00 00 	nop 
    4abc:	c2 07 a0 44 	ld  [ %fp + 0x44 ], %g1
    4ac0:	c4 0f bf ff 	ldub  [ %fp + -1 ], %g2
    4ac4:	c4 28 40 00 	stb  %g2, [ %g1 ]
    4ac8:	c2 07 a0 44 	ld  [ %fp + 0x44 ], %g1
    4acc:	82 00 60 01 	inc  %g1
    4ad0:	c2 27 a0 44 	st  %g1, [ %fp + 0x44 ]
    4ad4:	c2 07 a0 5c 	ld  [ %fp + 0x5c ], %g1
    4ad8:	82 08 60 10 	and  %g1, 0x10, %g1
    4adc:	80 a0 60 00 	cmp  %g1, 0
    4ae0:	12 80 00 16 	bne  4b38 <DATA_SEGMENT_TO_COPY+0x4ab8>
    4ae4:	01 00 00 00 	nop 
    4ae8:	10 80 00 08 	b  4b08 <DATA_SEGMENT_TO_COPY+0x4a88>
    4aec:	01 00 00 00 	nop 
    4af0:	c2 07 a0 44 	ld  [ %fp + 0x44 ], %g1
    4af4:	c4 0f bf f7 	ldub  [ %fp + -9 ], %g2
    4af8:	c4 28 40 00 	stb  %g2, [ %g1 ]
    4afc:	c2 07 a0 44 	ld  [ %fp + 0x44 ], %g1
    4b00:	82 00 60 01 	inc  %g1
    4b04:	c2 27 a0 44 	st  %g1, [ %fp + 0x44 ]
    4b08:	c2 07 a0 50 	ld  [ %fp + 0x50 ], %g1
    4b0c:	85 38 60 1f 	sra  %g1, 0x1f, %g2
    4b10:	c2 07 a0 50 	ld  [ %fp + 0x50 ], %g1
    4b14:	82 20 80 01 	sub  %g2, %g1, %g1
    4b18:	83 30 60 1f 	srl  %g1, 0x1f, %g1
    4b1c:	c4 07 a0 50 	ld  [ %fp + 0x50 ], %g2
    4b20:	84 00 bf ff 	add  %g2, -1, %g2
    4b24:	c4 27 a0 50 	st  %g2, [ %fp + 0x50 ]
    4b28:	82 08 60 ff 	and  %g1, 0xff, %g1
    4b2c:	80 a0 60 00 	cmp  %g1, 0
    4b30:	12 bf ff f0 	bne  4af0 <DATA_SEGMENT_TO_COPY+0x4a70>
    4b34:	01 00 00 00 	nop 
    4b38:	c0 27 bf f8 	clr  [ %fp + -8 ]
    4b3c:	10 80 00 0d 	b  4b70 <DATA_SEGMENT_TO_COPY+0x4af0>
    4b40:	01 00 00 00 	nop 
    4b44:	c2 07 bf f8 	ld  [ %fp + -8 ], %g1
    4b48:	82 07 80 01 	add  %fp, %g1, %g1
    4b4c:	c4 08 7f a0 	ldub  [ %g1 + -96 ], %g2
    4b50:	c2 07 a0 44 	ld  [ %fp + 0x44 ], %g1
    4b54:	c4 28 40 00 	stb  %g2, [ %g1 ]
    4b58:	c2 07 a0 44 	ld  [ %fp + 0x44 ], %g1
    4b5c:	82 00 60 01 	inc  %g1
    4b60:	c2 27 a0 44 	st  %g1, [ %fp + 0x44 ]
    4b64:	c2 07 bf f8 	ld  [ %fp + -8 ], %g1
    4b68:	82 00 60 01 	inc  %g1
    4b6c:	c2 27 bf f8 	st  %g1, [ %fp + -8 ]
    4b70:	c4 07 bf f8 	ld  [ %fp + -8 ], %g2
    4b74:	c2 07 bf f0 	ld  [ %fp + -16 ], %g1
    4b78:	80 a0 80 01 	cmp  %g2, %g1
    4b7c:	06 bf ff f2 	bl  4b44 <DATA_SEGMENT_TO_COPY+0x4ac4>
    4b80:	01 00 00 00 	nop 
    4b84:	10 80 00 08 	b  4ba4 <DATA_SEGMENT_TO_COPY+0x4b24>
    4b88:	01 00 00 00 	nop 
    4b8c:	c2 07 a0 44 	ld  [ %fp + 0x44 ], %g1
    4b90:	84 10 20 20 	mov  0x20, %g2
    4b94:	c4 28 40 00 	stb  %g2, [ %g1 ]
    4b98:	c2 07 a0 44 	ld  [ %fp + 0x44 ], %g1
    4b9c:	82 00 60 01 	inc  %g1
    4ba0:	c2 27 a0 44 	st  %g1, [ %fp + 0x44 ]
    4ba4:	c2 07 a0 50 	ld  [ %fp + 0x50 ], %g1
    4ba8:	85 38 60 1f 	sra  %g1, 0x1f, %g2
    4bac:	c2 07 a0 50 	ld  [ %fp + 0x50 ], %g1
    4bb0:	82 20 80 01 	sub  %g2, %g1, %g1
    4bb4:	83 30 60 1f 	srl  %g1, 0x1f, %g1
    4bb8:	c4 07 a0 50 	ld  [ %fp + 0x50 ], %g2
    4bbc:	84 00 bf ff 	add  %g2, -1, %g2
    4bc0:	c4 27 a0 50 	st  %g2, [ %fp + 0x50 ]
    4bc4:	82 08 60 ff 	and  %g1, 0xff, %g1
    4bc8:	80 a0 60 00 	cmp  %g1, 0
    4bcc:	12 bf ff f0 	bne  4b8c <DATA_SEGMENT_TO_COPY+0x4b0c>
    4bd0:	01 00 00 00 	nop 
    4bd4:	c2 07 a0 44 	ld  [ %fp + 0x44 ], %g1
    4bd8:	b0 10 00 01 	mov  %g1, %i0
    4bdc:	81 e8 00 00 	restore 
    4be0:	81 c3 e0 08 	retl 
    4be4:	01 00 00 00 	nop 
    4be8:	9d e3 bf 60 	save  %sp, -160, %sp
    4bec:	f0 27 a0 44 	st  %i0, [ %fp + 0x44 ]
    4bf0:	f2 27 a0 48 	st  %i1, [ %fp + 0x48 ]
    4bf4:	f4 27 a0 4c 	st  %i2, [ %fp + 0x4c ]
    4bf8:	c2 07 a0 44 	ld  [ %fp + 0x44 ], %g1
    4bfc:	c2 27 bf f0 	st  %g1, [ %fp + -16 ]
    4c00:	10 80 02 17 	b  545c <DATA_SEGMENT_TO_COPY+0x53dc>
    4c04:	01 00 00 00 	nop 
    4c08:	c2 07 a0 48 	ld  [ %fp + 0x48 ], %g1
    4c0c:	c2 08 40 00 	ldub  [ %g1 ], %g1
    4c10:	83 28 60 18 	sll  %g1, 0x18, %g1
    4c14:	83 38 60 18 	sra  %g1, 0x18, %g1
    4c18:	80 a0 60 25 	cmp  %g1, 0x25
    4c1c:	02 80 00 0b 	be  4c48 <DATA_SEGMENT_TO_COPY+0x4bc8>
    4c20:	01 00 00 00 	nop 
    4c24:	c2 07 a0 48 	ld  [ %fp + 0x48 ], %g1
    4c28:	c4 08 40 00 	ldub  [ %g1 ], %g2
    4c2c:	c2 07 bf f0 	ld  [ %fp + -16 ], %g1
    4c30:	c4 28 40 00 	stb  %g2, [ %g1 ]
    4c34:	c2 07 bf f0 	ld  [ %fp + -16 ], %g1
    4c38:	82 00 60 01 	inc  %g1
    4c3c:	c2 27 bf f0 	st  %g1, [ %fp + -16 ]
    4c40:	10 80 02 04 	b  5450 <DATA_SEGMENT_TO_COPY+0x53d0>
    4c44:	01 00 00 00 	nop 
    4c48:	c0 27 bf e8 	clr  [ %fp + -24 ]
    4c4c:	c2 07 a0 48 	ld  [ %fp + 0x48 ], %g1
    4c50:	82 00 60 01 	inc  %g1
    4c54:	c2 27 a0 48 	st  %g1, [ %fp + 0x48 ]
    4c58:	c2 07 a0 48 	ld  [ %fp + 0x48 ], %g1
    4c5c:	c2 08 40 00 	ldub  [ %g1 ], %g1
    4c60:	83 28 60 18 	sll  %g1, 0x18, %g1
    4c64:	83 38 60 18 	sra  %g1, 0x18, %g1
    4c68:	82 00 7f e0 	add  %g1, -32, %g1
    4c6c:	80 a0 60 10 	cmp  %g1, 0x10
    4c70:	18 80 00 21 	bgu  4cf4 <DATA_SEGMENT_TO_COPY+0x4c74>
    4c74:	01 00 00 00 	nop 
    4c78:	85 28 60 02 	sll  %g1, 2, %g2
    4c7c:	03 10 00 0c 	sethi  %hi(0x40003000), %g1
    4c80:	82 10 61 4c 	or  %g1, 0x14c, %g1	! 4000314c <DATA_SEGMENT_TO_COPY+0x400030cc>
    4c84:	c2 00 80 01 	ld  [ %g2 + %g1 ], %g1
    4c88:	81 c0 40 00 	jmp  %g1
    4c8c:	01 00 00 00 	nop 
    4c90:	c2 07 bf e8 	ld  [ %fp + -24 ], %g1
    4c94:	82 10 60 10 	or  %g1, 0x10, %g1
    4c98:	c2 27 bf e8 	st  %g1, [ %fp + -24 ]
    4c9c:	10 bf ff ec 	b  4c4c <DATA_SEGMENT_TO_COPY+0x4bcc>
    4ca0:	01 00 00 00 	nop 
    4ca4:	c2 07 bf e8 	ld  [ %fp + -24 ], %g1
    4ca8:	82 10 60 04 	or  %g1, 4, %g1
    4cac:	c2 27 bf e8 	st  %g1, [ %fp + -24 ]
    4cb0:	10 bf ff e7 	b  4c4c <DATA_SEGMENT_TO_COPY+0x4bcc>
    4cb4:	01 00 00 00 	nop 
    4cb8:	c2 07 bf e8 	ld  [ %fp + -24 ], %g1
    4cbc:	82 10 60 08 	or  %g1, 8, %g1
    4cc0:	c2 27 bf e8 	st  %g1, [ %fp + -24 ]
    4cc4:	10 bf ff e2 	b  4c4c <DATA_SEGMENT_TO_COPY+0x4bcc>
    4cc8:	01 00 00 00 	nop 
    4ccc:	c2 07 bf e8 	ld  [ %fp + -24 ], %g1
    4cd0:	82 10 60 20 	or  %g1, 0x20, %g1
    4cd4:	c2 27 bf e8 	st  %g1, [ %fp + -24 ]
    4cd8:	10 bf ff dd 	b  4c4c <DATA_SEGMENT_TO_COPY+0x4bcc>
    4cdc:	01 00 00 00 	nop 
    4ce0:	c2 07 bf e8 	ld  [ %fp + -24 ], %g1
    4ce4:	82 10 60 01 	or  %g1, 1, %g1
    4ce8:	c2 27 bf e8 	st  %g1, [ %fp + -24 ]
    4cec:	10 bf ff d8 	b  4c4c <DATA_SEGMENT_TO_COPY+0x4bcc>
    4cf0:	01 00 00 00 	nop 
    4cf4:	82 10 3f ff 	mov  -1, %g1	! ffffffff <DATA_SEGMENT_TO_COPY+0xffffff7f>
    4cf8:	c2 27 bf e4 	st  %g1, [ %fp + -28 ]
    4cfc:	c2 07 a0 48 	ld  [ %fp + 0x48 ], %g1
    4d00:	c2 08 40 00 	ldub  [ %g1 ], %g1
    4d04:	83 28 60 18 	sll  %g1, 0x18, %g1
    4d08:	83 38 60 18 	sra  %g1, 0x18, %g1
    4d0c:	80 a0 60 2f 	cmp  %g1, 0x2f
    4d10:	04 80 00 10 	ble  4d50 <DATA_SEGMENT_TO_COPY+0x4cd0>
    4d14:	01 00 00 00 	nop 
    4d18:	c2 07 a0 48 	ld  [ %fp + 0x48 ], %g1
    4d1c:	c2 08 40 00 	ldub  [ %g1 ], %g1
    4d20:	83 28 60 18 	sll  %g1, 0x18, %g1
    4d24:	83 38 60 18 	sra  %g1, 0x18, %g1
    4d28:	80 a0 60 39 	cmp  %g1, 0x39
    4d2c:	14 80 00 09 	bg  4d50 <DATA_SEGMENT_TO_COPY+0x4cd0>
    4d30:	01 00 00 00 	nop 
    4d34:	82 07 a0 48 	add  %fp, 0x48, %g1
    4d38:	90 10 00 01 	mov  %g1, %o0
    4d3c:	7f ff f9 58 	call  329c <DATA_SEGMENT_TO_COPY+0x321c>
    4d40:	01 00 00 00 	nop 
    4d44:	d0 27 bf e4 	st  %o0, [ %fp + -28 ]
    4d48:	10 80 00 1c 	b  4db8 <DATA_SEGMENT_TO_COPY+0x4d38>
    4d4c:	01 00 00 00 	nop 
    4d50:	c2 07 a0 48 	ld  [ %fp + 0x48 ], %g1
    4d54:	c2 08 40 00 	ldub  [ %g1 ], %g1
    4d58:	83 28 60 18 	sll  %g1, 0x18, %g1
    4d5c:	83 38 60 18 	sra  %g1, 0x18, %g1
    4d60:	80 a0 60 2a 	cmp  %g1, 0x2a
    4d64:	12 80 00 15 	bne  4db8 <DATA_SEGMENT_TO_COPY+0x4d38>
    4d68:	01 00 00 00 	nop 
    4d6c:	c2 07 a0 48 	ld  [ %fp + 0x48 ], %g1
    4d70:	82 00 60 01 	inc  %g1
    4d74:	c2 27 a0 48 	st  %g1, [ %fp + 0x48 ]
    4d78:	c2 07 a0 4c 	ld  [ %fp + 0x4c ], %g1
    4d7c:	c2 00 40 00 	ld  [ %g1 ], %g1
    4d80:	c2 27 bf e4 	st  %g1, [ %fp + -28 ]
    4d84:	c2 07 a0 4c 	ld  [ %fp + 0x4c ], %g1
    4d88:	82 00 60 04 	add  %g1, 4, %g1
    4d8c:	c2 27 a0 4c 	st  %g1, [ %fp + 0x4c ]
    4d90:	c2 07 bf e4 	ld  [ %fp + -28 ], %g1
    4d94:	80 a0 60 00 	cmp  %g1, 0
    4d98:	16 80 00 08 	bge  4db8 <DATA_SEGMENT_TO_COPY+0x4d38>
    4d9c:	01 00 00 00 	nop 
    4da0:	c2 07 bf e4 	ld  [ %fp + -28 ], %g1
    4da4:	82 20 00 01 	neg  %g1
    4da8:	c2 27 bf e4 	st  %g1, [ %fp + -28 ]
    4dac:	c2 07 bf e8 	ld  [ %fp + -24 ], %g1
    4db0:	82 10 60 10 	or  %g1, 0x10, %g1
    4db4:	c2 27 bf e8 	st  %g1, [ %fp + -24 ]
    4db8:	82 10 3f ff 	mov  -1, %g1
    4dbc:	c2 27 bf e0 	st  %g1, [ %fp + -32 ]
    4dc0:	c2 07 a0 48 	ld  [ %fp + 0x48 ], %g1
    4dc4:	c2 08 40 00 	ldub  [ %g1 ], %g1
    4dc8:	83 28 60 18 	sll  %g1, 0x18, %g1
    4dcc:	83 38 60 18 	sra  %g1, 0x18, %g1
    4dd0:	80 a0 60 2e 	cmp  %g1, 0x2e
    4dd4:	12 80 00 2f 	bne  4e90 <DATA_SEGMENT_TO_COPY+0x4e10>
    4dd8:	01 00 00 00 	nop 
    4ddc:	c2 07 a0 48 	ld  [ %fp + 0x48 ], %g1
    4de0:	82 00 60 01 	inc  %g1
    4de4:	c2 27 a0 48 	st  %g1, [ %fp + 0x48 ]
    4de8:	c2 07 a0 48 	ld  [ %fp + 0x48 ], %g1
    4dec:	c2 08 40 00 	ldub  [ %g1 ], %g1
    4df0:	83 28 60 18 	sll  %g1, 0x18, %g1
    4df4:	83 38 60 18 	sra  %g1, 0x18, %g1
    4df8:	80 a0 60 2f 	cmp  %g1, 0x2f
    4dfc:	04 80 00 10 	ble  4e3c <DATA_SEGMENT_TO_COPY+0x4dbc>
    4e00:	01 00 00 00 	nop 
    4e04:	c2 07 a0 48 	ld  [ %fp + 0x48 ], %g1
    4e08:	c2 08 40 00 	ldub  [ %g1 ], %g1
    4e0c:	83 28 60 18 	sll  %g1, 0x18, %g1
    4e10:	83 38 60 18 	sra  %g1, 0x18, %g1
    4e14:	80 a0 60 39 	cmp  %g1, 0x39
    4e18:	14 80 00 09 	bg  4e3c <DATA_SEGMENT_TO_COPY+0x4dbc>
    4e1c:	01 00 00 00 	nop 
    4e20:	82 07 a0 48 	add  %fp, 0x48, %g1
    4e24:	90 10 00 01 	mov  %g1, %o0
    4e28:	7f ff f9 1d 	call  329c <DATA_SEGMENT_TO_COPY+0x321c>
    4e2c:	01 00 00 00 	nop 
    4e30:	d0 27 bf e0 	st  %o0, [ %fp + -32 ]
    4e34:	10 80 00 12 	b  4e7c <DATA_SEGMENT_TO_COPY+0x4dfc>
    4e38:	01 00 00 00 	nop 
    4e3c:	c2 07 a0 48 	ld  [ %fp + 0x48 ], %g1
    4e40:	c2 08 40 00 	ldub  [ %g1 ], %g1
    4e44:	83 28 60 18 	sll  %g1, 0x18, %g1
    4e48:	83 38 60 18 	sra  %g1, 0x18, %g1
    4e4c:	80 a0 60 2a 	cmp  %g1, 0x2a
    4e50:	12 80 00 0b 	bne  4e7c <DATA_SEGMENT_TO_COPY+0x4dfc>
    4e54:	01 00 00 00 	nop 
    4e58:	c2 07 a0 48 	ld  [ %fp + 0x48 ], %g1
    4e5c:	82 00 60 01 	inc  %g1
    4e60:	c2 27 a0 48 	st  %g1, [ %fp + 0x48 ]
    4e64:	c2 07 a0 4c 	ld  [ %fp + 0x4c ], %g1
    4e68:	c2 00 40 00 	ld  [ %g1 ], %g1
    4e6c:	c2 27 bf e0 	st  %g1, [ %fp + -32 ]
    4e70:	c2 07 a0 4c 	ld  [ %fp + 0x4c ], %g1
    4e74:	82 00 60 04 	add  %g1, 4, %g1
    4e78:	c2 27 a0 4c 	st  %g1, [ %fp + 0x4c ]
    4e7c:	c2 07 bf e0 	ld  [ %fp + -32 ], %g1
    4e80:	80 a0 60 00 	cmp  %g1, 0
    4e84:	16 80 00 03 	bge  4e90 <DATA_SEGMENT_TO_COPY+0x4e10>
    4e88:	01 00 00 00 	nop 
    4e8c:	c0 27 bf e0 	clr  [ %fp + -32 ]
    4e90:	82 10 3f ff 	mov  -1, %g1
    4e94:	c2 27 bf dc 	st  %g1, [ %fp + -36 ]
    4e98:	c2 07 a0 48 	ld  [ %fp + 0x48 ], %g1
    4e9c:	c2 08 40 00 	ldub  [ %g1 ], %g1
    4ea0:	83 28 60 18 	sll  %g1, 0x18, %g1
    4ea4:	83 38 60 18 	sra  %g1, 0x18, %g1
    4ea8:	80 a0 60 6c 	cmp  %g1, 0x6c
    4eac:	02 80 00 09 	be  4ed0 <DATA_SEGMENT_TO_COPY+0x4e50>
    4eb0:	01 00 00 00 	nop 
    4eb4:	c2 07 a0 48 	ld  [ %fp + 0x48 ], %g1
    4eb8:	c2 08 40 00 	ldub  [ %g1 ], %g1
    4ebc:	83 28 60 18 	sll  %g1, 0x18, %g1
    4ec0:	83 38 60 18 	sra  %g1, 0x18, %g1
    4ec4:	80 a0 60 4c 	cmp  %g1, 0x4c
    4ec8:	12 80 00 0a 	bne  4ef0 <DATA_SEGMENT_TO_COPY+0x4e70>
    4ecc:	01 00 00 00 	nop 
    4ed0:	c2 07 a0 48 	ld  [ %fp + 0x48 ], %g1
    4ed4:	c2 08 40 00 	ldub  [ %g1 ], %g1
    4ed8:	83 28 60 18 	sll  %g1, 0x18, %g1
    4edc:	83 38 60 18 	sra  %g1, 0x18, %g1
    4ee0:	c2 27 bf dc 	st  %g1, [ %fp + -36 ]
    4ee4:	c2 07 a0 48 	ld  [ %fp + 0x48 ], %g1
    4ee8:	82 00 60 01 	inc  %g1
    4eec:	c2 27 a0 48 	st  %g1, [ %fp + 0x48 ]
    4ef0:	82 10 20 0a 	mov  0xa, %g1
    4ef4:	c2 27 bf f4 	st  %g1, [ %fp + -12 ]
    4ef8:	c2 07 a0 48 	ld  [ %fp + 0x48 ], %g1
    4efc:	c2 08 40 00 	ldub  [ %g1 ], %g1
    4f00:	83 28 60 18 	sll  %g1, 0x18, %g1
    4f04:	83 38 60 18 	sra  %g1, 0x18, %g1
    4f08:	82 00 7f bf 	add  %g1, -65, %g1
    4f0c:	80 a0 60 37 	cmp  %g1, 0x37
    4f10:	18 80 01 04 	bgu  5320 <DATA_SEGMENT_TO_COPY+0x52a0>
    4f14:	01 00 00 00 	nop 
    4f18:	85 28 60 02 	sll  %g1, 2, %g2
    4f1c:	03 10 00 0c 	sethi  %hi(0x40003000), %g1
    4f20:	82 10 60 6c 	or  %g1, 0x6c, %g1	! 4000306c <DATA_SEGMENT_TO_COPY+0x40002fec>
    4f24:	c2 00 80 01 	ld  [ %g2 + %g1 ], %g1
    4f28:	81 c0 40 00 	jmp  %g1
    4f2c:	01 00 00 00 	nop 
    4f30:	c2 07 bf e8 	ld  [ %fp + -24 ], %g1
    4f34:	82 08 60 10 	and  %g1, 0x10, %g1
    4f38:	80 a0 60 00 	cmp  %g1, 0
    4f3c:	12 80 00 11 	bne  4f80 <DATA_SEGMENT_TO_COPY+0x4f00>
    4f40:	01 00 00 00 	nop 
    4f44:	10 80 00 08 	b  4f64 <DATA_SEGMENT_TO_COPY+0x4ee4>
    4f48:	01 00 00 00 	nop 
    4f4c:	c2 07 bf f0 	ld  [ %fp + -16 ], %g1
    4f50:	84 10 20 20 	mov  0x20, %g2
    4f54:	c4 28 40 00 	stb  %g2, [ %g1 ]
    4f58:	c2 07 bf f0 	ld  [ %fp + -16 ], %g1
    4f5c:	82 00 60 01 	inc  %g1
    4f60:	c2 27 bf f0 	st  %g1, [ %fp + -16 ]
    4f64:	c2 07 bf e4 	ld  [ %fp + -28 ], %g1
    4f68:	82 00 7f ff 	add  %g1, -1, %g1
    4f6c:	c2 27 bf e4 	st  %g1, [ %fp + -28 ]
    4f70:	c2 07 bf e4 	ld  [ %fp + -28 ], %g1
    4f74:	80 a0 60 00 	cmp  %g1, 0
    4f78:	14 bf ff f5 	bg  4f4c <DATA_SEGMENT_TO_COPY+0x4ecc>
    4f7c:	01 00 00 00 	nop 
    4f80:	c2 07 a0 4c 	ld  [ %fp + 0x4c ], %g1
    4f84:	c2 00 40 00 	ld  [ %g1 ], %g1
    4f88:	84 10 00 01 	mov  %g1, %g2
    4f8c:	c2 07 bf f0 	ld  [ %fp + -16 ], %g1
    4f90:	c4 28 40 00 	stb  %g2, [ %g1 ]
    4f94:	c2 07 bf f0 	ld  [ %fp + -16 ], %g1
    4f98:	82 00 60 01 	inc  %g1
    4f9c:	c2 27 bf f0 	st  %g1, [ %fp + -16 ]
    4fa0:	c2 07 a0 4c 	ld  [ %fp + 0x4c ], %g1
    4fa4:	82 00 60 04 	add  %g1, 4, %g1
    4fa8:	c2 27 a0 4c 	st  %g1, [ %fp + 0x4c ]
    4fac:	10 80 00 08 	b  4fcc <DATA_SEGMENT_TO_COPY+0x4f4c>
    4fb0:	01 00 00 00 	nop 
    4fb4:	c2 07 bf f0 	ld  [ %fp + -16 ], %g1
    4fb8:	84 10 20 20 	mov  0x20, %g2
    4fbc:	c4 28 40 00 	stb  %g2, [ %g1 ]
    4fc0:	c2 07 bf f0 	ld  [ %fp + -16 ], %g1
    4fc4:	82 00 60 01 	inc  %g1
    4fc8:	c2 27 bf f0 	st  %g1, [ %fp + -16 ]
    4fcc:	c2 07 bf e4 	ld  [ %fp + -28 ], %g1
    4fd0:	82 00 7f ff 	add  %g1, -1, %g1
    4fd4:	c2 27 bf e4 	st  %g1, [ %fp + -28 ]
    4fd8:	c2 07 bf e4 	ld  [ %fp + -28 ], %g1
    4fdc:	80 a0 60 00 	cmp  %g1, 0
    4fe0:	14 bf ff f5 	bg  4fb4 <DATA_SEGMENT_TO_COPY+0x4f34>
    4fe4:	01 00 00 00 	nop 
    4fe8:	10 80 01 1a 	b  5450 <DATA_SEGMENT_TO_COPY+0x53d0>
    4fec:	01 00 00 00 	nop 
    4ff0:	c2 07 a0 4c 	ld  [ %fp + 0x4c ], %g1
    4ff4:	c2 00 40 00 	ld  [ %g1 ], %g1
    4ff8:	c2 27 bf ec 	st  %g1, [ %fp + -20 ]
    4ffc:	c2 07 a0 4c 	ld  [ %fp + 0x4c ], %g1
    5000:	82 00 60 04 	add  %g1, 4, %g1
    5004:	c2 27 a0 4c 	st  %g1, [ %fp + 0x4c ]
    5008:	c2 07 bf ec 	ld  [ %fp + -20 ], %g1
    500c:	80 a0 60 00 	cmp  %g1, 0
    5010:	12 80 00 05 	bne  5024 <DATA_SEGMENT_TO_COPY+0x4fa4>
    5014:	01 00 00 00 	nop 
    5018:	03 10 01 00 	sethi  %hi(0x40040000), %g1
    501c:	82 10 60 60 	or  %g1, 0x60, %g1	! 40040060 <DATA_SEGMENT_TO_COPY+0x4003ffe0>
    5020:	c2 27 bf ec 	st  %g1, [ %fp + -20 ]
    5024:	c2 07 bf e0 	ld  [ %fp + -32 ], %g1
    5028:	d0 07 bf ec 	ld  [ %fp + -20 ], %o0
    502c:	92 10 00 01 	mov  %g1, %o1
    5030:	7f ff f8 78 	call  3210 <DATA_SEGMENT_TO_COPY+0x3190>
    5034:	01 00 00 00 	nop 
    5038:	82 10 00 08 	mov  %o0, %g1
    503c:	c2 27 bf d8 	st  %g1, [ %fp + -40 ]
    5040:	c2 07 bf e8 	ld  [ %fp + -24 ], %g1
    5044:	82 08 60 10 	and  %g1, 0x10, %g1
    5048:	80 a0 60 00 	cmp  %g1, 0
    504c:	12 80 00 18 	bne  50ac <DATA_SEGMENT_TO_COPY+0x502c>
    5050:	01 00 00 00 	nop 
    5054:	10 80 00 08 	b  5074 <DATA_SEGMENT_TO_COPY+0x4ff4>
    5058:	01 00 00 00 	nop 
    505c:	c2 07 bf f0 	ld  [ %fp + -16 ], %g1
    5060:	84 10 20 20 	mov  0x20, %g2
    5064:	c4 28 40 00 	stb  %g2, [ %g1 ]
    5068:	c2 07 bf f0 	ld  [ %fp + -16 ], %g1
    506c:	82 00 60 01 	inc  %g1
    5070:	c2 27 bf f0 	st  %g1, [ %fp + -16 ]
    5074:	82 10 20 01 	mov  1, %g1
    5078:	c6 07 bf e4 	ld  [ %fp + -28 ], %g3
    507c:	c4 07 bf d8 	ld  [ %fp + -40 ], %g2
    5080:	80 a0 c0 02 	cmp  %g3, %g2
    5084:	14 80 00 03 	bg  5090 <DATA_SEGMENT_TO_COPY+0x5010>
    5088:	01 00 00 00 	nop 
    508c:	82 10 20 00 	clr  %g1	! 0 <_start>
    5090:	c4 07 bf e4 	ld  [ %fp + -28 ], %g2
    5094:	84 00 bf ff 	add  %g2, -1, %g2
    5098:	c4 27 bf e4 	st  %g2, [ %fp + -28 ]
    509c:	82 08 60 ff 	and  %g1, 0xff, %g1
    50a0:	80 a0 60 00 	cmp  %g1, 0
    50a4:	12 bf ff ee 	bne  505c <DATA_SEGMENT_TO_COPY+0x4fdc>
    50a8:	01 00 00 00 	nop 
    50ac:	c0 27 bf f8 	clr  [ %fp + -8 ]
    50b0:	10 80 00 0f 	b  50ec <DATA_SEGMENT_TO_COPY+0x506c>
    50b4:	01 00 00 00 	nop 
    50b8:	c2 07 bf ec 	ld  [ %fp + -20 ], %g1
    50bc:	c4 08 40 00 	ldub  [ %g1 ], %g2
    50c0:	c2 07 bf f0 	ld  [ %fp + -16 ], %g1
    50c4:	c4 28 40 00 	stb  %g2, [ %g1 ]
    50c8:	c2 07 bf f0 	ld  [ %fp + -16 ], %g1
    50cc:	82 00 60 01 	inc  %g1
    50d0:	c2 27 bf f0 	st  %g1, [ %fp + -16 ]
    50d4:	c2 07 bf ec 	ld  [ %fp + -20 ], %g1
    50d8:	82 00 60 01 	inc  %g1
    50dc:	c2 27 bf ec 	st  %g1, [ %fp + -20 ]
    50e0:	c2 07 bf f8 	ld  [ %fp + -8 ], %g1
    50e4:	82 00 60 01 	inc  %g1
    50e8:	c2 27 bf f8 	st  %g1, [ %fp + -8 ]
    50ec:	c4 07 bf f8 	ld  [ %fp + -8 ], %g2
    50f0:	c2 07 bf d8 	ld  [ %fp + -40 ], %g1
    50f4:	80 a0 80 01 	cmp  %g2, %g1
    50f8:	06 bf ff f0 	bl  50b8 <DATA_SEGMENT_TO_COPY+0x5038>
    50fc:	01 00 00 00 	nop 
    5100:	10 80 00 08 	b  5120 <DATA_SEGMENT_TO_COPY+0x50a0>
    5104:	01 00 00 00 	nop 
    5108:	c2 07 bf f0 	ld  [ %fp + -16 ], %g1
    510c:	84 10 20 20 	mov  0x20, %g2
    5110:	c4 28 40 00 	stb  %g2, [ %g1 ]
    5114:	c2 07 bf f0 	ld  [ %fp + -16 ], %g1
    5118:	82 00 60 01 	inc  %g1
    511c:	c2 27 bf f0 	st  %g1, [ %fp + -16 ]
    5120:	82 10 20 01 	mov  1, %g1
    5124:	c6 07 bf e4 	ld  [ %fp + -28 ], %g3
    5128:	c4 07 bf d8 	ld  [ %fp + -40 ], %g2
    512c:	80 a0 c0 02 	cmp  %g3, %g2
    5130:	14 80 00 03 	bg  513c <DATA_SEGMENT_TO_COPY+0x50bc>
    5134:	01 00 00 00 	nop 
    5138:	82 10 20 00 	clr  %g1	! 0 <_start>
    513c:	c4 07 bf e4 	ld  [ %fp + -28 ], %g2
    5140:	84 00 bf ff 	add  %g2, -1, %g2
    5144:	c4 27 bf e4 	st  %g2, [ %fp + -28 ]
    5148:	82 08 60 ff 	and  %g1, 0xff, %g1
    514c:	80 a0 60 00 	cmp  %g1, 0
    5150:	12 bf ff ee 	bne  5108 <DATA_SEGMENT_TO_COPY+0x5088>
    5154:	01 00 00 00 	nop 
    5158:	10 80 00 be 	b  5450 <DATA_SEGMENT_TO_COPY+0x53d0>
    515c:	01 00 00 00 	nop 
    5160:	c2 07 bf e4 	ld  [ %fp + -28 ], %g1
    5164:	80 a0 7f ff 	cmp  %g1, -1
    5168:	12 80 00 07 	bne  5184 <DATA_SEGMENT_TO_COPY+0x5104>
    516c:	01 00 00 00 	nop 
    5170:	82 10 20 08 	mov  8, %g1	! 8 <_start+0x8>
    5174:	c2 27 bf e4 	st  %g1, [ %fp + -28 ]
    5178:	c2 07 bf e8 	ld  [ %fp + -24 ], %g1
    517c:	82 10 60 01 	or  %g1, 1, %g1
    5180:	c2 27 bf e8 	st  %g1, [ %fp + -24 ]
    5184:	c2 07 a0 4c 	ld  [ %fp + 0x4c ], %g1
    5188:	c2 00 40 00 	ld  [ %g1 ], %g1
    518c:	c4 07 a0 4c 	ld  [ %fp + 0x4c ], %g2
    5190:	84 00 a0 04 	add  %g2, 4, %g2
    5194:	c4 27 a0 4c 	st  %g2, [ %fp + 0x4c ]
    5198:	d0 07 bf f0 	ld  [ %fp + -16 ], %o0
    519c:	92 10 00 01 	mov  %g1, %o1
    51a0:	94 10 20 10 	mov  0x10, %o2
    51a4:	d6 07 bf e4 	ld  [ %fp + -28 ], %o3
    51a8:	d8 07 bf e0 	ld  [ %fp + -32 ], %o4
    51ac:	da 07 bf e8 	ld  [ %fp + -24 ], %o5
    51b0:	7f ff f8 64 	call  3340 <DATA_SEGMENT_TO_COPY+0x32c0>
    51b4:	01 00 00 00 	nop 
    51b8:	d0 27 bf f0 	st  %o0, [ %fp + -16 ]
    51bc:	10 80 00 a5 	b  5450 <DATA_SEGMENT_TO_COPY+0x53d0>
    51c0:	01 00 00 00 	nop 
    51c4:	c2 07 bf e8 	ld  [ %fp + -24 ], %g1
    51c8:	82 10 60 40 	or  %g1, 0x40, %g1
    51cc:	c2 27 bf e8 	st  %g1, [ %fp + -24 ]
    51d0:	c2 07 bf dc 	ld  [ %fp + -36 ], %g1
    51d4:	80 a0 60 6c 	cmp  %g1, 0x6c
    51d8:	12 80 00 11 	bne  521c <DATA_SEGMENT_TO_COPY+0x519c>
    51dc:	01 00 00 00 	nop 
    51e0:	c2 07 a0 4c 	ld  [ %fp + 0x4c ], %g1
    51e4:	c2 00 40 00 	ld  [ %g1 ], %g1
    51e8:	c4 07 a0 4c 	ld  [ %fp + 0x4c ], %g2
    51ec:	84 00 a0 04 	add  %g2, 4, %g2
    51f0:	c4 27 a0 4c 	st  %g2, [ %fp + 0x4c ]
    51f4:	d0 07 bf f0 	ld  [ %fp + -16 ], %o0
    51f8:	92 10 00 01 	mov  %g1, %o1
    51fc:	d4 07 bf e4 	ld  [ %fp + -28 ], %o2
    5200:	d6 07 bf e0 	ld  [ %fp + -32 ], %o3
    5204:	d8 07 bf e8 	ld  [ %fp + -24 ], %o4
    5208:	7f ff f9 9f 	call  3884 <DATA_SEGMENT_TO_COPY+0x3804>
    520c:	01 00 00 00 	nop 
    5210:	d0 27 bf f0 	st  %o0, [ %fp + -16 ]
    5214:	10 80 00 8f 	b  5450 <DATA_SEGMENT_TO_COPY+0x53d0>
    5218:	01 00 00 00 	nop 
    521c:	c2 07 a0 4c 	ld  [ %fp + 0x4c ], %g1
    5220:	c2 00 40 00 	ld  [ %g1 ], %g1
    5224:	c4 07 a0 4c 	ld  [ %fp + 0x4c ], %g2
    5228:	84 00 a0 04 	add  %g2, 4, %g2
    522c:	c4 27 a0 4c 	st  %g2, [ %fp + 0x4c ]
    5230:	d0 07 bf f0 	ld  [ %fp + -16 ], %o0
    5234:	92 10 00 01 	mov  %g1, %o1
    5238:	d4 07 bf e4 	ld  [ %fp + -28 ], %o2
    523c:	d6 07 bf e0 	ld  [ %fp + -32 ], %o3
    5240:	d8 07 bf e8 	ld  [ %fp + -24 ], %o4
    5244:	7f ff fa 21 	call  3ac8 <DATA_SEGMENT_TO_COPY+0x3a48>
    5248:	01 00 00 00 	nop 
    524c:	d0 27 bf f0 	st  %o0, [ %fp + -16 ]
    5250:	10 80 00 80 	b  5450 <DATA_SEGMENT_TO_COPY+0x53d0>
    5254:	01 00 00 00 	nop 
    5258:	82 10 20 08 	mov  8, %g1	! 8 <_start+0x8>
    525c:	c2 27 bf f4 	st  %g1, [ %fp + -12 ]
    5260:	10 80 00 53 	b  53ac <DATA_SEGMENT_TO_COPY+0x532c>
    5264:	01 00 00 00 	nop 
    5268:	c2 07 bf e8 	ld  [ %fp + -24 ], %g1
    526c:	82 10 60 40 	or  %g1, 0x40, %g1
    5270:	c2 27 bf e8 	st  %g1, [ %fp + -24 ]
    5274:	82 10 20 10 	mov  0x10, %g1
    5278:	c2 27 bf f4 	st  %g1, [ %fp + -12 ]
    527c:	10 80 00 4c 	b  53ac <DATA_SEGMENT_TO_COPY+0x532c>
    5280:	01 00 00 00 	nop 
    5284:	c2 07 bf e8 	ld  [ %fp + -24 ], %g1
    5288:	82 10 60 02 	or  %g1, 2, %g1
    528c:	c2 27 bf e8 	st  %g1, [ %fp + -24 ]
    5290:	10 80 00 46 	b  53a8 <DATA_SEGMENT_TO_COPY+0x5328>
    5294:	01 00 00 00 	nop 
    5298:	84 07 bf d0 	add  %fp, -48, %g2
    529c:	c2 07 a0 4c 	ld  [ %fp + 0x4c ], %g1
    52a0:	86 10 00 02 	mov  %g2, %g3
    52a4:	84 10 00 01 	mov  %g1, %g2
    52a8:	82 10 20 08 	mov  8, %g1
    52ac:	90 10 00 03 	mov  %g3, %o0
    52b0:	92 10 00 02 	mov  %g2, %o1
    52b4:	94 10 00 01 	mov  %g1, %o2
    52b8:	40 00 0a 00 	call  7ab8 <DATA_SEGMENT_TO_COPY+0x7a38>
    52bc:	01 00 00 00 	nop 
    52c0:	d1 1f bf d0 	ldd  [ %fp + -48 ], %f8
    52c4:	c2 07 a0 4c 	ld  [ %fp + 0x4c ], %g1
    52c8:	82 00 60 08 	add  %g1, 8, %g1
    52cc:	c2 27 a0 4c 	st  %g1, [ %fp + 0x4c ]
    52d0:	c2 07 a0 48 	ld  [ %fp + 0x48 ], %g1
    52d4:	c2 08 40 00 	ldub  [ %g1 ], %g1
    52d8:	c4 07 bf e8 	ld  [ %fp + -24 ], %g2
    52dc:	84 10 a0 02 	or  %g2, 2, %g2
    52e0:	83 28 60 18 	sll  %g1, 0x18, %g1
    52e4:	83 38 60 18 	sra  %g1, 0x18, %g1
    52e8:	c4 23 a0 5c 	st  %g2, [ %sp + 0x5c ]
    52ec:	d0 07 bf f0 	ld  [ %fp + -16 ], %o0
    52f0:	d1 3f bf c8 	std  %f8, [ %fp + -56 ]
    52f4:	c4 1f bf c8 	ldd  [ %fp + -56 ], %g2
    52f8:	92 10 00 02 	mov  %g2, %o1
    52fc:	94 10 00 03 	mov  %g3, %o2
    5300:	d6 07 bf e4 	ld  [ %fp + -28 ], %o3
    5304:	d8 07 bf e0 	ld  [ %fp + -32 ], %o4
    5308:	9a 10 00 01 	mov  %g1, %o5
    530c:	7f ff fd 4e 	call  4844 <DATA_SEGMENT_TO_COPY+0x47c4>
    5310:	01 00 00 00 	nop 
    5314:	d0 27 bf f0 	st  %o0, [ %fp + -16 ]
    5318:	10 80 00 4e 	b  5450 <DATA_SEGMENT_TO_COPY+0x53d0>
    531c:	01 00 00 00 	nop 
    5320:	c2 07 a0 48 	ld  [ %fp + 0x48 ], %g1
    5324:	c2 08 40 00 	ldub  [ %g1 ], %g1
    5328:	83 28 60 18 	sll  %g1, 0x18, %g1
    532c:	83 38 60 18 	sra  %g1, 0x18, %g1
    5330:	80 a0 60 25 	cmp  %g1, 0x25
    5334:	02 80 00 08 	be  5354 <DATA_SEGMENT_TO_COPY+0x52d4>
    5338:	01 00 00 00 	nop 
    533c:	c2 07 bf f0 	ld  [ %fp + -16 ], %g1
    5340:	84 10 20 25 	mov  0x25, %g2
    5344:	c4 28 40 00 	stb  %g2, [ %g1 ]
    5348:	c2 07 bf f0 	ld  [ %fp + -16 ], %g1
    534c:	82 00 60 01 	inc  %g1
    5350:	c2 27 bf f0 	st  %g1, [ %fp + -16 ]
    5354:	c2 07 a0 48 	ld  [ %fp + 0x48 ], %g1
    5358:	c2 08 40 00 	ldub  [ %g1 ], %g1
    535c:	83 28 60 18 	sll  %g1, 0x18, %g1
    5360:	83 38 60 18 	sra  %g1, 0x18, %g1
    5364:	80 a0 60 00 	cmp  %g1, 0
    5368:	02 80 00 0b 	be  5394 <DATA_SEGMENT_TO_COPY+0x5314>
    536c:	01 00 00 00 	nop 
    5370:	c2 07 a0 48 	ld  [ %fp + 0x48 ], %g1
    5374:	c4 08 40 00 	ldub  [ %g1 ], %g2
    5378:	c2 07 bf f0 	ld  [ %fp + -16 ], %g1
    537c:	c4 28 40 00 	stb  %g2, [ %g1 ]
    5380:	c2 07 bf f0 	ld  [ %fp + -16 ], %g1
    5384:	82 00 60 01 	inc  %g1
    5388:	c2 27 bf f0 	st  %g1, [ %fp + -16 ]
    538c:	10 80 00 31 	b  5450 <DATA_SEGMENT_TO_COPY+0x53d0>
    5390:	01 00 00 00 	nop 
    5394:	c2 07 a0 48 	ld  [ %fp + 0x48 ], %g1
    5398:	82 00 7f ff 	add  %g1, -1, %g1
    539c:	c2 27 a0 48 	st  %g1, [ %fp + 0x48 ]
    53a0:	10 80 00 2c 	b  5450 <DATA_SEGMENT_TO_COPY+0x53d0>
    53a4:	01 00 00 00 	nop 
    53a8:	01 00 00 00 	nop 
    53ac:	c2 07 bf dc 	ld  [ %fp + -36 ], %g1
    53b0:	80 a0 60 6c 	cmp  %g1, 0x6c
    53b4:	12 80 00 0a 	bne  53dc <DATA_SEGMENT_TO_COPY+0x535c>
    53b8:	01 00 00 00 	nop 
    53bc:	c2 07 a0 4c 	ld  [ %fp + 0x4c ], %g1
    53c0:	c2 00 40 00 	ld  [ %g1 ], %g1
    53c4:	c2 27 bf fc 	st  %g1, [ %fp + -4 ]
    53c8:	c2 07 a0 4c 	ld  [ %fp + 0x4c ], %g1
    53cc:	82 00 60 04 	add  %g1, 4, %g1
    53d0:	c2 27 a0 4c 	st  %g1, [ %fp + 0x4c ]
    53d4:	10 80 00 15 	b  5428 <DATA_SEGMENT_TO_COPY+0x53a8>
    53d8:	01 00 00 00 	nop 
    53dc:	c2 07 bf e8 	ld  [ %fp + -24 ], %g1
    53e0:	82 08 60 02 	and  %g1, 2, %g1
    53e4:	80 a0 60 00 	cmp  %g1, 0
    53e8:	02 80 00 0a 	be  5410 <DATA_SEGMENT_TO_COPY+0x5390>
    53ec:	01 00 00 00 	nop 
    53f0:	c2 07 a0 4c 	ld  [ %fp + 0x4c ], %g1
    53f4:	c2 00 40 00 	ld  [ %g1 ], %g1
    53f8:	c2 27 bf fc 	st  %g1, [ %fp + -4 ]
    53fc:	c2 07 a0 4c 	ld  [ %fp + 0x4c ], %g1
    5400:	82 00 60 04 	add  %g1, 4, %g1
    5404:	c2 27 a0 4c 	st  %g1, [ %fp + 0x4c ]
    5408:	10 80 00 08 	b  5428 <DATA_SEGMENT_TO_COPY+0x53a8>
    540c:	01 00 00 00 	nop 
    5410:	c2 07 a0 4c 	ld  [ %fp + 0x4c ], %g1
    5414:	c2 00 40 00 	ld  [ %g1 ], %g1
    5418:	c2 27 bf fc 	st  %g1, [ %fp + -4 ]
    541c:	c2 07 a0 4c 	ld  [ %fp + 0x4c ], %g1
    5420:	82 00 60 04 	add  %g1, 4, %g1
    5424:	c2 27 a0 4c 	st  %g1, [ %fp + 0x4c ]
    5428:	c2 07 bf fc 	ld  [ %fp + -4 ], %g1
    542c:	d0 07 bf f0 	ld  [ %fp + -16 ], %o0
    5430:	92 10 00 01 	mov  %g1, %o1
    5434:	d4 07 bf f4 	ld  [ %fp + -12 ], %o2
    5438:	d6 07 bf e4 	ld  [ %fp + -28 ], %o3
    543c:	d8 07 bf e0 	ld  [ %fp + -32 ], %o4
    5440:	da 07 bf e8 	ld  [ %fp + -24 ], %o5
    5444:	7f ff f7 bf 	call  3340 <DATA_SEGMENT_TO_COPY+0x32c0>
    5448:	01 00 00 00 	nop 
    544c:	d0 27 bf f0 	st  %o0, [ %fp + -16 ]
    5450:	c2 07 a0 48 	ld  [ %fp + 0x48 ], %g1
    5454:	82 00 60 01 	inc  %g1
    5458:	c2 27 a0 48 	st  %g1, [ %fp + 0x48 ]
    545c:	c2 07 a0 48 	ld  [ %fp + 0x48 ], %g1
    5460:	c2 08 40 00 	ldub  [ %g1 ], %g1
    5464:	83 28 60 18 	sll  %g1, 0x18, %g1
    5468:	83 38 60 18 	sra  %g1, 0x18, %g1
    546c:	80 a0 60 00 	cmp  %g1, 0
    5470:	12 bf fd e6 	bne  4c08 <DATA_SEGMENT_TO_COPY+0x4b88>
    5474:	01 00 00 00 	nop 
    5478:	c2 07 bf f0 	ld  [ %fp + -16 ], %g1
    547c:	c0 28 40 00 	clrb  [ %g1 ]
    5480:	c4 07 bf f0 	ld  [ %fp + -16 ], %g2
    5484:	c2 07 a0 44 	ld  [ %fp + 0x44 ], %g1
    5488:	82 20 80 01 	sub  %g2, %g1, %g1
    548c:	b0 10 00 01 	mov  %g1, %i0
    5490:	81 e8 00 00 	restore 
    5494:	81 c3 e0 08 	retl 
    5498:	01 00 00 00 	nop 
    549c:	9d e3 bf 98 	save  %sp, -104, %sp
    54a0:	82 10 00 18 	mov  %i0, %g1
    54a4:	c2 2f a0 44 	stb  %g1, [ %fp + 0x44 ]
    54a8:	10 80 00 03 	b  54b4 <DATA_SEGMENT_TO_COPY+0x5434>
    54ac:	01 00 00 00 	nop 
    54b0:	01 00 00 00 	nop 
    54b4:	c2 0f a0 44 	ldub  [ %fp + 0x44 ], %g1
    54b8:	83 28 60 18 	sll  %g1, 0x18, %g1
    54bc:	83 38 60 18 	sra  %g1, 0x18, %g1
    54c0:	90 10 00 01 	mov  %g1, %o0
    54c4:	40 00 05 2f 	call  6980 <DATA_SEGMENT_TO_COPY+0x6900>
    54c8:	01 00 00 00 	nop 
    54cc:	d0 27 bf fc 	st  %o0, [ %fp + -4 ]
    54d0:	c2 07 bf fc 	ld  [ %fp + -4 ], %g1
    54d4:	80 a0 60 00 	cmp  %g1, 0
    54d8:	02 bf ff f6 	be  54b0 <DATA_SEGMENT_TO_COPY+0x5430>
    54dc:	01 00 00 00 	nop 
    54e0:	01 00 00 00 	nop 
    54e4:	10 80 00 03 	b  54f0 <DATA_SEGMENT_TO_COPY+0x5470>
    54e8:	01 00 00 00 	nop 
    54ec:	01 00 00 00 	nop 
    54f0:	c0 27 bf f8 	clr  [ %fp + -8 ]
    54f4:	03 3f ff cc 	sethi  %hi(0xffff3000), %g1
    54f8:	82 10 62 00 	or  %g1, 0x200, %g1	! ffff3200 <DATA_SEGMENT_TO_COPY+0xffff3180>
    54fc:	fa 80 44 00 	lda  [ %g1 ] #ASI_SCRATCHPAD, %i5
    5500:	fa 27 bf f8 	st  %i5, [ %fp + -8 ]
    5504:	c2 07 bf f8 	ld  [ %fp + -8 ], %g1
    5508:	82 08 60 08 	and  %g1, 8, %g1
    550c:	80 a0 60 00 	cmp  %g1, 0
    5510:	02 80 00 07 	be  552c <DATA_SEGMENT_TO_COPY+0x54ac>
    5514:	01 00 00 00 	nop 
    5518:	c2 07 bf f8 	ld  [ %fp + -8 ], %g1
    551c:	82 08 60 01 	and  %g1, 1, %g1
    5520:	80 a0 60 00 	cmp  %g1, 0
    5524:	12 bf ff f2 	bne  54ec <DATA_SEGMENT_TO_COPY+0x546c>
    5528:	01 00 00 00 	nop 
    552c:	81 e8 00 00 	restore 
    5530:	81 c3 e0 08 	retl 
    5534:	01 00 00 00 	nop 
    5538:	9d e3 bb 90 	save  %sp, -1136, %sp
    553c:	f2 27 a0 48 	st  %i1, [ %fp + 0x48 ]
    5540:	f4 27 a0 4c 	st  %i2, [ %fp + 0x4c ]
    5544:	f6 27 a0 50 	st  %i3, [ %fp + 0x50 ]
    5548:	f8 27 a0 54 	st  %i4, [ %fp + 0x54 ]
    554c:	fa 27 a0 58 	st  %i5, [ %fp + 0x58 ]
    5550:	f0 27 a0 44 	st  %i0, [ %fp + 0x44 ]
    5554:	c0 27 bf f8 	clr  [ %fp + -8 ]
    5558:	82 07 a0 48 	add  %fp, 0x48, %g1
    555c:	c2 27 bb f4 	st  %g1, [ %fp + -1036 ]
    5560:	c2 07 bb f4 	ld  [ %fp + -1036 ], %g1
    5564:	84 07 bb f8 	add  %fp, -1032, %g2
    5568:	90 10 00 02 	mov  %g2, %o0
    556c:	d2 07 a0 44 	ld  [ %fp + 0x44 ], %o1
    5570:	94 10 00 01 	mov  %g1, %o2
    5574:	7f ff fd 9d 	call  4be8 <DATA_SEGMENT_TO_COPY+0x4b68>
    5578:	01 00 00 00 	nop 
    557c:	82 07 bb f8 	add  %fp, -1032, %g1
    5580:	c2 27 bf fc 	st  %g1, [ %fp + -4 ]
    5584:	10 80 00 0f 	b  55c0 <DATA_SEGMENT_TO_COPY+0x5540>
    5588:	01 00 00 00 	nop 
    558c:	c2 07 bf fc 	ld  [ %fp + -4 ], %g1
    5590:	c2 08 40 00 	ldub  [ %g1 ], %g1
    5594:	83 28 60 18 	sll  %g1, 0x18, %g1
    5598:	83 38 60 18 	sra  %g1, 0x18, %g1
    559c:	90 10 00 01 	mov  %g1, %o0
    55a0:	7f ff ff bf 	call  549c <DATA_SEGMENT_TO_COPY+0x541c>
    55a4:	01 00 00 00 	nop 
    55a8:	c2 07 bf f8 	ld  [ %fp + -8 ], %g1
    55ac:	82 00 60 01 	inc  %g1
    55b0:	c2 27 bf f8 	st  %g1, [ %fp + -8 ]
    55b4:	c2 07 bf fc 	ld  [ %fp + -4 ], %g1
    55b8:	82 00 60 01 	inc  %g1
    55bc:	c2 27 bf fc 	st  %g1, [ %fp + -4 ]
    55c0:	c2 07 bf fc 	ld  [ %fp + -4 ], %g1
    55c4:	c2 08 40 00 	ldub  [ %g1 ], %g1
    55c8:	83 28 60 18 	sll  %g1, 0x18, %g1
    55cc:	83 38 60 18 	sra  %g1, 0x18, %g1
    55d0:	80 a0 60 00 	cmp  %g1, 0
    55d4:	12 bf ff ee 	bne  558c <DATA_SEGMENT_TO_COPY+0x550c>
    55d8:	01 00 00 00 	nop 
    55dc:	c2 07 bf f8 	ld  [ %fp + -8 ], %g1
    55e0:	b0 10 00 01 	mov  %g1, %i0
    55e4:	81 e8 00 00 	restore 
    55e8:	81 c3 e0 08 	retl 
    55ec:	01 00 00 00 	nop 
    55f0:	9d e3 bf 80 	save  %sp, -128, %sp
    55f4:	f0 3f bf e8 	std  %i0, [ %fp + -24 ]
    55f8:	f4 27 a0 4c 	st  %i2, [ %fp + 0x4c ]
    55fc:	d1 1f bf e8 	ldd  [ %fp + -24 ], %f8
    5600:	95 a0 1a 48 	fdtoi  %f8, %f10
    5604:	d5 27 bf e4 	st  %f10, [ %fp + -28 ]
    5608:	c2 07 bf e4 	ld  [ %fp + -28 ], %g1
    560c:	c2 27 bf fc 	st  %g1, [ %fp + -4 ]
    5610:	c2 07 bf fc 	ld  [ %fp + -4 ], %g1
    5614:	c2 27 bf e4 	st  %g1, [ %fp + -28 ]
    5618:	d5 07 bf e4 	ld  [ %fp + -28 ], %f10
    561c:	91 a0 19 0a 	fitod  %f10, %f8
    5620:	c2 07 a0 4c 	ld  [ %fp + 0x4c ], %g1
    5624:	d1 38 40 00 	std  %f8, [ %g1 ]
    5628:	c2 07 a0 4c 	ld  [ %fp + 0x4c ], %g1
    562c:	d1 18 40 00 	ldd  [ %g1 ], %f8
    5630:	d5 1f bf e8 	ldd  [ %fp + -24 ], %f10
    5634:	91 a2 88 c8 	fsubd  %f10, %f8, %f8
    5638:	d1 3f bf f0 	std  %f8, [ %fp + -16 ]
    563c:	d1 1f bf f0 	ldd  [ %fp + -16 ], %f8
    5640:	81 a0 00 28 	fmovs  %f8, %f0
    5644:	83 a0 00 29 	fmovs  %f9, %f1
    5648:	81 e8 00 00 	restore 
    564c:	81 c3 e0 08 	retl 
    5650:	01 00 00 00 	nop 
    5654:	9d e3 bf 68 	save  %sp, -152, %sp
    5658:	f0 3f bf d8 	std  %i0, [ %fp + -40 ]
    565c:	f4 27 a0 4c 	st  %i2, [ %fp + 0x4c ]
    5660:	f6 27 a0 50 	st  %i3, [ %fp + 0x50 ]
    5664:	f8 27 a0 54 	st  %i4, [ %fp + 0x54 ]
    5668:	fa 27 a0 58 	st  %i5, [ %fp + 0x58 ]
    566c:	c2 07 a0 4c 	ld  [ %fp + 0x4c ], %g1
    5670:	80 a0 60 00 	cmp  %g1, 0
    5674:	16 80 00 03 	bge  5680 <DATA_SEGMENT_TO_COPY+0x5600>
    5678:	01 00 00 00 	nop 
    567c:	c0 27 a0 4c 	clr  [ %fp + 0x4c ]
    5680:	c2 07 a0 4c 	ld  [ %fp + 0x4c ], %g1
    5684:	80 a0 60 4e 	cmp  %g1, 0x4e
    5688:	04 80 00 04 	ble  5698 <DATA_SEGMENT_TO_COPY+0x5618>
    568c:	01 00 00 00 	nop 
    5690:	82 10 20 4e 	mov  0x4e, %g1	! 4e <_copy_segment_u64+0x1e>
    5694:	c2 27 a0 4c 	st  %g1, [ %fp + 0x4c ]
    5698:	c0 27 bf fc 	clr  [ %fp + -4 ]
    569c:	c2 07 a0 54 	ld  [ %fp + 0x54 ], %g1
    56a0:	c0 20 40 00 	clr  [ %g1 ]
    56a4:	c2 07 a0 58 	ld  [ %fp + 0x58 ], %g1
    56a8:	c2 27 bf f8 	st  %g1, [ %fp + -8 ]
    56ac:	d5 1f bf d8 	ldd  [ %fp + -40 ], %f10
    56b0:	03 10 01 00 	sethi  %hi(0x40040000), %g1
    56b4:	82 10 60 68 	or  %g1, 0x68, %g1	! 40040068 <DATA_SEGMENT_TO_COPY+0x4003ffe8>
    56b8:	d1 18 40 00 	ldd  [ %g1 ], %f8
    56bc:	81 aa 8a c8 	fcmped  %f10, %f8
    56c0:	01 00 00 00 	nop 
    56c4:	19 80 00 08 	fbuge  56e4 <DATA_SEGMENT_TO_COPY+0x5664>
    56c8:	01 00 00 00 	nop 
    56cc:	c2 07 a0 54 	ld  [ %fp + 0x54 ], %g1
    56d0:	84 10 20 01 	mov  1, %g2
    56d4:	c4 20 40 00 	st  %g2, [ %g1 ]
    56d8:	d1 1f bf d8 	ldd  [ %fp + -40 ], %f8
    56dc:	91 a0 00 a8 	fnegs  %f8, %f8
    56e0:	d1 3f bf d8 	std  %f8, [ %fp + -40 ]
    56e4:	82 07 bf e8 	add  %fp, -24, %g1
    56e8:	d0 1f bf d8 	ldd  [ %fp + -40 ], %o0
    56ec:	94 10 00 01 	mov  %g1, %o2
    56f0:	7f ff ff c0 	call  55f0 <DATA_SEGMENT_TO_COPY+0x5570>
    56f4:	01 00 00 00 	nop 
    56f8:	c1 3f bf d8 	std  %f0, [ %fp + -40 ]
    56fc:	c2 07 a0 58 	ld  [ %fp + 0x58 ], %g1
    5700:	82 00 60 50 	add  %g1, 0x50, %g1
    5704:	c2 27 bf f4 	st  %g1, [ %fp + -12 ]
    5708:	d5 1f bf e8 	ldd  [ %fp + -24 ], %f10
    570c:	03 10 01 00 	sethi  %hi(0x40040000), %g1
    5710:	82 10 60 68 	or  %g1, 0x68, %g1	! 40040068 <DATA_SEGMENT_TO_COPY+0x4003ffe8>
    5714:	d1 18 40 00 	ldd  [ %g1 ], %f8
    5718:	81 aa 8a 48 	fcmpd  %f10, %f8
    571c:	01 00 00 00 	nop 
    5720:	13 80 00 47 	fbe  583c <DATA_SEGMENT_TO_COPY+0x57bc>
    5724:	01 00 00 00 	nop 
    5728:	c2 07 a0 58 	ld  [ %fp + 0x58 ], %g1
    572c:	82 00 60 50 	add  %g1, 0x50, %g1
    5730:	c2 27 bf f4 	st  %g1, [ %fp + -12 ]
    5734:	10 80 00 26 	b  57cc <DATA_SEGMENT_TO_COPY+0x574c>
    5738:	01 00 00 00 	nop 
    573c:	d5 1f bf e8 	ldd  [ %fp + -24 ], %f10
    5740:	03 10 01 00 	sethi  %hi(0x40040000), %g1
    5744:	82 10 60 70 	or  %g1, 0x70, %g1	! 40040070 <DATA_SEGMENT_TO_COPY+0x4003fff0>
    5748:	d1 18 40 00 	ldd  [ %g1 ], %f8
    574c:	91 a2 89 c8 	fdivd  %f10, %f8, %f8
    5750:	82 07 bf e8 	add  %fp, -24, %g1
    5754:	d1 3f bf d0 	std  %f8, [ %fp + -48 ]
    5758:	d0 1f bf d0 	ldd  [ %fp + -48 ], %o0
    575c:	94 10 00 01 	mov  %g1, %o2
    5760:	7f ff ff a4 	call  55f0 <DATA_SEGMENT_TO_COPY+0x5570>
    5764:	01 00 00 00 	nop 
    5768:	91 a0 00 20 	fmovs  %f0, %f8
    576c:	93 a0 00 21 	fmovs  %f1, %f9
    5770:	d1 3f bf e0 	std  %f8, [ %fp + -32 ]
    5774:	c2 07 bf f4 	ld  [ %fp + -12 ], %g1
    5778:	82 00 7f ff 	add  %g1, -1, %g1
    577c:	c2 27 bf f4 	st  %g1, [ %fp + -12 ]
    5780:	d5 1f bf e0 	ldd  [ %fp + -32 ], %f10
    5784:	03 10 01 00 	sethi  %hi(0x40040000), %g1
    5788:	82 10 60 78 	or  %g1, 0x78, %g1	! 40040078 <DATA_SEGMENT_TO_COPY+0x4003fff8>
    578c:	d1 18 40 00 	ldd  [ %g1 ], %f8
    5790:	95 a2 88 48 	faddd  %f10, %f8, %f10
    5794:	03 10 01 00 	sethi  %hi(0x40040000), %g1
    5798:	82 10 60 70 	or  %g1, 0x70, %g1	! 40040070 <DATA_SEGMENT_TO_COPY+0x4003fff0>
    579c:	d1 18 40 00 	ldd  [ %g1 ], %f8
    57a0:	91 a2 89 48 	fmuld  %f10, %f8, %f8
    57a4:	95 a0 1a 48 	fdtoi  %f8, %f10
    57a8:	d5 27 bf cc 	st  %f10, [ %fp + -52 ]
    57ac:	c2 07 bf cc 	ld  [ %fp + -52 ], %g1
    57b0:	82 00 60 30 	add  %g1, 0x30, %g1
    57b4:	84 10 00 01 	mov  %g1, %g2
    57b8:	c2 07 bf f4 	ld  [ %fp + -12 ], %g1
    57bc:	c4 28 40 00 	stb  %g2, [ %g1 ]
    57c0:	c2 07 bf fc 	ld  [ %fp + -4 ], %g1
    57c4:	82 00 60 01 	inc  %g1
    57c8:	c2 27 bf fc 	st  %g1, [ %fp + -4 ]
    57cc:	d5 1f bf e8 	ldd  [ %fp + -24 ], %f10
    57d0:	03 10 01 00 	sethi  %hi(0x40040000), %g1
    57d4:	82 10 60 68 	or  %g1, 0x68, %g1	! 40040068 <DATA_SEGMENT_TO_COPY+0x4003ffe8>
    57d8:	d1 18 40 00 	ldd  [ %g1 ], %f8
    57dc:	81 aa 8a 48 	fcmpd  %f10, %f8
    57e0:	01 00 00 00 	nop 
    57e4:	03 bf ff d6 	fbne  573c <DATA_SEGMENT_TO_COPY+0x56bc>
    57e8:	01 00 00 00 	nop 
    57ec:	10 80 00 0c 	b  581c <DATA_SEGMENT_TO_COPY+0x579c>
    57f0:	01 00 00 00 	nop 
    57f4:	c2 07 bf f4 	ld  [ %fp + -12 ], %g1
    57f8:	c4 08 40 00 	ldub  [ %g1 ], %g2
    57fc:	c2 07 bf f8 	ld  [ %fp + -8 ], %g1
    5800:	c4 28 40 00 	stb  %g2, [ %g1 ]
    5804:	c2 07 bf f8 	ld  [ %fp + -8 ], %g1
    5808:	82 00 60 01 	inc  %g1
    580c:	c2 27 bf f8 	st  %g1, [ %fp + -8 ]
    5810:	c2 07 bf f4 	ld  [ %fp + -12 ], %g1
    5814:	82 00 60 01 	inc  %g1
    5818:	c2 27 bf f4 	st  %g1, [ %fp + -12 ]
    581c:	c2 07 a0 58 	ld  [ %fp + 0x58 ], %g1
    5820:	84 00 60 50 	add  %g1, 0x50, %g2
    5824:	c2 07 bf f4 	ld  [ %fp + -12 ], %g1
    5828:	80 a0 80 01 	cmp  %g2, %g1
    582c:	18 bf ff f2 	bgu  57f4 <DATA_SEGMENT_TO_COPY+0x5774>
    5830:	01 00 00 00 	nop 
    5834:	10 80 00 22 	b  58bc <DATA_SEGMENT_TO_COPY+0x583c>
    5838:	01 00 00 00 	nop 
    583c:	d5 1f bf d8 	ldd  [ %fp + -40 ], %f10
    5840:	03 10 01 00 	sethi  %hi(0x40040000), %g1
    5844:	82 10 60 68 	or  %g1, 0x68, %g1	! 40040068 <DATA_SEGMENT_TO_COPY+0x4003ffe8>
    5848:	d1 18 40 00 	ldd  [ %g1 ], %f8
    584c:	81 aa 8a c8 	fcmped  %f10, %f8
    5850:	01 00 00 00 	nop 
    5854:	0d 80 00 0b 	fbg  5880 <DATA_SEGMENT_TO_COPY+0x5800>
    5858:	01 00 00 00 	nop 
    585c:	10 80 00 18 	b  58bc <DATA_SEGMENT_TO_COPY+0x583c>
    5860:	01 00 00 00 	nop 
    5864:	d1 1f bf e0 	ldd  [ %fp + -32 ], %f8
    5868:	d1 3f bf d8 	std  %f8, [ %fp + -40 ]
    586c:	c2 07 bf fc 	ld  [ %fp + -4 ], %g1
    5870:	82 00 7f ff 	add  %g1, -1, %g1
    5874:	c2 27 bf fc 	st  %g1, [ %fp + -4 ]
    5878:	10 80 00 03 	b  5884 <DATA_SEGMENT_TO_COPY+0x5804>
    587c:	01 00 00 00 	nop 
    5880:	01 00 00 00 	nop 
    5884:	d5 1f bf d8 	ldd  [ %fp + -40 ], %f10
    5888:	03 10 01 00 	sethi  %hi(0x40040000), %g1
    588c:	82 10 60 70 	or  %g1, 0x70, %g1	! 40040070 <DATA_SEGMENT_TO_COPY+0x4003fff0>
    5890:	d1 18 40 00 	ldd  [ %g1 ], %f8
    5894:	91 a2 89 48 	fmuld  %f10, %f8, %f8
    5898:	d1 3f bf e0 	std  %f8, [ %fp + -32 ]
    589c:	d5 1f bf e0 	ldd  [ %fp + -32 ], %f10
    58a0:	03 10 01 00 	sethi  %hi(0x40040000), %g1
    58a4:	82 10 60 80 	or  %g1, 0x80, %g1	! 40040080 <DATA_SEGMENT_TO_COPY+0x40040000>
    58a8:	d1 18 40 00 	ldd  [ %g1 ], %f8
    58ac:	81 aa 8a c8 	fcmped  %f10, %f8
    58b0:	01 00 00 00 	nop 
    58b4:	09 bf ff ec 	fbl  5864 <DATA_SEGMENT_TO_COPY+0x57e4>
    58b8:	01 00 00 00 	nop 
    58bc:	c2 07 a0 4c 	ld  [ %fp + 0x4c ], %g1
    58c0:	c4 07 a0 58 	ld  [ %fp + 0x58 ], %g2
    58c4:	82 00 80 01 	add  %g2, %g1, %g1
    58c8:	c2 27 bf f4 	st  %g1, [ %fp + -12 ]
    58cc:	c2 07 a0 5c 	ld  [ %fp + 0x5c ], %g1
    58d0:	80 a0 60 00 	cmp  %g1, 0
    58d4:	12 80 00 06 	bne  58ec <DATA_SEGMENT_TO_COPY+0x586c>
    58d8:	01 00 00 00 	nop 
    58dc:	c2 07 bf fc 	ld  [ %fp + -4 ], %g1
    58e0:	c4 07 bf f4 	ld  [ %fp + -12 ], %g2
    58e4:	82 00 80 01 	add  %g2, %g1, %g1
    58e8:	c2 27 bf f4 	st  %g1, [ %fp + -12 ]
    58ec:	c2 07 a0 50 	ld  [ %fp + 0x50 ], %g1
    58f0:	c4 07 bf fc 	ld  [ %fp + -4 ], %g2
    58f4:	c4 20 40 00 	st  %g2, [ %g1 ]
    58f8:	c4 07 bf f4 	ld  [ %fp + -12 ], %g2
    58fc:	c2 07 a0 58 	ld  [ %fp + 0x58 ], %g1
    5900:	80 a0 80 01 	cmp  %g2, %g1
    5904:	1a 80 00 1e 	bcc  597c <DATA_SEGMENT_TO_COPY+0x58fc>
    5908:	01 00 00 00 	nop 
    590c:	c2 07 a0 58 	ld  [ %fp + 0x58 ], %g1
    5910:	c0 28 40 00 	clrb  [ %g1 ]
    5914:	c2 07 a0 58 	ld  [ %fp + 0x58 ], %g1
    5918:	10 80 00 6e 	b  5ad0 <DATA_SEGMENT_TO_COPY+0x5a50>
    591c:	01 00 00 00 	nop 
    5920:	d5 1f bf d8 	ldd  [ %fp + -40 ], %f10
    5924:	03 10 01 00 	sethi  %hi(0x40040000), %g1
    5928:	82 10 60 70 	or  %g1, 0x70, %g1	! 40040070 <DATA_SEGMENT_TO_COPY+0x4003fff0>
    592c:	d1 18 40 00 	ldd  [ %g1 ], %f8
    5930:	91 a2 89 48 	fmuld  %f10, %f8, %f8
    5934:	d1 3f bf d8 	std  %f8, [ %fp + -40 ]
    5938:	82 07 bf e0 	add  %fp, -32, %g1
    593c:	d0 1f bf d8 	ldd  [ %fp + -40 ], %o0
    5940:	94 10 00 01 	mov  %g1, %o2
    5944:	7f ff ff 2b 	call  55f0 <DATA_SEGMENT_TO_COPY+0x5570>
    5948:	01 00 00 00 	nop 
    594c:	c1 3f bf d8 	std  %f0, [ %fp + -40 ]
    5950:	d1 1f bf e0 	ldd  [ %fp + -32 ], %f8
    5954:	95 a0 1a 48 	fdtoi  %f8, %f10
    5958:	d5 27 bf cc 	st  %f10, [ %fp + -52 ]
    595c:	c2 07 bf cc 	ld  [ %fp + -52 ], %g1
    5960:	82 00 60 30 	add  %g1, 0x30, %g1
    5964:	84 10 00 01 	mov  %g1, %g2
    5968:	c2 07 bf f8 	ld  [ %fp + -8 ], %g1
    596c:	c4 28 40 00 	stb  %g2, [ %g1 ]
    5970:	c2 07 bf f8 	ld  [ %fp + -8 ], %g1
    5974:	82 00 60 01 	inc  %g1
    5978:	c2 27 bf f8 	st  %g1, [ %fp + -8 ]
    597c:	c4 07 bf f8 	ld  [ %fp + -8 ], %g2
    5980:	c2 07 bf f4 	ld  [ %fp + -12 ], %g1
    5984:	80 a0 80 01 	cmp  %g2, %g1
    5988:	18 80 00 08 	bgu  59a8 <DATA_SEGMENT_TO_COPY+0x5928>
    598c:	01 00 00 00 	nop 
    5990:	c2 07 a0 58 	ld  [ %fp + 0x58 ], %g1
    5994:	84 00 60 50 	add  %g1, 0x50, %g2
    5998:	c2 07 bf f8 	ld  [ %fp + -8 ], %g1
    599c:	80 a0 80 01 	cmp  %g2, %g1
    59a0:	18 bf ff e0 	bgu  5920 <DATA_SEGMENT_TO_COPY+0x58a0>
    59a4:	01 00 00 00 	nop 
    59a8:	c2 07 a0 58 	ld  [ %fp + 0x58 ], %g1
    59ac:	84 00 60 50 	add  %g1, 0x50, %g2
    59b0:	c2 07 bf f4 	ld  [ %fp + -12 ], %g1
    59b4:	80 a0 80 01 	cmp  %g2, %g1
    59b8:	18 80 00 08 	bgu  59d8 <DATA_SEGMENT_TO_COPY+0x5958>
    59bc:	01 00 00 00 	nop 
    59c0:	c2 07 a0 58 	ld  [ %fp + 0x58 ], %g1
    59c4:	82 00 60 4f 	add  %g1, 0x4f, %g1
    59c8:	c0 28 40 00 	clrb  [ %g1 ]
    59cc:	c2 07 a0 58 	ld  [ %fp + 0x58 ], %g1
    59d0:	10 80 00 40 	b  5ad0 <DATA_SEGMENT_TO_COPY+0x5a50>
    59d4:	01 00 00 00 	nop 
    59d8:	c2 07 bf f4 	ld  [ %fp + -12 ], %g1
    59dc:	c2 27 bf f8 	st  %g1, [ %fp + -8 ]
    59e0:	c2 07 bf f4 	ld  [ %fp + -12 ], %g1
    59e4:	c2 08 40 00 	ldub  [ %g1 ], %g1
    59e8:	82 00 60 05 	add  %g1, 5, %g1
    59ec:	84 10 00 01 	mov  %g1, %g2
    59f0:	c2 07 bf f4 	ld  [ %fp + -12 ], %g1
    59f4:	c4 28 40 00 	stb  %g2, [ %g1 ]
    59f8:	10 80 00 2c 	b  5aa8 <DATA_SEGMENT_TO_COPY+0x5a28>
    59fc:	01 00 00 00 	nop 
    5a00:	c2 07 bf f4 	ld  [ %fp + -12 ], %g1
    5a04:	84 10 20 30 	mov  0x30, %g2
    5a08:	c4 28 40 00 	stb  %g2, [ %g1 ]
    5a0c:	c4 07 bf f4 	ld  [ %fp + -12 ], %g2
    5a10:	c2 07 a0 58 	ld  [ %fp + 0x58 ], %g1
    5a14:	80 a0 80 01 	cmp  %g2, %g1
    5a18:	08 80 00 0d 	bleu  5a4c <DATA_SEGMENT_TO_COPY+0x59cc>
    5a1c:	01 00 00 00 	nop 
    5a20:	c2 07 bf f4 	ld  [ %fp + -12 ], %g1
    5a24:	82 00 7f ff 	add  %g1, -1, %g1
    5a28:	c2 27 bf f4 	st  %g1, [ %fp + -12 ]
    5a2c:	c2 07 bf f4 	ld  [ %fp + -12 ], %g1
    5a30:	c2 08 40 00 	ldub  [ %g1 ], %g1
    5a34:	82 00 60 01 	inc  %g1
    5a38:	84 10 00 01 	mov  %g1, %g2
    5a3c:	c2 07 bf f4 	ld  [ %fp + -12 ], %g1
    5a40:	c4 28 40 00 	stb  %g2, [ %g1 ]
    5a44:	10 80 00 19 	b  5aa8 <DATA_SEGMENT_TO_COPY+0x5a28>
    5a48:	01 00 00 00 	nop 
    5a4c:	c2 07 bf f4 	ld  [ %fp + -12 ], %g1
    5a50:	84 10 20 31 	mov  0x31, %g2
    5a54:	c4 28 40 00 	stb  %g2, [ %g1 ]
    5a58:	c2 07 a0 50 	ld  [ %fp + 0x50 ], %g1
    5a5c:	c2 00 40 00 	ld  [ %g1 ], %g1
    5a60:	84 00 60 01 	add  %g1, 1, %g2
    5a64:	c2 07 a0 50 	ld  [ %fp + 0x50 ], %g1
    5a68:	c4 20 40 00 	st  %g2, [ %g1 ]
    5a6c:	c2 07 a0 5c 	ld  [ %fp + 0x5c ], %g1
    5a70:	80 a0 60 00 	cmp  %g1, 0
    5a74:	12 80 00 0d 	bne  5aa8 <DATA_SEGMENT_TO_COPY+0x5a28>
    5a78:	01 00 00 00 	nop 
    5a7c:	c4 07 bf f8 	ld  [ %fp + -8 ], %g2
    5a80:	c2 07 a0 58 	ld  [ %fp + 0x58 ], %g1
    5a84:	80 a0 80 01 	cmp  %g2, %g1
    5a88:	08 80 00 05 	bleu  5a9c <DATA_SEGMENT_TO_COPY+0x5a1c>
    5a8c:	01 00 00 00 	nop 
    5a90:	c2 07 bf f8 	ld  [ %fp + -8 ], %g1
    5a94:	84 10 20 30 	mov  0x30, %g2
    5a98:	c4 28 40 00 	stb  %g2, [ %g1 ]
    5a9c:	c2 07 bf f8 	ld  [ %fp + -8 ], %g1
    5aa0:	82 00 60 01 	inc  %g1
    5aa4:	c2 27 bf f8 	st  %g1, [ %fp + -8 ]
    5aa8:	c2 07 bf f4 	ld  [ %fp + -12 ], %g1
    5aac:	c2 08 40 00 	ldub  [ %g1 ], %g1
    5ab0:	83 28 60 18 	sll  %g1, 0x18, %g1
    5ab4:	83 38 60 18 	sra  %g1, 0x18, %g1
    5ab8:	80 a0 60 39 	cmp  %g1, 0x39
    5abc:	14 bf ff d1 	bg  5a00 <DATA_SEGMENT_TO_COPY+0x5980>
    5ac0:	01 00 00 00 	nop 
    5ac4:	c2 07 bf f8 	ld  [ %fp + -8 ], %g1
    5ac8:	c0 28 40 00 	clrb  [ %g1 ]
    5acc:	c2 07 a0 58 	ld  [ %fp + 0x58 ], %g1
    5ad0:	b0 10 00 01 	mov  %g1, %i0
    5ad4:	81 e8 00 00 	restore 
    5ad8:	81 c3 e0 08 	retl 
    5adc:	01 00 00 00 	nop 
    5ae0:	9d e3 bf 90 	save  %sp, -112, %sp
    5ae4:	f0 3f bf f8 	std  %i0, [ %fp + -8 ]
    5ae8:	f4 27 a0 4c 	st  %i2, [ %fp + 0x4c ]
    5aec:	f6 27 a0 50 	st  %i3, [ %fp + 0x50 ]
    5af0:	f8 27 a0 54 	st  %i4, [ %fp + 0x54 ]
    5af4:	82 10 20 01 	mov  1, %g1
    5af8:	c2 23 a0 5c 	st  %g1, [ %sp + 0x5c ]
    5afc:	d0 1f bf f8 	ldd  [ %fp + -8 ], %o0
    5b00:	d4 07 a0 4c 	ld  [ %fp + 0x4c ], %o2
    5b04:	d6 07 a0 50 	ld  [ %fp + 0x50 ], %o3
    5b08:	d8 07 a0 54 	ld  [ %fp + 0x54 ], %o4
    5b0c:	03 10 01 00 	sethi  %hi(0x40040000), %g1
    5b10:	9a 10 60 e0 	or  %g1, 0xe0, %o5	! 400400e0 <DATA_SEGMENT_TO_COPY+0x40040060>
    5b14:	7f ff fe d0 	call  5654 <DATA_SEGMENT_TO_COPY+0x55d4>
    5b18:	01 00 00 00 	nop 
    5b1c:	82 10 00 08 	mov  %o0, %g1
    5b20:	b0 10 00 01 	mov  %g1, %i0
    5b24:	81 e8 00 00 	restore 
    5b28:	81 c3 e0 08 	retl 
    5b2c:	01 00 00 00 	nop 
    5b30:	9d e3 bf 90 	save  %sp, -112, %sp
    5b34:	f0 3f bf f8 	std  %i0, [ %fp + -8 ]
    5b38:	f4 27 a0 4c 	st  %i2, [ %fp + 0x4c ]
    5b3c:	f6 27 a0 50 	st  %i3, [ %fp + 0x50 ]
    5b40:	f8 27 a0 54 	st  %i4, [ %fp + 0x54 ]
    5b44:	fa 27 a0 58 	st  %i5, [ %fp + 0x58 ]
    5b48:	82 10 20 01 	mov  1, %g1
    5b4c:	c2 23 a0 5c 	st  %g1, [ %sp + 0x5c ]
    5b50:	d0 1f bf f8 	ldd  [ %fp + -8 ], %o0
    5b54:	d4 07 a0 4c 	ld  [ %fp + 0x4c ], %o2
    5b58:	d6 07 a0 50 	ld  [ %fp + 0x50 ], %o3
    5b5c:	d8 07 a0 54 	ld  [ %fp + 0x54 ], %o4
    5b60:	da 07 a0 58 	ld  [ %fp + 0x58 ], %o5
    5b64:	7f ff fe bc 	call  5654 <DATA_SEGMENT_TO_COPY+0x55d4>
    5b68:	01 00 00 00 	nop 
    5b6c:	82 10 00 08 	mov  %o0, %g1
    5b70:	b0 10 00 01 	mov  %g1, %i0
    5b74:	81 e8 00 00 	restore 
    5b78:	81 c3 e0 08 	retl 
    5b7c:	01 00 00 00 	nop 
    5b80:	9d e3 bf 90 	save  %sp, -112, %sp
    5b84:	f0 3f bf f8 	std  %i0, [ %fp + -8 ]
    5b88:	f4 27 a0 4c 	st  %i2, [ %fp + 0x4c ]
    5b8c:	f6 27 a0 50 	st  %i3, [ %fp + 0x50 ]
    5b90:	f8 27 a0 54 	st  %i4, [ %fp + 0x54 ]
    5b94:	c0 23 a0 5c 	clr  [ %sp + 0x5c ]
    5b98:	d0 1f bf f8 	ldd  [ %fp + -8 ], %o0
    5b9c:	d4 07 a0 4c 	ld  [ %fp + 0x4c ], %o2
    5ba0:	d6 07 a0 50 	ld  [ %fp + 0x50 ], %o3
    5ba4:	d8 07 a0 54 	ld  [ %fp + 0x54 ], %o4
    5ba8:	03 10 01 00 	sethi  %hi(0x40040000), %g1
    5bac:	9a 10 60 e0 	or  %g1, 0xe0, %o5	! 400400e0 <DATA_SEGMENT_TO_COPY+0x40040060>
    5bb0:	7f ff fe a9 	call  5654 <DATA_SEGMENT_TO_COPY+0x55d4>
    5bb4:	01 00 00 00 	nop 
    5bb8:	82 10 00 08 	mov  %o0, %g1
    5bbc:	b0 10 00 01 	mov  %g1, %i0
    5bc0:	81 e8 00 00 	restore 
    5bc4:	81 c3 e0 08 	retl 
    5bc8:	01 00 00 00 	nop 
    5bcc:	9d e3 bf 90 	save  %sp, -112, %sp
    5bd0:	f0 3f bf f8 	std  %i0, [ %fp + -8 ]
    5bd4:	f4 27 a0 4c 	st  %i2, [ %fp + 0x4c ]
    5bd8:	f6 27 a0 50 	st  %i3, [ %fp + 0x50 ]
    5bdc:	f8 27 a0 54 	st  %i4, [ %fp + 0x54 ]
    5be0:	fa 27 a0 58 	st  %i5, [ %fp + 0x58 ]
    5be4:	c0 23 a0 5c 	clr  [ %sp + 0x5c ]
    5be8:	d0 1f bf f8 	ldd  [ %fp + -8 ], %o0
    5bec:	d4 07 a0 4c 	ld  [ %fp + 0x4c ], %o2
    5bf0:	d6 07 a0 50 	ld  [ %fp + 0x50 ], %o3
    5bf4:	d8 07 a0 54 	ld  [ %fp + 0x54 ], %o4
    5bf8:	da 07 a0 58 	ld  [ %fp + 0x58 ], %o5
    5bfc:	7f ff fe 96 	call  5654 <DATA_SEGMENT_TO_COPY+0x55d4>
    5c00:	01 00 00 00 	nop 
    5c04:	82 10 00 08 	mov  %o0, %g1
    5c08:	b0 10 00 01 	mov  %g1, %i0
    5c0c:	81 e8 00 00 	restore 
    5c10:	81 c3 e0 08 	retl 
    5c14:	01 00 00 00 	nop 
    5c18:	9d e3 bf 90 	save  %sp, -112, %sp
    5c1c:	f0 27 a0 44 	st  %i0, [ %fp + 0x44 ]
    5c20:	c2 07 a0 44 	ld  [ %fp + 0x44 ], %g1
    5c24:	c2 27 bf f4 	st  %g1, [ %fp + -12 ]
    5c28:	d3 07 bf f4 	ld  [ %fp + -12 ], %f9
    5c2c:	91 a0 18 89 	fitos  %f9, %f8
    5c30:	95 a0 19 28 	fstod  %f8, %f10
    5c34:	03 10 01 00 	sethi  %hi(0x40040000), %g1
    5c38:	82 10 60 88 	or  %g1, 0x88, %g1	! 40040088 <DATA_SEGMENT_TO_COPY+0x40040008>
    5c3c:	d1 18 40 00 	ldd  [ %g1 ], %f8
    5c40:	91 a2 89 48 	fmuld  %f10, %f8, %f8
    5c44:	91 a0 18 c8 	fdtos  %f8, %f8
    5c48:	d1 27 bf fc 	st  %f8, [ %fp + -4 ]
    5c4c:	d1 07 bf fc 	ld  [ %fp + -4 ], %f8
    5c50:	81 a0 00 28 	fmovs  %f8, %f0
    5c54:	81 e8 00 00 	restore 
    5c58:	81 c3 e0 08 	retl 
    5c5c:	01 00 00 00 	nop 
    5c60:	9d e3 bf 98 	save  %sp, -104, %sp
    5c64:	f0 27 a0 44 	st  %i0, [ %fp + 0x44 ]
    5c68:	f2 27 a0 48 	st  %i1, [ %fp + 0x48 ]
    5c6c:	c0 27 bf fc 	clr  [ %fp + -4 ]
    5c70:	c0 27 bf f8 	clr  [ %fp + -8 ]
    5c74:	10 80 00 0b 	b  5ca0 <DATA_SEGMENT_TO_COPY+0x5c20>
    5c78:	01 00 00 00 	nop 
    5c7c:	c2 07 bf f8 	ld  [ %fp + -8 ], %g1
    5c80:	83 28 60 02 	sll  %g1, 2, %g1
    5c84:	c4 07 a0 44 	ld  [ %fp + 0x44 ], %g2
    5c88:	82 00 80 01 	add  %g2, %g1, %g1
    5c8c:	c4 07 bf f8 	ld  [ %fp + -8 ], %g2
    5c90:	c4 20 40 00 	st  %g2, [ %g1 ]
    5c94:	c2 07 bf f8 	ld  [ %fp + -8 ], %g1
    5c98:	82 00 60 01 	inc  %g1
    5c9c:	c2 27 bf f8 	st  %g1, [ %fp + -8 ]
    5ca0:	c4 07 bf f8 	ld  [ %fp + -8 ], %g2
    5ca4:	c2 07 a0 48 	ld  [ %fp + 0x48 ], %g1
    5ca8:	80 a0 80 01 	cmp  %g2, %g1
    5cac:	06 bf ff f4 	bl  5c7c <DATA_SEGMENT_TO_COPY+0x5bfc>
    5cb0:	01 00 00 00 	nop 
    5cb4:	c0 27 bf f8 	clr  [ %fp + -8 ]
    5cb8:	10 80 00 10 	b  5cf8 <DATA_SEGMENT_TO_COPY+0x5c78>
    5cbc:	01 00 00 00 	nop 
    5cc0:	c2 07 bf f8 	ld  [ %fp + -8 ], %g1
    5cc4:	83 28 60 02 	sll  %g1, 2, %g1
    5cc8:	c4 07 a0 44 	ld  [ %fp + 0x44 ], %g2
    5ccc:	82 00 80 01 	add  %g2, %g1, %g1
    5cd0:	c4 00 40 00 	ld  [ %g1 ], %g2
    5cd4:	c2 07 bf f8 	ld  [ %fp + -8 ], %g1
    5cd8:	80 a0 80 01 	cmp  %g2, %g1
    5cdc:	02 80 00 04 	be  5cec <DATA_SEGMENT_TO_COPY+0x5c6c>
    5ce0:	01 00 00 00 	nop 
    5ce4:	82 10 20 01 	mov  1, %g1	! 1 <_start+0x1>
    5ce8:	c2 27 bf fc 	st  %g1, [ %fp + -4 ]
    5cec:	c2 07 bf f8 	ld  [ %fp + -8 ], %g1
    5cf0:	82 00 60 01 	inc  %g1
    5cf4:	c2 27 bf f8 	st  %g1, [ %fp + -8 ]
    5cf8:	c4 07 bf f8 	ld  [ %fp + -8 ], %g2
    5cfc:	c2 07 a0 48 	ld  [ %fp + 0x48 ], %g1
    5d00:	80 a0 80 01 	cmp  %g2, %g1
    5d04:	06 bf ff ef 	bl  5cc0 <DATA_SEGMENT_TO_COPY+0x5c40>
    5d08:	01 00 00 00 	nop 
    5d0c:	c2 07 bf fc 	ld  [ %fp + -4 ], %g1
    5d10:	b0 10 00 01 	mov  %g1, %i0
    5d14:	81 e8 00 00 	restore 
    5d18:	81 c3 e0 08 	retl 
    5d1c:	01 00 00 00 	nop 
    5d20:	9d e3 bf 90 	save  %sp, -112, %sp
    5d24:	90 10 20 03 	mov  3, %o0
    5d28:	40 00 02 1d 	call  659c <DATA_SEGMENT_TO_COPY+0x651c>
    5d2c:	01 00 00 00 	nop 
    5d30:	c0 27 bf f8 	clr  [ %fp + -8 ]
    5d34:	7f ff f4 dc 	call  30a4 <DATA_SEGMENT_TO_COPY+0x3024>
    5d38:	01 00 00 00 	nop 
    5d3c:	d0 27 bf f4 	st  %o0, [ %fp + -12 ]
    5d40:	c0 27 bf fc 	clr  [ %fp + -4 ]
    5d44:	10 80 00 15 	b  5d98 <DATA_SEGMENT_TO_COPY+0x5d18>
    5d48:	01 00 00 00 	nop 
    5d4c:	03 10 01 00 	sethi  %hi(0x40040000), %g1
    5d50:	82 10 60 d8 	or  %g1, 0xd8, %g1	! 400400d8 <DATA_SEGMENT_TO_COPY+0x40040058>
    5d54:	c2 00 40 00 	ld  [ %g1 ], %g1
    5d58:	90 10 00 01 	mov  %g1, %o0
    5d5c:	92 10 21 00 	mov  0x100, %o1
    5d60:	7f ff ff c0 	call  5c60 <DATA_SEGMENT_TO_COPY+0x5be0>
    5d64:	01 00 00 00 	nop 
    5d68:	d0 27 bf f8 	st  %o0, [ %fp + -8 ]
    5d6c:	c2 07 bf f8 	ld  [ %fp + -8 ], %g1
    5d70:	80 a0 60 00 	cmp  %g1, 0
    5d74:	02 80 00 06 	be  5d8c <DATA_SEGMENT_TO_COPY+0x5d0c>
    5d78:	01 00 00 00 	nop 
    5d7c:	03 10 01 00 	sethi  %hi(0x40040000), %g1
    5d80:	90 10 60 90 	or  %g1, 0x90, %o0	! 40040090 <DATA_SEGMENT_TO_COPY+0x40040010>
    5d84:	7f ff fd ed 	call  5538 <DATA_SEGMENT_TO_COPY+0x54b8>
    5d88:	01 00 00 00 	nop 
    5d8c:	c2 07 bf fc 	ld  [ %fp + -4 ], %g1
    5d90:	82 00 60 01 	inc  %g1
    5d94:	c2 27 bf fc 	st  %g1, [ %fp + -4 ]
    5d98:	c2 07 bf fc 	ld  [ %fp + -4 ], %g1
    5d9c:	80 a0 60 0f 	cmp  %g1, 0xf
    5da0:	04 bf ff eb 	ble  5d4c <DATA_SEGMENT_TO_COPY+0x5ccc>
    5da4:	01 00 00 00 	nop 
    5da8:	7f ff f4 bf 	call  30a4 <DATA_SEGMENT_TO_COPY+0x3024>
    5dac:	01 00 00 00 	nop 
    5db0:	d0 27 bf f0 	st  %o0, [ %fp + -16 ]
    5db4:	c4 07 bf f0 	ld  [ %fp + -16 ], %g2
    5db8:	c2 07 bf f4 	ld  [ %fp + -12 ], %g1
    5dbc:	82 20 80 01 	sub  %g2, %g1, %g1
    5dc0:	05 10 01 00 	sethi  %hi(0x40040000), %g2
    5dc4:	90 10 a0 a8 	or  %g2, 0xa8, %o0	! 400400a8 <DATA_SEGMENT_TO_COPY+0x40040028>
    5dc8:	92 10 00 01 	mov  %g1, %o1
    5dcc:	7f ff fd db 	call  5538 <DATA_SEGMENT_TO_COPY+0x54b8>
    5dd0:	01 00 00 00 	nop 
    5dd4:	7f ff f4 b4 	call  30a4 <DATA_SEGMENT_TO_COPY+0x3024>
    5dd8:	01 00 00 00 	nop 
    5ddc:	d0 27 bf f4 	st  %o0, [ %fp + -12 ]
    5de0:	c0 27 bf fc 	clr  [ %fp + -4 ]
    5de4:	10 80 00 15 	b  5e38 <DATA_SEGMENT_TO_COPY+0x5db8>
    5de8:	01 00 00 00 	nop 
    5dec:	03 10 01 00 	sethi  %hi(0x40040000), %g1
    5df0:	82 10 60 d8 	or  %g1, 0xd8, %g1	! 400400d8 <DATA_SEGMENT_TO_COPY+0x40040058>
    5df4:	c2 00 40 00 	ld  [ %g1 ], %g1
    5df8:	90 10 00 01 	mov  %g1, %o0
    5dfc:	92 10 22 00 	mov  0x200, %o1
    5e00:	7f ff ff 98 	call  5c60 <DATA_SEGMENT_TO_COPY+0x5be0>
    5e04:	01 00 00 00 	nop 
    5e08:	d0 27 bf f8 	st  %o0, [ %fp + -8 ]
    5e0c:	c2 07 bf f8 	ld  [ %fp + -8 ], %g1
    5e10:	80 a0 60 00 	cmp  %g1, 0
    5e14:	02 80 00 06 	be  5e2c <DATA_SEGMENT_TO_COPY+0x5dac>
    5e18:	01 00 00 00 	nop 
    5e1c:	03 10 01 00 	sethi  %hi(0x40040000), %g1
    5e20:	90 10 60 90 	or  %g1, 0x90, %o0	! 40040090 <DATA_SEGMENT_TO_COPY+0x40040010>
    5e24:	7f ff fd c5 	call  5538 <DATA_SEGMENT_TO_COPY+0x54b8>
    5e28:	01 00 00 00 	nop 
    5e2c:	c2 07 bf fc 	ld  [ %fp + -4 ], %g1
    5e30:	82 00 60 01 	inc  %g1
    5e34:	c2 27 bf fc 	st  %g1, [ %fp + -4 ]
    5e38:	c2 07 bf fc 	ld  [ %fp + -4 ], %g1
    5e3c:	80 a0 60 0f 	cmp  %g1, 0xf
    5e40:	04 bf ff eb 	ble  5dec <DATA_SEGMENT_TO_COPY+0x5d6c>
    5e44:	01 00 00 00 	nop 
    5e48:	7f ff f4 97 	call  30a4 <DATA_SEGMENT_TO_COPY+0x3024>
    5e4c:	01 00 00 00 	nop 
    5e50:	d0 27 bf f0 	st  %o0, [ %fp + -16 ]
    5e54:	c4 07 bf f0 	ld  [ %fp + -16 ], %g2
    5e58:	c2 07 bf f4 	ld  [ %fp + -12 ], %g1
    5e5c:	82 20 80 01 	sub  %g2, %g1, %g1
    5e60:	05 10 01 00 	sethi  %hi(0x40040000), %g2
    5e64:	90 10 a0 a8 	or  %g2, 0xa8, %o0	! 400400a8 <DATA_SEGMENT_TO_COPY+0x40040028>
    5e68:	92 10 00 01 	mov  %g1, %o1
    5e6c:	7f ff fd b3 	call  5538 <DATA_SEGMENT_TO_COPY+0x54b8>
    5e70:	01 00 00 00 	nop 
    5e74:	7f ff f4 8c 	call  30a4 <DATA_SEGMENT_TO_COPY+0x3024>
    5e78:	01 00 00 00 	nop 
    5e7c:	d0 27 bf f4 	st  %o0, [ %fp + -12 ]
    5e80:	c0 27 bf fc 	clr  [ %fp + -4 ]
    5e84:	10 80 00 15 	b  5ed8 <DATA_SEGMENT_TO_COPY+0x5e58>
    5e88:	01 00 00 00 	nop 
    5e8c:	03 10 01 00 	sethi  %hi(0x40040000), %g1
    5e90:	82 10 60 d8 	or  %g1, 0xd8, %g1	! 400400d8 <DATA_SEGMENT_TO_COPY+0x40040058>
    5e94:	c2 00 40 00 	ld  [ %g1 ], %g1
    5e98:	90 10 00 01 	mov  %g1, %o0
    5e9c:	92 10 24 00 	mov  0x400, %o1
    5ea0:	7f ff ff 70 	call  5c60 <DATA_SEGMENT_TO_COPY+0x5be0>
    5ea4:	01 00 00 00 	nop 
    5ea8:	d0 27 bf f8 	st  %o0, [ %fp + -8 ]
    5eac:	c2 07 bf f8 	ld  [ %fp + -8 ], %g1
    5eb0:	80 a0 60 00 	cmp  %g1, 0
    5eb4:	02 80 00 06 	be  5ecc <DATA_SEGMENT_TO_COPY+0x5e4c>
    5eb8:	01 00 00 00 	nop 
    5ebc:	03 10 01 00 	sethi  %hi(0x40040000), %g1
    5ec0:	90 10 60 90 	or  %g1, 0x90, %o0	! 40040090 <DATA_SEGMENT_TO_COPY+0x40040010>
    5ec4:	7f ff fd 9d 	call  5538 <DATA_SEGMENT_TO_COPY+0x54b8>
    5ec8:	01 00 00 00 	nop 
    5ecc:	c2 07 bf fc 	ld  [ %fp + -4 ], %g1
    5ed0:	82 00 60 01 	inc  %g1
    5ed4:	c2 27 bf fc 	st  %g1, [ %fp + -4 ]
    5ed8:	c2 07 bf fc 	ld  [ %fp + -4 ], %g1
    5edc:	80 a0 60 0f 	cmp  %g1, 0xf
    5ee0:	04 bf ff eb 	ble  5e8c <DATA_SEGMENT_TO_COPY+0x5e0c>
    5ee4:	01 00 00 00 	nop 
    5ee8:	7f ff f4 6f 	call  30a4 <DATA_SEGMENT_TO_COPY+0x3024>
    5eec:	01 00 00 00 	nop 
    5ef0:	d0 27 bf f0 	st  %o0, [ %fp + -16 ]
    5ef4:	c4 07 bf f0 	ld  [ %fp + -16 ], %g2
    5ef8:	c2 07 bf f4 	ld  [ %fp + -12 ], %g1
    5efc:	82 20 80 01 	sub  %g2, %g1, %g1
    5f00:	05 10 01 00 	sethi  %hi(0x40040000), %g2
    5f04:	90 10 a0 a8 	or  %g2, 0xa8, %o0	! 400400a8 <DATA_SEGMENT_TO_COPY+0x40040028>
    5f08:	92 10 00 01 	mov  %g1, %o1
    5f0c:	7f ff fd 8b 	call  5538 <DATA_SEGMENT_TO_COPY+0x54b8>
    5f10:	01 00 00 00 	nop 
    5f14:	7f ff f4 64 	call  30a4 <DATA_SEGMENT_TO_COPY+0x3024>
    5f18:	01 00 00 00 	nop 
    5f1c:	d0 27 bf f4 	st  %o0, [ %fp + -12 ]
    5f20:	c0 27 bf fc 	clr  [ %fp + -4 ]
    5f24:	10 80 00 15 	b  5f78 <DATA_SEGMENT_TO_COPY+0x5ef8>
    5f28:	01 00 00 00 	nop 
    5f2c:	03 10 01 00 	sethi  %hi(0x40040000), %g1
    5f30:	82 10 60 d8 	or  %g1, 0xd8, %g1	! 400400d8 <DATA_SEGMENT_TO_COPY+0x40040058>
    5f34:	c2 00 40 00 	ld  [ %g1 ], %g1
    5f38:	90 10 00 01 	mov  %g1, %o0
    5f3c:	92 10 28 00 	mov  0x800, %o1
    5f40:	7f ff ff 48 	call  5c60 <DATA_SEGMENT_TO_COPY+0x5be0>
    5f44:	01 00 00 00 	nop 
    5f48:	d0 27 bf f8 	st  %o0, [ %fp + -8 ]
    5f4c:	c2 07 bf f8 	ld  [ %fp + -8 ], %g1
    5f50:	80 a0 60 00 	cmp  %g1, 0
    5f54:	02 80 00 06 	be  5f6c <DATA_SEGMENT_TO_COPY+0x5eec>
    5f58:	01 00 00 00 	nop 
    5f5c:	03 10 01 00 	sethi  %hi(0x40040000), %g1
    5f60:	90 10 60 90 	or  %g1, 0x90, %o0	! 40040090 <DATA_SEGMENT_TO_COPY+0x40040010>
    5f64:	7f ff fd 75 	call  5538 <DATA_SEGMENT_TO_COPY+0x54b8>
    5f68:	01 00 00 00 	nop 
    5f6c:	c2 07 bf fc 	ld  [ %fp + -4 ], %g1
    5f70:	82 00 60 01 	inc  %g1
    5f74:	c2 27 bf fc 	st  %g1, [ %fp + -4 ]
    5f78:	c2 07 bf fc 	ld  [ %fp + -4 ], %g1
    5f7c:	80 a0 60 0f 	cmp  %g1, 0xf
    5f80:	04 bf ff eb 	ble  5f2c <DATA_SEGMENT_TO_COPY+0x5eac>
    5f84:	01 00 00 00 	nop 
    5f88:	7f ff f4 47 	call  30a4 <DATA_SEGMENT_TO_COPY+0x3024>
    5f8c:	01 00 00 00 	nop 
    5f90:	d0 27 bf f0 	st  %o0, [ %fp + -16 ]
    5f94:	c4 07 bf f0 	ld  [ %fp + -16 ], %g2
    5f98:	c2 07 bf f4 	ld  [ %fp + -12 ], %g1
    5f9c:	82 20 80 01 	sub  %g2, %g1, %g1
    5fa0:	05 10 01 00 	sethi  %hi(0x40040000), %g2
    5fa4:	90 10 a0 a8 	or  %g2, 0xa8, %o0	! 400400a8 <DATA_SEGMENT_TO_COPY+0x40040028>
    5fa8:	92 10 00 01 	mov  %g1, %o1
    5fac:	7f ff fd 63 	call  5538 <DATA_SEGMENT_TO_COPY+0x54b8>
    5fb0:	01 00 00 00 	nop 
    5fb4:	7f ff f4 3c 	call  30a4 <DATA_SEGMENT_TO_COPY+0x3024>
    5fb8:	01 00 00 00 	nop 
    5fbc:	d0 27 bf f4 	st  %o0, [ %fp + -12 ]
    5fc0:	c0 27 bf fc 	clr  [ %fp + -4 ]
    5fc4:	10 80 00 15 	b  6018 <DATA_SEGMENT_TO_COPY+0x5f98>
    5fc8:	01 00 00 00 	nop 
    5fcc:	03 10 01 00 	sethi  %hi(0x40040000), %g1
    5fd0:	82 10 60 d8 	or  %g1, 0xd8, %g1	! 400400d8 <DATA_SEGMENT_TO_COPY+0x40040058>
    5fd4:	c2 00 40 00 	ld  [ %g1 ], %g1
    5fd8:	90 10 00 01 	mov  %g1, %o0
    5fdc:	13 00 00 04 	sethi  %hi(0x1000), %o1
    5fe0:	7f ff ff 20 	call  5c60 <DATA_SEGMENT_TO_COPY+0x5be0>
    5fe4:	01 00 00 00 	nop 
    5fe8:	d0 27 bf f8 	st  %o0, [ %fp + -8 ]
    5fec:	c2 07 bf f8 	ld  [ %fp + -8 ], %g1
    5ff0:	80 a0 60 00 	cmp  %g1, 0
    5ff4:	02 80 00 06 	be  600c <DATA_SEGMENT_TO_COPY+0x5f8c>
    5ff8:	01 00 00 00 	nop 
    5ffc:	03 10 01 00 	sethi  %hi(0x40040000), %g1
    6000:	90 10 60 90 	or  %g1, 0x90, %o0	! 40040090 <DATA_SEGMENT_TO_COPY+0x40040010>
    6004:	7f ff fd 4d 	call  5538 <DATA_SEGMENT_TO_COPY+0x54b8>
    6008:	01 00 00 00 	nop 
    600c:	c2 07 bf fc 	ld  [ %fp + -4 ], %g1
    6010:	82 00 60 01 	inc  %g1
    6014:	c2 27 bf fc 	st  %g1, [ %fp + -4 ]
    6018:	c2 07 bf fc 	ld  [ %fp + -4 ], %g1
    601c:	80 a0 60 0f 	cmp  %g1, 0xf
    6020:	04 bf ff eb 	ble  5fcc <DATA_SEGMENT_TO_COPY+0x5f4c>
    6024:	01 00 00 00 	nop 
    6028:	7f ff f4 1f 	call  30a4 <DATA_SEGMENT_TO_COPY+0x3024>
    602c:	01 00 00 00 	nop 
    6030:	d0 27 bf f0 	st  %o0, [ %fp + -16 ]
    6034:	c4 07 bf f0 	ld  [ %fp + -16 ], %g2
    6038:	c2 07 bf f4 	ld  [ %fp + -12 ], %g1
    603c:	82 20 80 01 	sub  %g2, %g1, %g1
    6040:	05 10 01 00 	sethi  %hi(0x40040000), %g2
    6044:	90 10 a0 a8 	or  %g2, 0xa8, %o0	! 400400a8 <DATA_SEGMENT_TO_COPY+0x40040028>
    6048:	92 10 00 01 	mov  %g1, %o1
    604c:	7f ff fd 3b 	call  5538 <DATA_SEGMENT_TO_COPY+0x54b8>
    6050:	01 00 00 00 	nop 
    6054:	7f ff f4 14 	call  30a4 <DATA_SEGMENT_TO_COPY+0x3024>
    6058:	01 00 00 00 	nop 
    605c:	d0 27 bf f4 	st  %o0, [ %fp + -12 ]
    6060:	c0 27 bf fc 	clr  [ %fp + -4 ]
    6064:	10 80 00 15 	b  60b8 <DATA_SEGMENT_TO_COPY+0x6038>
    6068:	01 00 00 00 	nop 
    606c:	03 10 01 00 	sethi  %hi(0x40040000), %g1
    6070:	82 10 60 d8 	or  %g1, 0xd8, %g1	! 400400d8 <DATA_SEGMENT_TO_COPY+0x40040058>
    6074:	c2 00 40 00 	ld  [ %g1 ], %g1
    6078:	90 10 00 01 	mov  %g1, %o0
    607c:	13 00 00 08 	sethi  %hi(0x2000), %o1
    6080:	7f ff fe f8 	call  5c60 <DATA_SEGMENT_TO_COPY+0x5be0>
    6084:	01 00 00 00 	nop 
    6088:	d0 27 bf f8 	st  %o0, [ %fp + -8 ]
    608c:	c2 07 bf f8 	ld  [ %fp + -8 ], %g1
    6090:	80 a0 60 00 	cmp  %g1, 0
    6094:	02 80 00 06 	be  60ac <DATA_SEGMENT_TO_COPY+0x602c>
    6098:	01 00 00 00 	nop 
    609c:	03 10 01 00 	sethi  %hi(0x40040000), %g1
    60a0:	90 10 60 90 	or  %g1, 0x90, %o0	! 40040090 <DATA_SEGMENT_TO_COPY+0x40040010>
    60a4:	7f ff fd 25 	call  5538 <DATA_SEGMENT_TO_COPY+0x54b8>
    60a8:	01 00 00 00 	nop 
    60ac:	c2 07 bf fc 	ld  [ %fp + -4 ], %g1
    60b0:	82 00 60 01 	inc  %g1
    60b4:	c2 27 bf fc 	st  %g1, [ %fp + -4 ]
    60b8:	c2 07 bf fc 	ld  [ %fp + -4 ], %g1
    60bc:	80 a0 60 0f 	cmp  %g1, 0xf
    60c0:	04 bf ff eb 	ble  606c <DATA_SEGMENT_TO_COPY+0x5fec>
    60c4:	01 00 00 00 	nop 
    60c8:	7f ff f3 f7 	call  30a4 <DATA_SEGMENT_TO_COPY+0x3024>
    60cc:	01 00 00 00 	nop 
    60d0:	d0 27 bf f0 	st  %o0, [ %fp + -16 ]
    60d4:	c4 07 bf f0 	ld  [ %fp + -16 ], %g2
    60d8:	c2 07 bf f4 	ld  [ %fp + -12 ], %g1
    60dc:	82 20 80 01 	sub  %g2, %g1, %g1
    60e0:	05 10 01 00 	sethi  %hi(0x40040000), %g2
    60e4:	90 10 a0 a8 	or  %g2, 0xa8, %o0	! 400400a8 <DATA_SEGMENT_TO_COPY+0x40040028>
    60e8:	92 10 00 01 	mov  %g1, %o1
    60ec:	7f ff fd 13 	call  5538 <DATA_SEGMENT_TO_COPY+0x54b8>
    60f0:	01 00 00 00 	nop 
    60f4:	03 10 01 00 	sethi  %hi(0x40040000), %g1
    60f8:	90 10 60 c8 	or  %g1, 0xc8, %o0	! 400400c8 <DATA_SEGMENT_TO_COPY+0x40040048>
    60fc:	7f ff fd 0f 	call  5538 <DATA_SEGMENT_TO_COPY+0x54b8>
    6100:	01 00 00 00 	nop 
    6104:	b0 10 00 01 	mov  %g1, %i0
    6108:	81 e8 00 00 	restore 
    610c:	81 c3 e0 08 	retl 
    6110:	01 00 00 00 	nop 
    6114:	9d e3 bf 98 	save  %sp, -104, %sp
    6118:	82 10 00 00 	mov  %g0, %g1
    611c:	84 10 00 00 	mov  %g0, %g2
    6120:	86 10 00 00 	mov  %g0, %g3
    6124:	88 10 00 00 	mov  %g0, %g4
    6128:	8a 10 00 00 	mov  %g0, %g5
    612c:	8c 10 00 00 	mov  %g0, %g6
    6130:	8e 10 00 00 	mov  %g0, %g7
    6134:	b0 10 00 00 	mov  %g0, %i0
    6138:	b2 10 00 00 	mov  %g0, %i1
    613c:	b4 10 00 00 	mov  %g0, %i2
    6140:	b6 10 00 00 	mov  %g0, %i3
    6144:	b8 10 00 00 	mov  %g0, %i4
    6148:	ba 10 00 00 	mov  %g0, %i5
    614c:	bc 10 00 00 	mov  %g0, %fp
    6150:	be 10 00 00 	mov  %g0, %i7
    6154:	a0 10 00 00 	mov  %g0, %l0
    6158:	a2 10 00 00 	mov  %g0, %l1
    615c:	a4 10 00 00 	mov  %g0, %l2
    6160:	a6 10 00 00 	mov  %g0, %l3
    6164:	a8 10 00 00 	mov  %g0, %l4
    6168:	aa 10 00 00 	mov  %g0, %l5
    616c:	ac 10 00 00 	mov  %g0, %l6
    6170:	ae 10 00 00 	mov  %g0, %l7
    6174:	90 10 00 00 	mov  %g0, %o0
    6178:	92 10 00 00 	mov  %g0, %o1
    617c:	94 10 00 00 	mov  %g0, %o2
    6180:	96 10 00 00 	mov  %g0, %o3
    6184:	98 10 00 00 	mov  %g0, %o4
    6188:	9a 10 00 00 	mov  %g0, %o5
    618c:	9c 10 00 00 	mov  %g0, %sp
    6190:	9e 10 00 00 	mov  %g0, %o7
    6194:	c0 27 bf fc 	clr  [ %fp + -4 ]
    6198:	c0 27 bf fc 	clr  [ %fp + -4 ]
    619c:	10 80 00 16 	b  61f4 <DATA_SEGMENT_TO_COPY+0x6174>
    61a0:	01 00 00 00 	nop 
    61a4:	81 e0 00 00 	save 
    61a8:	a0 10 00 00 	mov  %g0, %l0
    61ac:	a2 10 00 00 	mov  %g0, %l1
    61b0:	a4 10 00 00 	mov  %g0, %l2
    61b4:	a6 10 00 00 	mov  %g0, %l3
    61b8:	a8 10 00 00 	mov  %g0, %l4
    61bc:	aa 10 00 00 	mov  %g0, %l5
    61c0:	ac 10 00 00 	mov  %g0, %l6
    61c4:	ae 10 00 00 	mov  %g0, %l7
    61c8:	90 10 00 00 	mov  %g0, %o0
    61cc:	92 10 00 00 	mov  %g0, %o1
    61d0:	94 10 00 00 	mov  %g0, %o2
    61d4:	96 10 00 00 	mov  %g0, %o3
    61d8:	98 10 00 00 	mov  %g0, %o4
    61dc:	9a 10 00 00 	mov  %g0, %o5
    61e0:	9c 10 00 00 	mov  %g0, %sp
    61e4:	9e 10 00 00 	mov  %g0, %o7
    61e8:	c2 07 bf fc 	ld  [ %fp + -4 ], %g1
    61ec:	82 00 60 01 	inc  %g1
    61f0:	c2 27 bf fc 	st  %g1, [ %fp + -4 ]
    61f4:	c2 07 bf fc 	ld  [ %fp + -4 ], %g1
    61f8:	80 a0 60 06 	cmp  %g1, 6
    61fc:	04 bf ff ea 	ble  61a4 <DATA_SEGMENT_TO_COPY+0x6124>
    6200:	01 00 00 00 	nop 
    6204:	c0 27 bf fc 	clr  [ %fp + -4 ]
    6208:	10 80 00 06 	b  6220 <DATA_SEGMENT_TO_COPY+0x61a0>
    620c:	01 00 00 00 	nop 
    6210:	81 e8 00 00 	restore 
    6214:	c2 07 bf fc 	ld  [ %fp + -4 ], %g1
    6218:	82 00 60 01 	inc  %g1
    621c:	c2 27 bf fc 	st  %g1, [ %fp + -4 ]
    6220:	c2 07 bf fc 	ld  [ %fp + -4 ], %g1
    6224:	80 a0 60 06 	cmp  %g1, 6
    6228:	04 bf ff fa 	ble  6210 <DATA_SEGMENT_TO_COPY+0x6190>
    622c:	01 00 00 00 	nop 
    6230:	81 e8 00 00 	restore 
    6234:	81 c3 e0 08 	retl 
    6238:	01 00 00 00 	nop 
    623c:	9d e3 bf 98 	save  %sp, -104, %sp
    6240:	bb 47 40 00 	rd  %asr29, %i5
    6244:	fa 27 bf fc 	st  %i5, [ %fp + -4 ]
    6248:	c2 07 bf fc 	ld  [ %fp + -4 ], %g1
    624c:	b0 10 00 01 	mov  %g1, %i0
    6250:	81 e8 00 00 	restore 
    6254:	81 c3 e0 08 	retl 
    6258:	01 00 00 00 	nop 
    625c:	9d e3 bf 98 	save  %sp, -104, %sp
    6260:	f0 27 a0 44 	st  %i0, [ %fp + 0x44 ]
    6264:	f2 27 a0 48 	st  %i1, [ %fp + 0x48 ]
    6268:	7f ff ff f5 	call  623c <DATA_SEGMENT_TO_COPY+0x61bc>
    626c:	01 00 00 00 	nop 
    6270:	d0 27 bf fc 	st  %o0, [ %fp + -4 ]
    6274:	c2 07 bf fc 	ld  [ %fp + -4 ], %g1
    6278:	83 30 60 08 	srl  %g1, 8, %g1
    627c:	84 10 00 01 	mov  %g1, %g2
    6280:	c2 07 a0 44 	ld  [ %fp + 0x44 ], %g1
    6284:	c4 28 40 00 	stb  %g2, [ %g1 ]
    6288:	c2 07 bf fc 	ld  [ %fp + -4 ], %g1
    628c:	84 10 00 01 	mov  %g1, %g2
    6290:	c2 07 a0 48 	ld  [ %fp + 0x48 ], %g1
    6294:	c4 28 40 00 	stb  %g2, [ %g1 ]
    6298:	81 e8 00 00 	restore 
    629c:	81 c3 e0 08 	retl 
    62a0:	01 00 00 00 	nop 
    62a4:	9d e3 bf 98 	save  %sp, -104, %sp
    62a8:	bb 47 80 00 	rd  %asr30, %i5
    62ac:	fa 27 bf fc 	st  %i5, [ %fp + -4 ]
    62b0:	c2 07 bf fc 	ld  [ %fp + -4 ], %g1
    62b4:	b0 10 00 01 	mov  %g1, %i0
    62b8:	81 e8 00 00 	restore 
    62bc:	81 c3 e0 08 	retl 
    62c0:	01 00 00 00 	nop 
    62c4:	9d e3 bf 98 	save  %sp, -104, %sp
    62c8:	bb 47 c0 00 	rd  %asr31, %i5
    62cc:	fa 27 bf fc 	st  %i5, [ %fp + -4 ]
    62d0:	c2 07 bf fc 	ld  [ %fp + -4 ], %g1
    62d4:	b0 10 00 01 	mov  %g1, %i0
    62d8:	81 e8 00 00 	restore 
    62dc:	81 c3 e0 08 	retl 
    62e0:	01 00 00 00 	nop 
    62e4:	9d e3 bf 90 	save  %sp, -112, %sp
    62e8:	7f ff ff f7 	call  62c4 <DATA_SEGMENT_TO_COPY+0x6244>
    62ec:	01 00 00 00 	nop 
    62f0:	d0 27 bf fc 	st  %o0, [ %fp + -4 ]
    62f4:	7f ff ff ec 	call  62a4 <DATA_SEGMENT_TO_COPY+0x6224>
    62f8:	01 00 00 00 	nop 
    62fc:	d0 27 bf f8 	st  %o0, [ %fp + -8 ]
    6300:	c2 07 bf f8 	ld  [ %fp + -8 ], %g1
    6304:	84 10 20 00 	clr  %g2
    6308:	86 10 00 01 	mov  %g1, %g3
    630c:	c4 3f bf f0 	std  %g2, [ %fp + -16 ]
    6310:	c2 07 bf f4 	ld  [ %fp + -12 ], %g1
    6314:	83 28 60 00 	sll  %g1, 0, %g1
    6318:	c2 27 bf f0 	st  %g1, [ %fp + -16 ]
    631c:	c0 27 bf f4 	clr  [ %fp + -12 ]
    6320:	c2 07 bf fc 	ld  [ %fp + -4 ], %g1
    6324:	84 10 20 00 	clr  %g2
    6328:	86 10 00 01 	mov  %g1, %g3
    632c:	f8 1f bf f0 	ldd  [ %fp + -16 ], %i4
    6330:	84 17 00 02 	or  %i4, %g2, %g2
    6334:	86 17 40 03 	or  %i5, %g3, %g3
    6338:	c4 3f bf f0 	std  %g2, [ %fp + -16 ]
    633c:	c4 1f bf f0 	ldd  [ %fp + -16 ], %g2
    6340:	b0 10 00 02 	mov  %g2, %i0
    6344:	b2 10 00 03 	mov  %g3, %i1
    6348:	81 e8 00 00 	restore 
    634c:	81 c3 e0 08 	retl 
    6350:	01 00 00 00 	nop 
    6354:	9d e3 bf 90 	save  %sp, -112, %sp
    6358:	f0 27 a0 44 	st  %i0, [ %fp + 0x44 ]
    635c:	7f ff ff e2 	call  62e4 <DATA_SEGMENT_TO_COPY+0x6264>
    6360:	01 00 00 00 	nop 
    6364:	d0 3f bf f8 	std  %o0, [ %fp + -8 ]
    6368:	c2 07 a0 44 	ld  [ %fp + 0x44 ], %g1
    636c:	b4 10 20 00 	clr  %i2
    6370:	b6 10 00 01 	mov  %g1, %i3
    6374:	f8 1f bf f8 	ldd  [ %fp + -8 ], %i4
    6378:	86 86 c0 1d 	addcc  %i3, %i5, %g3
    637c:	84 46 80 1c 	addx  %i2, %i4, %g2
    6380:	c4 3f bf f0 	std  %g2, [ %fp + -16 ]
    6384:	10 80 00 05 	b  6398 <DATA_SEGMENT_TO_COPY+0x6318>
    6388:	01 00 00 00 	nop 
    638c:	7f ff ff d6 	call  62e4 <DATA_SEGMENT_TO_COPY+0x6264>
    6390:	01 00 00 00 	nop 
    6394:	d0 3f bf f8 	std  %o0, [ %fp + -8 ]
    6398:	c4 07 bf f0 	ld  [ %fp + -16 ], %g2
    639c:	c2 07 bf f8 	ld  [ %fp + -8 ], %g1
    63a0:	80 a0 80 01 	cmp  %g2, %g1
    63a4:	18 bf ff fa 	bgu  638c <DATA_SEGMENT_TO_COPY+0x630c>
    63a8:	01 00 00 00 	nop 
    63ac:	c4 07 bf f0 	ld  [ %fp + -16 ], %g2
    63b0:	c2 07 bf f8 	ld  [ %fp + -8 ], %g1
    63b4:	80 a0 80 01 	cmp  %g2, %g1
    63b8:	12 80 00 07 	bne  63d4 <DATA_SEGMENT_TO_COPY+0x6354>
    63bc:	01 00 00 00 	nop 
    63c0:	c4 07 bf f4 	ld  [ %fp + -12 ], %g2
    63c4:	c2 07 bf fc 	ld  [ %fp + -4 ], %g1
    63c8:	80 a0 80 01 	cmp  %g2, %g1
    63cc:	18 bf ff f0 	bgu  638c <DATA_SEGMENT_TO_COPY+0x630c>
    63d0:	01 00 00 00 	nop 
    63d4:	01 00 00 00 	nop 
    63d8:	81 e8 00 00 	restore 
    63dc:	81 c3 e0 08 	retl 
    63e0:	01 00 00 00 	nop 
    63e4:	9d e3 bf 98 	save  %sp, -104, %sp
    63e8:	82 10 00 18 	mov  %i0, %g1
    63ec:	c2 2f a0 44 	stb  %g1, [ %fp + 0x44 ]
    63f0:	c2 0f a0 44 	ldub  [ %fp + 0x44 ], %g1
    63f4:	82 08 60 ff 	and  %g1, 0xff, %g1
    63f8:	80 a0 60 00 	cmp  %g1, 0
    63fc:	02 80 00 05 	be  6410 <DATA_SEGMENT_TO_COPY+0x6390>
    6400:	01 00 00 00 	nop 
    6404:	82 10 21 00 	mov  0x100, %g1	! 100 <DATA_SEGMENT_TO_COPY+0x80>
    6408:	10 80 00 03 	b  6414 <DATA_SEGMENT_TO_COPY+0x6394>
    640c:	01 00 00 00 	nop 
    6410:	82 10 20 00 	clr  %g1	! 0 <_start>
    6414:	c2 27 bf fc 	st  %g1, [ %fp + -4 ]
    6418:	c0 27 bf f8 	clr  [ %fp + -8 ]
    641c:	c2 07 bf fc 	ld  [ %fp + -4 ], %g1
    6420:	c4 07 bf f8 	ld  [ %fp + -8 ], %g2
    6424:	c2 a0 80 80 	sta  %g1, [ %g2 ] #ASI_N
    6428:	81 e8 00 00 	restore 
    642c:	81 c3 e0 08 	retl 
    6430:	01 00 00 00 	nop 
    6434:	9d e3 bf a0 	save  %sp, -96, %sp
    6438:	f0 27 a0 44 	st  %i0, [ %fp + 0x44 ]
    643c:	f2 27 a0 48 	st  %i1, [ %fp + 0x48 ]
    6440:	c2 07 a0 44 	ld  [ %fp + 0x44 ], %g1
    6444:	c4 07 a0 48 	ld  [ %fp + 0x48 ], %g2
    6448:	c2 a0 80 80 	sta  %g1, [ %g2 ] #ASI_N
    644c:	81 e8 00 00 	restore 
    6450:	81 c3 e0 08 	retl 
    6454:	01 00 00 00 	nop 
    6458:	9d e3 bf a0 	save  %sp, -96, %sp
    645c:	f0 27 a0 44 	st  %i0, [ %fp + 0x44 ]
    6460:	f2 27 a0 48 	st  %i1, [ %fp + 0x48 ]
    6464:	c2 07 a0 44 	ld  [ %fp + 0x44 ], %g1
    6468:	c4 07 a0 48 	ld  [ %fp + 0x48 ], %g2
    646c:	c2 a0 84 00 	sta  %g1, [ %g2 ] #ASI_SCRATCHPAD
    6470:	81 e8 00 00 	restore 
    6474:	81 c3 e0 08 	retl 
    6478:	01 00 00 00 	nop 
    647c:	9d e3 bf 98 	save  %sp, -104, %sp
    6480:	f0 27 a0 44 	st  %i0, [ %fp + 0x44 ]
    6484:	c2 07 a0 44 	ld  [ %fp + 0x44 ], %g1
    6488:	fa 80 40 80 	lda  [ %g1 ] #ASI_N, %i5
    648c:	fa 27 bf fc 	st  %i5, [ %fp + -4 ]
    6490:	c2 07 bf fc 	ld  [ %fp + -4 ], %g1
    6494:	b0 10 00 01 	mov  %g1, %i0
    6498:	81 e8 00 00 	restore 
    649c:	81 c3 e0 08 	retl 
    64a0:	01 00 00 00 	nop 
    64a4:	9d e3 bf 98 	save  %sp, -104, %sp
    64a8:	f0 27 a0 44 	st  %i0, [ %fp + 0x44 ]
    64ac:	c2 07 a0 44 	ld  [ %fp + 0x44 ], %g1
    64b0:	fa 80 44 00 	lda  [ %g1 ] #ASI_SCRATCHPAD, %i5
    64b4:	fa 27 bf fc 	st  %i5, [ %fp + -4 ]
    64b8:	c2 07 bf fc 	ld  [ %fp + -4 ], %g1
    64bc:	b0 10 00 01 	mov  %g1, %i0
    64c0:	81 e8 00 00 	restore 
    64c4:	81 c3 e0 08 	retl 
    64c8:	01 00 00 00 	nop 
    64cc:	9d e3 bf a0 	save  %sp, -96, %sp
    64d0:	81 d8 20 00 	flush  %g0
    64d4:	81 e8 00 00 	restore 
    64d8:	81 c3 e0 08 	retl 
    64dc:	01 00 00 00 	nop 
    64e0:	9d e3 bf a0 	save  %sp, -96, %sp
    64e4:	c0 a0 02 60 	sta  %g0, [ %g0 ] (19)
    64e8:	81 e8 00 00 	restore 
    64ec:	81 c3 e0 08 	retl 
    64f0:	01 00 00 00 	nop 
    64f4:	9d e3 bf 98 	save  %sp, -104, %sp
    64f8:	f0 27 a0 44 	st  %i0, [ %fp + 0x44 ]
    64fc:	03 3f ff cc 	sethi  %hi(0xffff3000), %g1
    6500:	82 10 61 00 	or  %g1, 0x100, %g1	! ffff3100 <DATA_SEGMENT_TO_COPY+0xffff3080>
    6504:	c2 27 bf fc 	st  %g1, [ %fp + -4 ]
    6508:	d0 07 a0 44 	ld  [ %fp + 0x44 ], %o0
    650c:	d2 07 bf fc 	ld  [ %fp + -4 ], %o1
    6510:	7f ff ff d2 	call  6458 <DATA_SEGMENT_TO_COPY+0x63d8>
    6514:	01 00 00 00 	nop 
    6518:	81 e8 00 00 	restore 
    651c:	81 c3 e0 08 	retl 
    6520:	01 00 00 00 	nop 
    6524:	9d e3 bf 98 	save  %sp, -104, %sp
    6528:	03 3f ff cc 	sethi  %hi(0xffff3000), %g1
    652c:	90 10 61 00 	or  %g1, 0x100, %o0	! ffff3100 <DATA_SEGMENT_TO_COPY+0xffff3080>
    6530:	7f ff ff dd 	call  64a4 <DATA_SEGMENT_TO_COPY+0x6424>
    6534:	01 00 00 00 	nop 
    6538:	d0 27 bf fc 	st  %o0, [ %fp + -4 ]
    653c:	c2 07 bf fc 	ld  [ %fp + -4 ], %g1
    6540:	b0 10 00 01 	mov  %g1, %i0
    6544:	81 e8 00 00 	restore 
    6548:	81 c3 e0 08 	retl 
    654c:	01 00 00 00 	nop 
    6550:	9d e3 bf a0 	save  %sp, -96, %sp
    6554:	f0 27 a0 44 	st  %i0, [ %fp + 0x44 ]
    6558:	03 3f ff cc 	sethi  %hi(0xffff3000), %g1
    655c:	82 10 61 00 	or  %g1, 0x100, %g1	! ffff3100 <DATA_SEGMENT_TO_COPY+0xffff3080>
    6560:	c4 07 a0 44 	ld  [ %fp + 0x44 ], %g2
    6564:	c4 20 40 00 	st  %g2, [ %g1 ]
    6568:	81 e8 00 00 	restore 
    656c:	81 c3 e0 08 	retl 
    6570:	01 00 00 00 	nop 
    6574:	9d e3 bf 98 	save  %sp, -104, %sp
    6578:	03 3f ff cc 	sethi  %hi(0xffff3000), %g1
    657c:	82 10 61 00 	or  %g1, 0x100, %g1	! ffff3100 <DATA_SEGMENT_TO_COPY+0xffff3080>
    6580:	c2 00 40 00 	ld  [ %g1 ], %g1
    6584:	c2 27 bf fc 	st  %g1, [ %fp + -4 ]
    6588:	c2 07 bf fc 	ld  [ %fp + -4 ], %g1
    658c:	b0 10 00 01 	mov  %g1, %i0
    6590:	81 e8 00 00 	restore 
    6594:	81 c3 e0 08 	retl 
    6598:	01 00 00 00 	nop 
    659c:	9d e3 bf 98 	save  %sp, -104, %sp
    65a0:	f0 27 a0 44 	st  %i0, [ %fp + 0x44 ]
    65a4:	03 3f ff cc 	sethi  %hi(0xffff3000), %g1
    65a8:	82 10 62 00 	or  %g1, 0x200, %g1	! ffff3200 <DATA_SEGMENT_TO_COPY+0xffff3180>
    65ac:	c2 27 bf fc 	st  %g1, [ %fp + -4 ]
    65b0:	c2 07 a0 44 	ld  [ %fp + 0x44 ], %g1
    65b4:	c4 07 bf fc 	ld  [ %fp + -4 ], %g2
    65b8:	c2 a0 84 00 	sta  %g1, [ %g2 ] #ASI_SCRATCHPAD
    65bc:	81 e8 00 00 	restore 
    65c0:	81 c3 e0 08 	retl 
    65c4:	01 00 00 00 	nop 
    65c8:	9d e3 bf 98 	save  %sp, -104, %sp
    65cc:	86 10 00 18 	mov  %i0, %g3
    65d0:	84 10 00 19 	mov  %i1, %g2
    65d4:	82 10 00 1a 	mov  %i2, %g1
    65d8:	c6 2f a0 44 	stb  %g3, [ %fp + 0x44 ]
    65dc:	c4 2f a0 48 	stb  %g2, [ %fp + 0x48 ]
    65e0:	c2 2f a0 4c 	stb  %g1, [ %fp + 0x4c ]
    65e4:	c0 27 bf fc 	clr  [ %fp + -4 ]
    65e8:	03 3f ff cc 	sethi  %hi(0xffff3000), %g1
    65ec:	82 10 62 00 	or  %g1, 0x200, %g1	! ffff3200 <DATA_SEGMENT_TO_COPY+0xffff3180>
    65f0:	fa 80 44 00 	lda  [ %g1 ] #ASI_SCRATCHPAD, %i5
    65f4:	fa 27 bf fc 	st  %i5, [ %fp + -4 ]
    65f8:	c2 0f a0 44 	ldub  [ %fp + 0x44 ], %g1
    65fc:	82 08 60 ff 	and  %g1, 0xff, %g1
    6600:	80 a0 60 00 	cmp  %g1, 0
    6604:	02 80 00 07 	be  6620 <DATA_SEGMENT_TO_COPY+0x65a0>
    6608:	01 00 00 00 	nop 
    660c:	c2 07 bf fc 	ld  [ %fp + -4 ], %g1
    6610:	82 10 60 01 	or  %g1, 1, %g1
    6614:	c2 27 bf fc 	st  %g1, [ %fp + -4 ]
    6618:	10 80 00 05 	b  662c <DATA_SEGMENT_TO_COPY+0x65ac>
    661c:	01 00 00 00 	nop 
    6620:	c2 07 bf fc 	ld  [ %fp + -4 ], %g1
    6624:	82 08 7f fe 	and  %g1, -2, %g1
    6628:	c2 27 bf fc 	st  %g1, [ %fp + -4 ]
    662c:	c2 0f a0 48 	ldub  [ %fp + 0x48 ], %g1
    6630:	82 08 60 ff 	and  %g1, 0xff, %g1
    6634:	80 a0 60 00 	cmp  %g1, 0
    6638:	02 80 00 07 	be  6654 <DATA_SEGMENT_TO_COPY+0x65d4>
    663c:	01 00 00 00 	nop 
    6640:	c2 07 bf fc 	ld  [ %fp + -4 ], %g1
    6644:	82 10 60 02 	or  %g1, 2, %g1
    6648:	c2 27 bf fc 	st  %g1, [ %fp + -4 ]
    664c:	10 80 00 05 	b  6660 <DATA_SEGMENT_TO_COPY+0x65e0>
    6650:	01 00 00 00 	nop 
    6654:	c2 07 bf fc 	ld  [ %fp + -4 ], %g1
    6658:	82 08 7f fd 	and  %g1, -3, %g1
    665c:	c2 27 bf fc 	st  %g1, [ %fp + -4 ]
    6660:	c2 0f a0 4c 	ldub  [ %fp + 0x4c ], %g1
    6664:	82 08 60 ff 	and  %g1, 0xff, %g1
    6668:	80 a0 60 00 	cmp  %g1, 0
    666c:	02 80 00 07 	be  6688 <DATA_SEGMENT_TO_COPY+0x6608>
    6670:	01 00 00 00 	nop 
    6674:	c2 07 bf fc 	ld  [ %fp + -4 ], %g1
    6678:	82 10 60 04 	or  %g1, 4, %g1
    667c:	c2 27 bf fc 	st  %g1, [ %fp + -4 ]
    6680:	10 80 00 05 	b  6694 <DATA_SEGMENT_TO_COPY+0x6614>
    6684:	01 00 00 00 	nop 
    6688:	c2 07 bf fc 	ld  [ %fp + -4 ], %g1
    668c:	82 08 7f fb 	and  %g1, -5, %g1
    6690:	c2 27 bf fc 	st  %g1, [ %fp + -4 ]
    6694:	c2 07 bf fc 	ld  [ %fp + -4 ], %g1
    6698:	05 3f ff cc 	sethi  %hi(0xffff3000), %g2
    669c:	84 10 a2 00 	or  %g2, 0x200, %g2	! ffff3200 <DATA_SEGMENT_TO_COPY+0xffff3180>
    66a0:	c2 a0 84 00 	sta  %g1, [ %g2 ] #ASI_SCRATCHPAD
    66a4:	81 e8 00 00 	restore 
    66a8:	81 c3 e0 08 	retl 
    66ac:	01 00 00 00 	nop 
    66b0:	9d e3 bf a0 	save  %sp, -96, %sp
    66b4:	90 10 20 00 	clr  %o0
    66b8:	40 00 02 22 	call  6f40 <DATA_SEGMENT_TO_COPY+0x6ec0>
    66bc:	01 00 00 00 	nop 
    66c0:	81 e8 00 00 	restore 
    66c4:	81 c3 e0 08 	retl 
    66c8:	01 00 00 00 	nop 
    66cc:	9d e3 bf a0 	save  %sp, -96, %sp
    66d0:	f0 27 a0 44 	st  %i0, [ %fp + 0x44 ]
    66d4:	f2 27 a0 48 	st  %i1, [ %fp + 0x48 ]
    66d8:	90 10 20 00 	clr  %o0
    66dc:	d2 07 a0 44 	ld  [ %fp + 0x44 ], %o1
    66e0:	d4 07 a0 48 	ld  [ %fp + 0x48 ], %o2
    66e4:	40 00 00 54 	call  6834 <DATA_SEGMENT_TO_COPY+0x67b4>
    66e8:	01 00 00 00 	nop 
    66ec:	81 e8 00 00 	restore 
    66f0:	81 c3 e0 08 	retl 
    66f4:	01 00 00 00 	nop 
    66f8:	9d e3 bf a0 	save  %sp, -96, %sp
    66fc:	f0 27 a0 44 	st  %i0, [ %fp + 0x44 ]
    6700:	f2 27 a0 48 	st  %i1, [ %fp + 0x48 ]
    6704:	90 10 20 01 	mov  1, %o0
    6708:	d2 07 a0 44 	ld  [ %fp + 0x44 ], %o1
    670c:	d4 07 a0 48 	ld  [ %fp + 0x48 ], %o2
    6710:	40 00 00 49 	call  6834 <DATA_SEGMENT_TO_COPY+0x67b4>
    6714:	01 00 00 00 	nop 
    6718:	81 e8 00 00 	restore 
    671c:	81 c3 e0 08 	retl 
    6720:	01 00 00 00 	nop 
    6724:	9d e3 bf 88 	save  %sp, -120, %sp
    6728:	f0 27 a0 44 	st  %i0, [ %fp + 0x44 ]
    672c:	f2 27 a0 48 	st  %i1, [ %fp + 0x48 ]
    6730:	c0 27 bf fc 	clr  [ %fp + -4 ]
    6734:	c2 07 a0 44 	ld  [ %fp + 0x44 ], %g1
    6738:	83 28 60 04 	sll  %g1, 4, %g1
    673c:	c2 27 bf f8 	st  %g1, [ %fp + -8 ]
    6740:	c2 07 a0 48 	ld  [ %fp + 0x48 ], %g1
    6744:	c2 27 bf f4 	st  %g1, [ %fp + -12 ]
    6748:	c2 07 bf f8 	ld  [ %fp + -8 ], %g1
    674c:	80 a0 60 00 	cmp  %g1, 0
    6750:	02 80 00 34 	be  6820 <DATA_SEGMENT_TO_COPY+0x67a0>
    6754:	01 00 00 00 	nop 
    6758:	c4 07 bf f8 	ld  [ %fp + -8 ], %g2
    675c:	c2 07 bf f4 	ld  [ %fp + -12 ], %g1
    6760:	80 a0 80 01 	cmp  %g2, %g1
    6764:	1a 80 00 2f 	bcc  6820 <DATA_SEGMENT_TO_COPY+0x67a0>
    6768:	01 00 00 00 	nop 
    676c:	10 80 00 03 	b  6778 <DATA_SEGMENT_TO_COPY+0x66f8>
    6770:	01 00 00 00 	nop 
    6774:	01 00 00 00 	nop 
    6778:	c2 07 bf f4 	ld  [ %fp + -12 ], %g1
    677c:	81 80 20 00 	mov  %g0, %y
    6780:	c6 07 bf f8 	ld  [ %fp + -8 ], %g3
    6784:	01 00 00 00 	nop 
    6788:	01 00 00 00 	nop 
    678c:	86 70 40 03 	udiv  %g1, %g3, %g3
    6790:	c4 07 bf f8 	ld  [ %fp + -8 ], %g2
    6794:	84 58 c0 02 	smul  %g3, %g2, %g2
    6798:	82 20 40 02 	sub  %g1, %g2, %g1
    679c:	c2 27 bf f0 	st  %g1, [ %fp + -16 ]
    67a0:	c2 07 bf f8 	ld  [ %fp + -8 ], %g1
    67a4:	c2 27 bf f4 	st  %g1, [ %fp + -12 ]
    67a8:	c2 07 bf f0 	ld  [ %fp + -16 ], %g1
    67ac:	c2 27 bf f8 	st  %g1, [ %fp + -8 ]
    67b0:	c2 07 bf f0 	ld  [ %fp + -16 ], %g1
    67b4:	80 a0 60 00 	cmp  %g1, 0
    67b8:	12 bf ff ef 	bne  6774 <DATA_SEGMENT_TO_COPY+0x66f4>
    67bc:	01 00 00 00 	nop 
    67c0:	01 00 00 00 	nop 
    67c4:	c2 07 a0 44 	ld  [ %fp + 0x44 ], %g1
    67c8:	85 28 60 04 	sll  %g1, 4, %g2
    67cc:	81 80 20 00 	mov  %g0, %y
    67d0:	c2 07 bf f4 	ld  [ %fp + -12 ], %g1
    67d4:	01 00 00 00 	nop 
    67d8:	01 00 00 00 	nop 
    67dc:	82 70 80 01 	udiv  %g2, %g1, %g1
    67e0:	c2 27 bf ec 	st  %g1, [ %fp + -20 ]
    67e4:	c2 07 a0 48 	ld  [ %fp + 0x48 ], %g1
    67e8:	81 80 20 00 	mov  %g0, %y
    67ec:	c4 07 bf f4 	ld  [ %fp + -12 ], %g2
    67f0:	01 00 00 00 	nop 
    67f4:	01 00 00 00 	nop 
    67f8:	84 70 40 02 	udiv  %g1, %g2, %g2
    67fc:	c2 07 bf ec 	ld  [ %fp + -20 ], %g1
    6800:	82 20 80 01 	sub  %g2, %g1, %g1
    6804:	c2 27 bf e8 	st  %g1, [ %fp + -24 ]
    6808:	c2 07 bf e8 	ld  [ %fp + -24 ], %g1
    680c:	85 28 60 10 	sll  %g1, 0x10, %g2
    6810:	c2 07 bf ec 	ld  [ %fp + -20 ], %g1
    6814:	82 08 6f ff 	and  %g1, 0xfff, %g1
    6818:	82 10 80 01 	or  %g2, %g1, %g1
    681c:	c2 27 bf fc 	st  %g1, [ %fp + -4 ]
    6820:	c2 07 bf fc 	ld  [ %fp + -4 ], %g1
    6824:	b0 10 00 01 	mov  %g1, %i0
    6828:	81 e8 00 00 	restore 
    682c:	81 c3 e0 08 	retl 
    6830:	01 00 00 00 	nop 
    6834:	9d e3 bf 98 	save  %sp, -104, %sp
    6838:	82 10 00 18 	mov  %i0, %g1
    683c:	f2 27 a0 48 	st  %i1, [ %fp + 0x48 ]
    6840:	f4 27 a0 4c 	st  %i2, [ %fp + 0x4c ]
    6844:	c2 2f a0 44 	stb  %g1, [ %fp + 0x44 ]
    6848:	03 3f ff cd 	sethi  %hi(0xffff3400), %g1
    684c:	82 10 60 08 	or  %g1, 8, %g1	! ffff3408 <DATA_SEGMENT_TO_COPY+0xffff3388>
    6850:	c2 27 bf fc 	st  %g1, [ %fp + -4 ]
    6854:	d0 07 a0 48 	ld  [ %fp + 0x48 ], %o0
    6858:	d2 07 a0 4c 	ld  [ %fp + 0x4c ], %o1
    685c:	7f ff ff b2 	call  6724 <DATA_SEGMENT_TO_COPY+0x66a4>
    6860:	01 00 00 00 	nop 
    6864:	d0 27 bf f8 	st  %o0, [ %fp + -8 ]
    6868:	c2 0f a0 44 	ldub  [ %fp + 0x44 ], %g1
    686c:	82 08 60 ff 	and  %g1, 0xff, %g1
    6870:	80 a0 60 00 	cmp  %g1, 0
    6874:	02 80 00 07 	be  6890 <DATA_SEGMENT_TO_COPY+0x6810>
    6878:	01 00 00 00 	nop 
    687c:	c2 07 bf fc 	ld  [ %fp + -4 ], %g1
    6880:	c4 07 bf f8 	ld  [ %fp + -8 ], %g2
    6884:	c4 20 40 00 	st  %g2, [ %g1 ]
    6888:	10 80 00 06 	b  68a0 <DATA_SEGMENT_TO_COPY+0x6820>
    688c:	01 00 00 00 	nop 
    6890:	d0 07 bf f8 	ld  [ %fp + -8 ], %o0
    6894:	d2 07 bf fc 	ld  [ %fp + -4 ], %o1
    6898:	7f ff fe f0 	call  6458 <DATA_SEGMENT_TO_COPY+0x63d8>
    689c:	01 00 00 00 	nop 
    68a0:	81 e8 00 00 	restore 
    68a4:	81 c3 e0 08 	retl 
    68a8:	01 00 00 00 	nop 
    68ac:	9d e3 bf 98 	save  %sp, -104, %sp
    68b0:	03 3f ff cc 	sethi  %hi(0xffff3000), %g1
    68b4:	82 10 62 00 	or  %g1, 0x200, %g1	! ffff3200 <DATA_SEGMENT_TO_COPY+0xffff3180>
    68b8:	c2 27 bf fc 	st  %g1, [ %fp + -4 ]
    68bc:	c0 27 bf f8 	clr  [ %fp + -8 ]
    68c0:	c2 07 bf fc 	ld  [ %fp + -4 ], %g1
    68c4:	fa 80 44 00 	lda  [ %g1 ] #ASI_SCRATCHPAD, %i5
    68c8:	fa 27 bf f8 	st  %i5, [ %fp + -8 ]
    68cc:	c2 07 bf f8 	ld  [ %fp + -8 ], %g1
    68d0:	b0 10 00 01 	mov  %g1, %i0
    68d4:	81 e8 00 00 	restore 
    68d8:	81 c3 e0 08 	retl 
    68dc:	01 00 00 00 	nop 
    68e0:	9d e3 bf 98 	save  %sp, -104, %sp
    68e4:	82 10 00 18 	mov  %i0, %g1
    68e8:	c2 2f a0 44 	stb  %g1, [ %fp + 0x44 ]
    68ec:	03 3f ff cc 	sethi  %hi(0xffff3000), %g1
    68f0:	82 10 62 04 	or  %g1, 0x204, %g1	! ffff3204 <DATA_SEGMENT_TO_COPY+0xffff3184>
    68f4:	c2 27 bf fc 	st  %g1, [ %fp + -4 ]
    68f8:	c2 0f a0 44 	ldub  [ %fp + 0x44 ], %g1
    68fc:	c4 07 bf fc 	ld  [ %fp + -4 ], %g2
    6900:	c2 a8 84 00 	stba  %g1, [ %g2 ] #ASI_SCRATCHPAD
    6904:	81 e8 00 00 	restore 
    6908:	81 c3 e0 08 	retl 
    690c:	01 00 00 00 	nop 
    6910:	9d e3 bf 98 	save  %sp, -104, %sp
    6914:	03 3f ff cc 	sethi  %hi(0xffff3000), %g1
    6918:	82 10 62 04 	or  %g1, 0x204, %g1	! ffff3204 <DATA_SEGMENT_TO_COPY+0xffff3184>
    691c:	c2 27 bf fc 	st  %g1, [ %fp + -4 ]
    6920:	c0 2f bf fb 	clrb  [ %fp + -5 ]
    6924:	c2 07 bf fc 	ld  [ %fp + -4 ], %g1
    6928:	fa 88 44 00 	lduba  [ %g1 ] #ASI_SCRATCHPAD, %i5
    692c:	fa 2f bf fb 	stb  %i5, [ %fp + -5 ]
    6930:	c2 0f bf fb 	ldub  [ %fp + -5 ], %g1
    6934:	82 08 60 ff 	and  %g1, 0xff, %g1
    6938:	b0 10 00 01 	mov  %g1, %i0
    693c:	81 e8 00 00 	restore 
    6940:	81 c3 e0 08 	retl 
    6944:	01 00 00 00 	nop 
    6948:	9d e3 bf 98 	save  %sp, -104, %sp
    694c:	03 3f ff cc 	sethi  %hi(0xffff3000), %g1
    6950:	82 10 62 08 	or  %g1, 0x208, %g1	! ffff3208 <DATA_SEGMENT_TO_COPY+0xffff3188>
    6954:	c2 27 bf fc 	st  %g1, [ %fp + -4 ]
    6958:	c0 2f bf fb 	clrb  [ %fp + -5 ]
    695c:	c2 07 bf fc 	ld  [ %fp + -4 ], %g1
    6960:	fa 88 44 00 	lduba  [ %g1 ] #ASI_SCRATCHPAD, %i5
    6964:	fa 2f bf fb 	stb  %i5, [ %fp + -5 ]
    6968:	c2 0f bf fb 	ldub  [ %fp + -5 ], %g1
    696c:	82 08 60 ff 	and  %g1, 0xff, %g1
    6970:	b0 10 00 01 	mov  %g1, %i0
    6974:	81 e8 00 00 	restore 
    6978:	81 c3 e0 08 	retl 
    697c:	01 00 00 00 	nop 
    6980:	9d e3 bf 98 	save  %sp, -104, %sp
    6984:	82 10 00 18 	mov  %i0, %g1
    6988:	c2 2f a0 44 	stb  %g1, [ %fp + 0x44 ]
    698c:	c0 27 bf f8 	clr  [ %fp + -8 ]
    6990:	03 3f ff cc 	sethi  %hi(0xffff3000), %g1
    6994:	82 10 62 00 	or  %g1, 0x200, %g1	! ffff3200 <DATA_SEGMENT_TO_COPY+0xffff3180>
    6998:	fa 80 44 00 	lda  [ %g1 ] #ASI_SCRATCHPAD, %i5
    699c:	fa 27 bf f8 	st  %i5, [ %fp + -8 ]
    69a0:	c0 27 bf fc 	clr  [ %fp + -4 ]
    69a4:	c2 07 bf f8 	ld  [ %fp + -8 ], %g1
    69a8:	82 08 60 01 	and  %g1, 1, %g1
    69ac:	80 a0 60 00 	cmp  %g1, 0
    69b0:	02 80 00 0f 	be  69ec <DATA_SEGMENT_TO_COPY+0x696c>
    69b4:	01 00 00 00 	nop 
    69b8:	c2 07 bf f8 	ld  [ %fp + -8 ], %g1
    69bc:	82 08 60 08 	and  %g1, 8, %g1
    69c0:	80 a0 60 00 	cmp  %g1, 0
    69c4:	12 80 00 0a 	bne  69ec <DATA_SEGMENT_TO_COPY+0x696c>
    69c8:	01 00 00 00 	nop 
    69cc:	c2 0f a0 44 	ldub  [ %fp + 0x44 ], %g1
    69d0:	05 3f ff cc 	sethi  %hi(0xffff3000), %g2
    69d4:	84 10 a2 04 	or  %g2, 0x204, %g2	! ffff3204 <DATA_SEGMENT_TO_COPY+0xffff3184>
    69d8:	c2 a8 84 00 	stba  %g1, [ %g2 ] #ASI_SCRATCHPAD
    69dc:	c2 0f a0 44 	ldub  [ %fp + 0x44 ], %g1
    69e0:	83 28 60 18 	sll  %g1, 0x18, %g1
    69e4:	83 38 60 18 	sra  %g1, 0x18, %g1
    69e8:	c2 27 bf fc 	st  %g1, [ %fp + -4 ]
    69ec:	c2 07 bf fc 	ld  [ %fp + -4 ], %g1
    69f0:	b0 10 00 01 	mov  %g1, %i0
    69f4:	81 e8 00 00 	restore 
    69f8:	81 c3 e0 08 	retl 
    69fc:	01 00 00 00 	nop 
    6a00:	9d e3 bf 90 	save  %sp, -112, %sp
    6a04:	c0 27 bf fc 	clr  [ %fp + -4 ]
    6a08:	7f ff ff a9 	call  68ac <DATA_SEGMENT_TO_COPY+0x682c>
    6a0c:	01 00 00 00 	nop 
    6a10:	d0 27 bf f8 	st  %o0, [ %fp + -8 ]
    6a14:	c2 07 bf f8 	ld  [ %fp + -8 ], %g1
    6a18:	82 08 60 02 	and  %g1, 2, %g1
    6a1c:	80 a0 60 00 	cmp  %g1, 0
    6a20:	02 80 00 0e 	be  6a58 <DATA_SEGMENT_TO_COPY+0x69d8>
    6a24:	01 00 00 00 	nop 
    6a28:	c2 07 bf f8 	ld  [ %fp + -8 ], %g1
    6a2c:	82 08 60 10 	and  %g1, 0x10, %g1
    6a30:	80 a0 60 00 	cmp  %g1, 0
    6a34:	02 80 00 09 	be  6a58 <DATA_SEGMENT_TO_COPY+0x69d8>
    6a38:	01 00 00 00 	nop 
    6a3c:	c0 27 bf f4 	clr  [ %fp + -12 ]
    6a40:	03 3f ff cc 	sethi  %hi(0xffff3000), %g1
    6a44:	82 10 62 08 	or  %g1, 0x208, %g1	! ffff3208 <DATA_SEGMENT_TO_COPY+0xffff3188>
    6a48:	fa 88 44 00 	lduba  [ %g1 ] #ASI_SCRATCHPAD, %i5
    6a4c:	fa 27 bf f4 	st  %i5, [ %fp + -12 ]
    6a50:	c2 07 bf f4 	ld  [ %fp + -12 ], %g1
    6a54:	c2 27 bf fc 	st  %g1, [ %fp + -4 ]
    6a58:	c2 07 bf fc 	ld  [ %fp + -4 ], %g1
    6a5c:	b0 10 00 01 	mov  %g1, %i0
    6a60:	81 e8 00 00 	restore 
    6a64:	81 c3 e0 08 	retl 
    6a68:	01 00 00 00 	nop 
    6a6c:	9d e3 bf 98 	save  %sp, -104, %sp
    6a70:	f0 27 a0 44 	st  %i0, [ %fp + 0x44 ]
    6a74:	f2 27 a0 48 	st  %i1, [ %fp + 0x48 ]
    6a78:	c0 27 bf fc 	clr  [ %fp + -4 ]
    6a7c:	10 80 00 16 	b  6ad4 <DATA_SEGMENT_TO_COPY+0x6a54>
    6a80:	01 00 00 00 	nop 
    6a84:	c0 27 bf f8 	clr  [ %fp + -8 ]
    6a88:	10 80 00 0c 	b  6ab8 <DATA_SEGMENT_TO_COPY+0x6a38>
    6a8c:	01 00 00 00 	nop 
    6a90:	c2 07 bf fc 	ld  [ %fp + -4 ], %g1
    6a94:	c4 07 a0 44 	ld  [ %fp + 0x44 ], %g2
    6a98:	82 00 80 01 	add  %g2, %g1, %g1
    6a9c:	c2 08 40 00 	ldub  [ %g1 ], %g1
    6aa0:	83 28 60 18 	sll  %g1, 0x18, %g1
    6aa4:	83 38 60 18 	sra  %g1, 0x18, %g1
    6aa8:	90 10 00 01 	mov  %g1, %o0
    6aac:	7f ff ff b5 	call  6980 <DATA_SEGMENT_TO_COPY+0x6900>
    6ab0:	01 00 00 00 	nop 
    6ab4:	d0 27 bf f8 	st  %o0, [ %fp + -8 ]
    6ab8:	c2 07 bf f8 	ld  [ %fp + -8 ], %g1
    6abc:	80 a0 60 00 	cmp  %g1, 0
    6ac0:	02 bf ff f4 	be  6a90 <DATA_SEGMENT_TO_COPY+0x6a10>
    6ac4:	01 00 00 00 	nop 
    6ac8:	c2 07 bf fc 	ld  [ %fp + -4 ], %g1
    6acc:	82 00 60 01 	inc  %g1
    6ad0:	c2 27 bf fc 	st  %g1, [ %fp + -4 ]
    6ad4:	c4 07 bf fc 	ld  [ %fp + -4 ], %g2
    6ad8:	c2 07 a0 48 	ld  [ %fp + 0x48 ], %g1
    6adc:	80 a0 80 01 	cmp  %g2, %g1
    6ae0:	0a bf ff e9 	bcs  6a84 <DATA_SEGMENT_TO_COPY+0x6a04>
    6ae4:	01 00 00 00 	nop 
    6ae8:	81 e8 00 00 	restore 
    6aec:	81 c3 e0 08 	retl 
    6af0:	01 00 00 00 	nop 
    6af4:	9d e3 bf 98 	save  %sp, -104, %sp
    6af8:	f0 27 a0 44 	st  %i0, [ %fp + 0x44 ]
    6afc:	f2 27 a0 48 	st  %i1, [ %fp + 0x48 ]
    6b00:	c0 27 bf fc 	clr  [ %fp + -4 ]
    6b04:	10 80 00 14 	b  6b54 <DATA_SEGMENT_TO_COPY+0x6ad4>
    6b08:	01 00 00 00 	nop 
    6b0c:	c0 27 bf f8 	clr  [ %fp + -8 ]
    6b10:	10 80 00 05 	b  6b24 <DATA_SEGMENT_TO_COPY+0x6aa4>
    6b14:	01 00 00 00 	nop 
    6b18:	7f ff ff ba 	call  6a00 <DATA_SEGMENT_TO_COPY+0x6980>
    6b1c:	01 00 00 00 	nop 
    6b20:	d0 27 bf f8 	st  %o0, [ %fp + -8 ]
    6b24:	c2 07 bf f8 	ld  [ %fp + -8 ], %g1
    6b28:	80 a0 60 00 	cmp  %g1, 0
    6b2c:	02 bf ff fb 	be  6b18 <DATA_SEGMENT_TO_COPY+0x6a98>
    6b30:	01 00 00 00 	nop 
    6b34:	c2 07 bf fc 	ld  [ %fp + -4 ], %g1
    6b38:	c4 07 a0 44 	ld  [ %fp + 0x44 ], %g2
    6b3c:	82 00 80 01 	add  %g2, %g1, %g1
    6b40:	c4 07 bf f8 	ld  [ %fp + -8 ], %g2
    6b44:	c4 28 40 00 	stb  %g2, [ %g1 ]
    6b48:	c2 07 bf fc 	ld  [ %fp + -4 ], %g1
    6b4c:	82 00 60 01 	inc  %g1
    6b50:	c2 27 bf fc 	st  %g1, [ %fp + -4 ]
    6b54:	c4 07 bf fc 	ld  [ %fp + -4 ], %g2
    6b58:	c2 07 a0 48 	ld  [ %fp + 0x48 ], %g1
    6b5c:	80 a0 80 01 	cmp  %g2, %g1
    6b60:	0a bf ff eb 	bcs  6b0c <DATA_SEGMENT_TO_COPY+0x6a8c>
    6b64:	01 00 00 00 	nop 
    6b68:	81 e8 00 00 	restore 
    6b6c:	81 c3 e0 08 	retl 
    6b70:	01 00 00 00 	nop 
    6b74:	9d e3 bf a0 	save  %sp, -96, %sp
    6b78:	f0 27 a0 44 	st  %i0, [ %fp + 0x44 ]
    6b7c:	03 3f ff cc 	sethi  %hi(0xffff3000), %g1
    6b80:	82 10 62 00 	or  %g1, 0x200, %g1	! ffff3200 <DATA_SEGMENT_TO_COPY+0xffff3180>
    6b84:	c4 07 a0 44 	ld  [ %fp + 0x44 ], %g2
    6b88:	c4 20 40 00 	st  %g2, [ %g1 ]
    6b8c:	81 e8 00 00 	restore 
    6b90:	81 c3 e0 08 	retl 
    6b94:	01 00 00 00 	nop 
    6b98:	9d e3 bf 98 	save  %sp, -104, %sp
    6b9c:	03 3f ff cc 	sethi  %hi(0xffff3000), %g1
    6ba0:	82 10 62 00 	or  %g1, 0x200, %g1	! ffff3200 <DATA_SEGMENT_TO_COPY+0xffff3180>
    6ba4:	c2 08 40 00 	ldub  [ %g1 ], %g1
    6ba8:	82 08 60 ff 	and  %g1, 0xff, %g1
    6bac:	c2 27 bf fc 	st  %g1, [ %fp + -4 ]
    6bb0:	c2 07 bf fc 	ld  [ %fp + -4 ], %g1
    6bb4:	b0 10 00 01 	mov  %g1, %i0
    6bb8:	81 e8 00 00 	restore 
    6bbc:	81 c3 e0 08 	retl 
    6bc0:	01 00 00 00 	nop 
    6bc4:	9d e3 bf a0 	save  %sp, -96, %sp
    6bc8:	82 10 00 18 	mov  %i0, %g1
    6bcc:	c2 2f a0 44 	stb  %g1, [ %fp + 0x44 ]
    6bd0:	03 3f ff cc 	sethi  %hi(0xffff3000), %g1
    6bd4:	82 10 62 04 	or  %g1, 0x204, %g1	! ffff3204 <DATA_SEGMENT_TO_COPY+0xffff3184>
    6bd8:	c4 0f a0 44 	ldub  [ %fp + 0x44 ], %g2
    6bdc:	c4 28 40 00 	stb  %g2, [ %g1 ]
    6be0:	81 e8 00 00 	restore 
    6be4:	81 c3 e0 08 	retl 
    6be8:	01 00 00 00 	nop 
    6bec:	9d e3 bf 98 	save  %sp, -104, %sp
    6bf0:	03 3f ff cc 	sethi  %hi(0xffff3000), %g1
    6bf4:	82 10 62 04 	or  %g1, 0x204, %g1	! ffff3204 <DATA_SEGMENT_TO_COPY+0xffff3184>
    6bf8:	c2 08 40 00 	ldub  [ %g1 ], %g1
    6bfc:	c2 2f bf ff 	stb  %g1, [ %fp + -1 ]
    6c00:	c2 0f bf ff 	ldub  [ %fp + -1 ], %g1
    6c04:	82 08 60 ff 	and  %g1, 0xff, %g1
    6c08:	b0 10 00 01 	mov  %g1, %i0
    6c0c:	81 e8 00 00 	restore 
    6c10:	81 c3 e0 08 	retl 
    6c14:	01 00 00 00 	nop 
    6c18:	9d e3 bf 98 	save  %sp, -104, %sp
    6c1c:	03 3f ff cc 	sethi  %hi(0xffff3000), %g1
    6c20:	82 10 62 08 	or  %g1, 0x208, %g1	! ffff3208 <DATA_SEGMENT_TO_COPY+0xffff3188>
    6c24:	c2 08 40 00 	ldub  [ %g1 ], %g1
    6c28:	c2 2f bf ff 	stb  %g1, [ %fp + -1 ]
    6c2c:	c2 0f bf ff 	ldub  [ %fp + -1 ], %g1
    6c30:	82 08 60 ff 	and  %g1, 0xff, %g1
    6c34:	b0 10 00 01 	mov  %g1, %i0
    6c38:	81 e8 00 00 	restore 
    6c3c:	81 c3 e0 08 	retl 
    6c40:	01 00 00 00 	nop 
    6c44:	9d e3 bf 98 	save  %sp, -104, %sp
    6c48:	82 10 00 18 	mov  %i0, %g1
    6c4c:	c2 2f a0 44 	stb  %g1, [ %fp + 0x44 ]
    6c50:	c0 27 bf f8 	clr  [ %fp + -8 ]
    6c54:	03 3f ff cc 	sethi  %hi(0xffff3000), %g1
    6c58:	82 10 62 00 	or  %g1, 0x200, %g1	! ffff3200 <DATA_SEGMENT_TO_COPY+0xffff3180>
    6c5c:	c2 00 40 00 	ld  [ %g1 ], %g1
    6c60:	c2 27 bf f8 	st  %g1, [ %fp + -8 ]
    6c64:	c0 27 bf fc 	clr  [ %fp + -4 ]
    6c68:	c2 07 bf f8 	ld  [ %fp + -8 ], %g1
    6c6c:	82 08 60 01 	and  %g1, 1, %g1
    6c70:	80 a0 60 00 	cmp  %g1, 0
    6c74:	02 80 00 0f 	be  6cb0 <DATA_SEGMENT_TO_COPY+0x6c30>
    6c78:	01 00 00 00 	nop 
    6c7c:	c2 07 bf f8 	ld  [ %fp + -8 ], %g1
    6c80:	82 08 60 08 	and  %g1, 8, %g1
    6c84:	80 a0 60 00 	cmp  %g1, 0
    6c88:	12 80 00 0a 	bne  6cb0 <DATA_SEGMENT_TO_COPY+0x6c30>
    6c8c:	01 00 00 00 	nop 
    6c90:	03 3f ff cc 	sethi  %hi(0xffff3000), %g1
    6c94:	82 10 62 04 	or  %g1, 0x204, %g1	! ffff3204 <DATA_SEGMENT_TO_COPY+0xffff3184>
    6c98:	c4 0f a0 44 	ldub  [ %fp + 0x44 ], %g2
    6c9c:	c4 28 40 00 	stb  %g2, [ %g1 ]
    6ca0:	c2 0f a0 44 	ldub  [ %fp + 0x44 ], %g1
    6ca4:	83 28 60 18 	sll  %g1, 0x18, %g1
    6ca8:	83 38 60 18 	sra  %g1, 0x18, %g1
    6cac:	c2 27 bf fc 	st  %g1, [ %fp + -4 ]
    6cb0:	c2 07 bf fc 	ld  [ %fp + -4 ], %g1
    6cb4:	b0 10 00 01 	mov  %g1, %i0
    6cb8:	81 e8 00 00 	restore 
    6cbc:	81 c3 e0 08 	retl 
    6cc0:	01 00 00 00 	nop 
    6cc4:	9d e3 bf 90 	save  %sp, -112, %sp
    6cc8:	c0 27 bf fc 	clr  [ %fp + -4 ]
    6ccc:	03 3f ff cc 	sethi  %hi(0xffff3000), %g1
    6cd0:	82 10 62 00 	or  %g1, 0x200, %g1	! ffff3200 <DATA_SEGMENT_TO_COPY+0xffff3180>
    6cd4:	c2 00 40 00 	ld  [ %g1 ], %g1
    6cd8:	c2 27 bf f8 	st  %g1, [ %fp + -8 ]
    6cdc:	c2 07 bf f8 	ld  [ %fp + -8 ], %g1
    6ce0:	82 08 60 02 	and  %g1, 2, %g1
    6ce4:	80 a0 60 00 	cmp  %g1, 0
    6ce8:	02 80 00 0f 	be  6d24 <DATA_SEGMENT_TO_COPY+0x6ca4>
    6cec:	01 00 00 00 	nop 
    6cf0:	c2 07 bf f8 	ld  [ %fp + -8 ], %g1
    6cf4:	82 08 60 10 	and  %g1, 0x10, %g1
    6cf8:	80 a0 60 00 	cmp  %g1, 0
    6cfc:	02 80 00 0a 	be  6d24 <DATA_SEGMENT_TO_COPY+0x6ca4>
    6d00:	01 00 00 00 	nop 
    6d04:	c0 27 bf f4 	clr  [ %fp + -12 ]
    6d08:	03 3f ff cc 	sethi  %hi(0xffff3000), %g1
    6d0c:	82 10 62 08 	or  %g1, 0x208, %g1	! ffff3208 <DATA_SEGMENT_TO_COPY+0xffff3188>
    6d10:	c2 08 40 00 	ldub  [ %g1 ], %g1
    6d14:	82 08 60 ff 	and  %g1, 0xff, %g1
    6d18:	c2 27 bf f4 	st  %g1, [ %fp + -12 ]
    6d1c:	c2 07 bf f4 	ld  [ %fp + -12 ], %g1
    6d20:	c2 27 bf fc 	st  %g1, [ %fp + -4 ]
    6d24:	c2 07 bf fc 	ld  [ %fp + -4 ], %g1
    6d28:	b0 10 00 01 	mov  %g1, %i0
    6d2c:	81 e8 00 00 	restore 
    6d30:	81 c3 e0 08 	retl 
    6d34:	01 00 00 00 	nop 
    6d38:	9d e3 bf 98 	save  %sp, -104, %sp
    6d3c:	f0 27 a0 44 	st  %i0, [ %fp + 0x44 ]
    6d40:	f2 27 a0 48 	st  %i1, [ %fp + 0x48 ]
    6d44:	c0 27 bf fc 	clr  [ %fp + -4 ]
    6d48:	10 80 00 16 	b  6da0 <DATA_SEGMENT_TO_COPY+0x6d20>
    6d4c:	01 00 00 00 	nop 
    6d50:	c0 27 bf f8 	clr  [ %fp + -8 ]
    6d54:	10 80 00 0c 	b  6d84 <DATA_SEGMENT_TO_COPY+0x6d04>
    6d58:	01 00 00 00 	nop 
    6d5c:	c2 07 bf fc 	ld  [ %fp + -4 ], %g1
    6d60:	c4 07 a0 44 	ld  [ %fp + 0x44 ], %g2
    6d64:	82 00 80 01 	add  %g2, %g1, %g1
    6d68:	c2 08 40 00 	ldub  [ %g1 ], %g1
    6d6c:	83 28 60 18 	sll  %g1, 0x18, %g1
    6d70:	83 38 60 18 	sra  %g1, 0x18, %g1
    6d74:	90 10 00 01 	mov  %g1, %o0
    6d78:	7f ff ff b3 	call  6c44 <DATA_SEGMENT_TO_COPY+0x6bc4>
    6d7c:	01 00 00 00 	nop 
    6d80:	d0 27 bf f8 	st  %o0, [ %fp + -8 ]
    6d84:	c2 07 bf f8 	ld  [ %fp + -8 ], %g1
    6d88:	80 a0 60 00 	cmp  %g1, 0
    6d8c:	02 bf ff f4 	be  6d5c <DATA_SEGMENT_TO_COPY+0x6cdc>
    6d90:	01 00 00 00 	nop 
    6d94:	c2 07 bf fc 	ld  [ %fp + -4 ], %g1
    6d98:	82 00 60 01 	inc  %g1
    6d9c:	c2 27 bf fc 	st  %g1, [ %fp + -4 ]
    6da0:	c4 07 bf fc 	ld  [ %fp + -4 ], %g2
    6da4:	c2 07 a0 48 	ld  [ %fp + 0x48 ], %g1
    6da8:	80 a0 80 01 	cmp  %g2, %g1
    6dac:	0a bf ff e9 	bcs  6d50 <DATA_SEGMENT_TO_COPY+0x6cd0>
    6db0:	01 00 00 00 	nop 
    6db4:	81 e8 00 00 	restore 
    6db8:	81 c3 e0 08 	retl 
    6dbc:	01 00 00 00 	nop 
    6dc0:	9d e3 bf 98 	save  %sp, -104, %sp
    6dc4:	f0 27 a0 44 	st  %i0, [ %fp + 0x44 ]
    6dc8:	f2 27 a0 48 	st  %i1, [ %fp + 0x48 ]
    6dcc:	c0 27 bf fc 	clr  [ %fp + -4 ]
    6dd0:	10 80 00 14 	b  6e20 <DATA_SEGMENT_TO_COPY+0x6da0>
    6dd4:	01 00 00 00 	nop 
    6dd8:	c0 27 bf f8 	clr  [ %fp + -8 ]
    6ddc:	10 80 00 05 	b  6df0 <DATA_SEGMENT_TO_COPY+0x6d70>
    6de0:	01 00 00 00 	nop 
    6de4:	7f ff ff b8 	call  6cc4 <DATA_SEGMENT_TO_COPY+0x6c44>
    6de8:	01 00 00 00 	nop 
    6dec:	d0 27 bf f8 	st  %o0, [ %fp + -8 ]
    6df0:	c2 07 bf f8 	ld  [ %fp + -8 ], %g1
    6df4:	80 a0 60 00 	cmp  %g1, 0
    6df8:	02 bf ff fb 	be  6de4 <DATA_SEGMENT_TO_COPY+0x6d64>
    6dfc:	01 00 00 00 	nop 
    6e00:	c2 07 bf fc 	ld  [ %fp + -4 ], %g1
    6e04:	c4 07 a0 44 	ld  [ %fp + 0x44 ], %g2
    6e08:	82 00 80 01 	add  %g2, %g1, %g1
    6e0c:	c4 07 bf f8 	ld  [ %fp + -8 ], %g2
    6e10:	c4 28 40 00 	stb  %g2, [ %g1 ]
    6e14:	c2 07 bf fc 	ld  [ %fp + -4 ], %g1
    6e18:	82 00 60 01 	inc  %g1
    6e1c:	c2 27 bf fc 	st  %g1, [ %fp + -4 ]
    6e20:	c4 07 bf fc 	ld  [ %fp + -4 ], %g2
    6e24:	c2 07 a0 48 	ld  [ %fp + 0x48 ], %g1
    6e28:	80 a0 80 01 	cmp  %g2, %g1
    6e2c:	0a bf ff eb 	bcs  6dd8 <DATA_SEGMENT_TO_COPY+0x6d58>
    6e30:	01 00 00 00 	nop 
    6e34:	81 e8 00 00 	restore 
    6e38:	81 c3 e0 08 	retl 
    6e3c:	01 00 00 00 	nop 
    6e40:	9d e3 bf 98 	save  %sp, -104, %sp
    6e44:	86 10 00 18 	mov  %i0, %g3
    6e48:	84 10 00 19 	mov  %i1, %g2
    6e4c:	82 10 00 1a 	mov  %i2, %g1
    6e50:	c6 2f a0 44 	stb  %g3, [ %fp + 0x44 ]
    6e54:	c4 2f a0 48 	stb  %g2, [ %fp + 0x48 ]
    6e58:	c2 2f a0 4c 	stb  %g1, [ %fp + 0x4c ]
    6e5c:	03 3f ff cc 	sethi  %hi(0xffff3000), %g1
    6e60:	82 10 62 00 	or  %g1, 0x200, %g1	! ffff3200 <DATA_SEGMENT_TO_COPY+0xffff3180>
    6e64:	c2 00 40 00 	ld  [ %g1 ], %g1
    6e68:	c2 27 bf fc 	st  %g1, [ %fp + -4 ]
    6e6c:	c2 0f a0 44 	ldub  [ %fp + 0x44 ], %g1
    6e70:	82 08 60 ff 	and  %g1, 0xff, %g1
    6e74:	80 a0 60 00 	cmp  %g1, 0
    6e78:	02 80 00 07 	be  6e94 <DATA_SEGMENT_TO_COPY+0x6e14>
    6e7c:	01 00 00 00 	nop 
    6e80:	c2 07 bf fc 	ld  [ %fp + -4 ], %g1
    6e84:	82 10 60 01 	or  %g1, 1, %g1
    6e88:	c2 27 bf fc 	st  %g1, [ %fp + -4 ]
    6e8c:	10 80 00 05 	b  6ea0 <DATA_SEGMENT_TO_COPY+0x6e20>
    6e90:	01 00 00 00 	nop 
    6e94:	c2 07 bf fc 	ld  [ %fp + -4 ], %g1
    6e98:	82 08 7f fe 	and  %g1, -2, %g1
    6e9c:	c2 27 bf fc 	st  %g1, [ %fp + -4 ]
    6ea0:	c2 0f a0 48 	ldub  [ %fp + 0x48 ], %g1
    6ea4:	82 08 60 ff 	and  %g1, 0xff, %g1
    6ea8:	80 a0 60 00 	cmp  %g1, 0
    6eac:	02 80 00 07 	be  6ec8 <DATA_SEGMENT_TO_COPY+0x6e48>
    6eb0:	01 00 00 00 	nop 
    6eb4:	c2 07 bf fc 	ld  [ %fp + -4 ], %g1
    6eb8:	82 10 60 02 	or  %g1, 2, %g1
    6ebc:	c2 27 bf fc 	st  %g1, [ %fp + -4 ]
    6ec0:	10 80 00 05 	b  6ed4 <DATA_SEGMENT_TO_COPY+0x6e54>
    6ec4:	01 00 00 00 	nop 
    6ec8:	c2 07 bf fc 	ld  [ %fp + -4 ], %g1
    6ecc:	82 08 7f fd 	and  %g1, -3, %g1
    6ed0:	c2 27 bf fc 	st  %g1, [ %fp + -4 ]
    6ed4:	c2 0f a0 4c 	ldub  [ %fp + 0x4c ], %g1
    6ed8:	82 08 60 ff 	and  %g1, 0xff, %g1
    6edc:	80 a0 60 00 	cmp  %g1, 0
    6ee0:	02 80 00 07 	be  6efc <DATA_SEGMENT_TO_COPY+0x6e7c>
    6ee4:	01 00 00 00 	nop 
    6ee8:	c2 07 bf fc 	ld  [ %fp + -4 ], %g1
    6eec:	82 10 60 04 	or  %g1, 4, %g1
    6ef0:	c2 27 bf fc 	st  %g1, [ %fp + -4 ]
    6ef4:	10 80 00 05 	b  6f08 <DATA_SEGMENT_TO_COPY+0x6e88>
    6ef8:	01 00 00 00 	nop 
    6efc:	c2 07 bf fc 	ld  [ %fp + -4 ], %g1
    6f00:	82 08 7f fb 	and  %g1, -5, %g1
    6f04:	c2 27 bf fc 	st  %g1, [ %fp + -4 ]
    6f08:	03 3f ff cc 	sethi  %hi(0xffff3000), %g1
    6f0c:	82 10 62 00 	or  %g1, 0x200, %g1	! ffff3200 <DATA_SEGMENT_TO_COPY+0xffff3180>
    6f10:	c4 07 bf fc 	ld  [ %fp + -4 ], %g2
    6f14:	c4 20 40 00 	st  %g2, [ %g1 ]
    6f18:	81 e8 00 00 	restore 
    6f1c:	81 c3 e0 08 	retl 
    6f20:	01 00 00 00 	nop 
    6f24:	9d e3 bf a0 	save  %sp, -96, %sp
    6f28:	90 10 20 01 	mov  1, %o0
    6f2c:	40 00 00 05 	call  6f40 <DATA_SEGMENT_TO_COPY+0x6ec0>
    6f30:	01 00 00 00 	nop 
    6f34:	81 e8 00 00 	restore 
    6f38:	81 c3 e0 08 	retl 
    6f3c:	01 00 00 00 	nop 
    6f40:	9d e3 bf 98 	save  %sp, -104, %sp
    6f44:	82 10 00 18 	mov  %i0, %g1
    6f48:	c2 2f a0 44 	stb  %g1, [ %fp + 0x44 ]
    6f4c:	82 10 20 08 	mov  8, %g1
    6f50:	c2 27 bf fc 	st  %g1, [ %fp + -4 ]
    6f54:	c2 0f a0 44 	ldub  [ %fp + 0x44 ], %g1
    6f58:	82 08 60 ff 	and  %g1, 0xff, %g1
    6f5c:	80 a0 60 00 	cmp  %g1, 0
    6f60:	02 80 00 0d 	be  6f94 <DATA_SEGMENT_TO_COPY+0x6f14>
    6f64:	01 00 00 00 	nop 
    6f68:	7f ff ff 0c 	call  6b98 <DATA_SEGMENT_TO_COPY+0x6b18>
    6f6c:	01 00 00 00 	nop 
    6f70:	d0 27 bf f8 	st  %o0, [ %fp + -8 ]
    6f74:	d0 07 bf fc 	ld  [ %fp + -4 ], %o0
    6f78:	7f ff fe ff 	call  6b74 <DATA_SEGMENT_TO_COPY+0x6af4>
    6f7c:	01 00 00 00 	nop 
    6f80:	d0 07 bf f8 	ld  [ %fp + -8 ], %o0
    6f84:	7f ff fe fc 	call  6b74 <DATA_SEGMENT_TO_COPY+0x6af4>
    6f88:	01 00 00 00 	nop 
    6f8c:	10 80 00 0b 	b  6fb8 <DATA_SEGMENT_TO_COPY+0x6f38>
    6f90:	01 00 00 00 	nop 
    6f94:	7f ff fe 46 	call  68ac <DATA_SEGMENT_TO_COPY+0x682c>
    6f98:	01 00 00 00 	nop 
    6f9c:	d0 27 bf f8 	st  %o0, [ %fp + -8 ]
    6fa0:	d0 07 bf fc 	ld  [ %fp + -4 ], %o0
    6fa4:	7f ff fd 7e 	call  659c <DATA_SEGMENT_TO_COPY+0x651c>
    6fa8:	01 00 00 00 	nop 
    6fac:	d0 07 bf f8 	ld  [ %fp + -8 ], %o0
    6fb0:	7f ff fd 7b 	call  659c <DATA_SEGMENT_TO_COPY+0x651c>
    6fb4:	01 00 00 00 	nop 
    6fb8:	81 e8 00 00 	restore 
    6fbc:	81 c3 e0 08 	retl 
    6fc0:	01 00 00 00 	nop 
    6fc4:	9d e3 bf 98 	save  %sp, -104, %sp
    6fc8:	f0 27 a0 44 	st  %i0, [ %fp + 0x44 ]
    6fcc:	03 3f ff cc 	sethi  %hi(0xffff3000), %g1
    6fd0:	c2 27 bf fc 	st  %g1, [ %fp + -4 ]
    6fd4:	d0 07 a0 44 	ld  [ %fp + 0x44 ], %o0
    6fd8:	d2 07 bf fc 	ld  [ %fp + -4 ], %o1
    6fdc:	7f ff fd 1f 	call  6458 <DATA_SEGMENT_TO_COPY+0x63d8>
    6fe0:	01 00 00 00 	nop 
    6fe4:	81 e8 00 00 	restore 
    6fe8:	81 c3 e0 08 	retl 
    6fec:	01 00 00 00 	nop 
    6ff0:	9d e3 bf 98 	save  %sp, -104, %sp
    6ff4:	03 3f ff cc 	sethi  %hi(0xffff3000), %g1
    6ff8:	c2 27 bf fc 	st  %g1, [ %fp + -4 ]
    6ffc:	d0 07 bf fc 	ld  [ %fp + -4 ], %o0
    7000:	7f ff fd 29 	call  64a4 <DATA_SEGMENT_TO_COPY+0x6424>
    7004:	01 00 00 00 	nop 
    7008:	d0 27 bf f8 	st  %o0, [ %fp + -8 ]
    700c:	c2 07 bf f8 	ld  [ %fp + -8 ], %g1
    7010:	b0 10 00 01 	mov  %g1, %i0
    7014:	81 e8 00 00 	restore 
    7018:	81 c3 e0 08 	retl 
    701c:	01 00 00 00 	nop 
    7020:	9d e3 bf a0 	save  %sp, -96, %sp
    7024:	f0 27 a0 44 	st  %i0, [ %fp + 0x44 ]
    7028:	03 3f ff cc 	sethi  %hi(0xffff3000), %g1
    702c:	c4 07 a0 44 	ld  [ %fp + 0x44 ], %g2
    7030:	c4 20 40 00 	st  %g2, [ %g1 ]
    7034:	81 e8 00 00 	restore 
    7038:	81 c3 e0 08 	retl 
    703c:	01 00 00 00 	nop 
    7040:	9d e3 bf 98 	save  %sp, -104, %sp
    7044:	03 3f ff cc 	sethi  %hi(0xffff3000), %g1
    7048:	c2 00 40 00 	ld  [ %g1 ], %g1
    704c:	c2 27 bf fc 	st  %g1, [ %fp + -4 ]
    7050:	c2 07 bf fc 	ld  [ %fp + -4 ], %g1
    7054:	b0 10 00 01 	mov  %g1, %i0
    7058:	81 e8 00 00 	restore 
    705c:	81 c3 e0 08 	retl 
    7060:	01 00 00 00 	nop 
    7064:	9d e3 bf 98 	save  %sp, -104, %sp
    7068:	84 10 00 18 	mov  %i0, %g2
    706c:	82 10 00 19 	mov  %i1, %g1
    7070:	c4 2f a0 44 	stb  %g2, [ %fp + 0x44 ]
    7074:	c2 2f a0 48 	stb  %g1, [ %fp + 0x48 ]
    7078:	c2 0f a0 44 	ldub  [ %fp + 0x44 ], %g1
    707c:	82 08 60 ff 	and  %g1, 0xff, %g1
    7080:	83 28 60 02 	sll  %g1, 2, %g1
    7084:	84 10 00 01 	mov  %g1, %g2
    7088:	03 3f ff cc 	sethi  %hi(0xffff3000), %g1
    708c:	82 10 63 00 	or  %g1, 0x300, %g1	! ffff3300 <DATA_SEGMENT_TO_COPY+0xffff3280>
    7090:	82 00 80 01 	add  %g2, %g1, %g1
    7094:	c2 27 bf fc 	st  %g1, [ %fp + -4 ]
    7098:	c2 0f a0 48 	ldub  [ %fp + 0x48 ], %g1
    709c:	82 08 60 ff 	and  %g1, 0xff, %g1
    70a0:	90 10 00 01 	mov  %g1, %o0
    70a4:	d2 07 bf fc 	ld  [ %fp + -4 ], %o1
    70a8:	7f ff fc ec 	call  6458 <DATA_SEGMENT_TO_COPY+0x63d8>
    70ac:	01 00 00 00 	nop 
    70b0:	81 e8 00 00 	restore 
    70b4:	81 c3 e0 08 	retl 
    70b8:	01 00 00 00 	nop 
    70bc:	9d e3 bf 98 	save  %sp, -104, %sp
    70c0:	84 10 00 18 	mov  %i0, %g2
    70c4:	82 10 00 19 	mov  %i1, %g1
    70c8:	c4 2f a0 44 	stb  %g2, [ %fp + 0x44 ]
    70cc:	c2 2f a0 48 	stb  %g1, [ %fp + 0x48 ]
    70d0:	c2 0f a0 44 	ldub  [ %fp + 0x44 ], %g1
    70d4:	82 08 60 ff 	and  %g1, 0xff, %g1
    70d8:	83 28 60 02 	sll  %g1, 2, %g1
    70dc:	84 10 00 01 	mov  %g1, %g2
    70e0:	03 3f ff cc 	sethi  %hi(0xffff3000), %g1
    70e4:	82 10 63 00 	or  %g1, 0x300, %g1	! ffff3300 <DATA_SEGMENT_TO_COPY+0xffff3280>
    70e8:	82 00 80 01 	add  %g2, %g1, %g1
    70ec:	c2 27 bf fc 	st  %g1, [ %fp + -4 ]
    70f0:	c2 07 bf fc 	ld  [ %fp + -4 ], %g1
    70f4:	c4 0f a0 48 	ldub  [ %fp + 0x48 ], %g2
    70f8:	c4 28 40 00 	stb  %g2, [ %g1 ]
    70fc:	81 e8 00 00 	restore 
    7100:	81 c3 e0 08 	retl 
    7104:	01 00 00 00 	nop 
    7108:	9d e3 bf 98 	save  %sp, -104, %sp
    710c:	82 10 00 18 	mov  %i0, %g1
    7110:	c2 2f a0 44 	stb  %g1, [ %fp + 0x44 ]
    7114:	c2 0f a0 44 	ldub  [ %fp + 0x44 ], %g1
    7118:	82 08 60 ff 	and  %g1, 0xff, %g1
    711c:	83 28 60 02 	sll  %g1, 2, %g1
    7120:	84 10 00 01 	mov  %g1, %g2
    7124:	03 3f ff cc 	sethi  %hi(0xffff3000), %g1
    7128:	82 10 63 00 	or  %g1, 0x300, %g1	! ffff3300 <DATA_SEGMENT_TO_COPY+0xffff3280>
    712c:	82 00 80 01 	add  %g2, %g1, %g1
    7130:	c2 27 bf fc 	st  %g1, [ %fp + -4 ]
    7134:	d0 07 bf fc 	ld  [ %fp + -4 ], %o0
    7138:	7f ff fc db 	call  64a4 <DATA_SEGMENT_TO_COPY+0x6424>
    713c:	01 00 00 00 	nop 
    7140:	d0 27 bf f8 	st  %o0, [ %fp + -8 ]
    7144:	c2 07 bf f8 	ld  [ %fp + -8 ], %g1
    7148:	82 08 60 ff 	and  %g1, 0xff, %g1
    714c:	b0 10 00 01 	mov  %g1, %i0
    7150:	81 e8 00 00 	restore 
    7154:	81 c3 e0 08 	retl 
    7158:	01 00 00 00 	nop 
    715c:	9d e3 bf 98 	save  %sp, -104, %sp
    7160:	82 10 00 18 	mov  %i0, %g1
    7164:	c2 2f a0 44 	stb  %g1, [ %fp + 0x44 ]
    7168:	c2 0f a0 44 	ldub  [ %fp + 0x44 ], %g1
    716c:	82 08 60 ff 	and  %g1, 0xff, %g1
    7170:	83 28 60 02 	sll  %g1, 2, %g1
    7174:	84 10 00 01 	mov  %g1, %g2
    7178:	03 3f ff cc 	sethi  %hi(0xffff3000), %g1
    717c:	82 10 63 00 	or  %g1, 0x300, %g1	! ffff3300 <DATA_SEGMENT_TO_COPY+0xffff3280>
    7180:	82 00 80 01 	add  %g2, %g1, %g1
    7184:	c2 27 bf fc 	st  %g1, [ %fp + -4 ]
    7188:	c2 07 bf fc 	ld  [ %fp + -4 ], %g1
    718c:	c2 08 40 00 	ldub  [ %g1 ], %g1
    7190:	82 08 60 ff 	and  %g1, 0xff, %g1
    7194:	c2 27 bf f8 	st  %g1, [ %fp + -8 ]
    7198:	c2 07 bf f8 	ld  [ %fp + -8 ], %g1
    719c:	82 08 60 ff 	and  %g1, 0xff, %g1
    71a0:	b0 10 00 01 	mov  %g1, %i0
    71a4:	81 e8 00 00 	restore 
    71a8:	81 c3 e0 08 	retl 
    71ac:	01 00 00 00 	nop 
    71b0:	9d e3 bf 90 	save  %sp, -112, %sp
    71b4:	82 10 00 18 	mov  %i0, %g1
    71b8:	c2 2f a0 44 	stb  %g1, [ %fp + 0x44 ]
    71bc:	c0 27 bf f4 	clr  [ %fp + -12 ]
    71c0:	82 10 20 01 	mov  1, %g1
    71c4:	c2 27 bf f8 	st  %g1, [ %fp + -8 ]
    71c8:	c2 0f a0 44 	ldub  [ %fp + 0x44 ], %g1
    71cc:	82 08 60 ff 	and  %g1, 0xff, %g1
    71d0:	90 10 20 00 	clr  %o0
    71d4:	92 10 00 01 	mov  %g1, %o1
    71d8:	7f ff ff a3 	call  7064 <DATA_SEGMENT_TO_COPY+0x6fe4>
    71dc:	01 00 00 00 	nop 
    71e0:	82 10 20 13 	mov  0x13, %g1	! 13 <_start+0x13>
    71e4:	c2 2f bf f3 	stb  %g1, [ %fp + -13 ]
    71e8:	c2 0f bf f3 	ldub  [ %fp + -13 ], %g1
    71ec:	82 08 60 ff 	and  %g1, 0xff, %g1
    71f0:	90 10 20 02 	mov  2, %o0
    71f4:	92 10 00 01 	mov  %g1, %o1
    71f8:	7f ff ff 9b 	call  7064 <DATA_SEGMENT_TO_COPY+0x6fe4>
    71fc:	01 00 00 00 	nop 
    7200:	82 10 21 00 	mov  0x100, %g1	! 100 <DATA_SEGMENT_TO_COPY+0x80>
    7204:	c2 27 bf fc 	st  %g1, [ %fp + -4 ]
    7208:	10 80 00 0b 	b  7234 <DATA_SEGMENT_TO_COPY+0x71b4>
    720c:	01 00 00 00 	nop 
    7210:	90 10 20 02 	mov  2, %o0	! 2 <_start+0x2>
    7214:	7f ff ff bd 	call  7108 <DATA_SEGMENT_TO_COPY+0x7088>
    7218:	01 00 00 00 	nop 
    721c:	82 10 00 08 	mov  %o0, %g1
    7220:	82 08 60 ff 	and  %g1, 0xff, %g1
    7224:	c2 27 bf f8 	st  %g1, [ %fp + -8 ]
    7228:	c2 07 bf fc 	ld  [ %fp + -4 ], %g1
    722c:	82 00 7f ff 	add  %g1, -1, %g1
    7230:	c2 27 bf fc 	st  %g1, [ %fp + -4 ]
    7234:	c2 07 bf fc 	ld  [ %fp + -4 ], %g1
    7238:	85 38 60 1f 	sra  %g1, 0x1f, %g2
    723c:	c2 07 bf fc 	ld  [ %fp + -4 ], %g1
    7240:	82 20 80 01 	sub  %g2, %g1, %g1
    7244:	83 30 60 1f 	srl  %g1, 0x1f, %g1
    7248:	84 08 60 ff 	and  %g1, 0xff, %g2
    724c:	c2 07 bf f8 	ld  [ %fp + -8 ], %g1
    7250:	82 08 80 01 	and  %g2, %g1, %g1
    7254:	80 a0 60 00 	cmp  %g1, 0
    7258:	12 bf ff ee 	bne  7210 <DATA_SEGMENT_TO_COPY+0x7190>
    725c:	01 00 00 00 	nop 
    7260:	90 10 20 00 	clr  %o0	! 0 <_start>
    7264:	7f ff ff a9 	call  7108 <DATA_SEGMENT_TO_COPY+0x7088>
    7268:	01 00 00 00 	nop 
    726c:	82 10 00 08 	mov  %o0, %g1
    7270:	82 08 60 ff 	and  %g1, 0xff, %g1
    7274:	c2 27 bf f4 	st  %g1, [ %fp + -12 ]
    7278:	c2 07 bf f4 	ld  [ %fp + -12 ], %g1
    727c:	b0 10 00 01 	mov  %g1, %i0
    7280:	81 e8 00 00 	restore 
    7284:	81 c3 e0 08 	retl 
    7288:	01 00 00 00 	nop 
    728c:	9d e3 bf 90 	save  %sp, -112, %sp
    7290:	82 10 00 18 	mov  %i0, %g1
    7294:	c2 2f a0 44 	stb  %g1, [ %fp + 0x44 ]
    7298:	c0 27 bf f4 	clr  [ %fp + -12 ]
    729c:	82 10 20 01 	mov  1, %g1
    72a0:	c2 27 bf f8 	st  %g1, [ %fp + -8 ]
    72a4:	c2 0f a0 44 	ldub  [ %fp + 0x44 ], %g1
    72a8:	82 08 60 ff 	and  %g1, 0xff, %g1
    72ac:	90 10 20 00 	clr  %o0
    72b0:	92 10 00 01 	mov  %g1, %o1
    72b4:	7f ff ff 82 	call  70bc <DATA_SEGMENT_TO_COPY+0x703c>
    72b8:	01 00 00 00 	nop 
    72bc:	82 10 20 13 	mov  0x13, %g1	! 13 <_start+0x13>
    72c0:	c2 2f bf f3 	stb  %g1, [ %fp + -13 ]
    72c4:	c2 0f bf f3 	ldub  [ %fp + -13 ], %g1
    72c8:	82 08 60 ff 	and  %g1, 0xff, %g1
    72cc:	90 10 20 02 	mov  2, %o0
    72d0:	92 10 00 01 	mov  %g1, %o1
    72d4:	7f ff ff 7a 	call  70bc <DATA_SEGMENT_TO_COPY+0x703c>
    72d8:	01 00 00 00 	nop 
    72dc:	82 10 21 00 	mov  0x100, %g1	! 100 <DATA_SEGMENT_TO_COPY+0x80>
    72e0:	c2 27 bf fc 	st  %g1, [ %fp + -4 ]
    72e4:	10 80 00 0b 	b  7310 <DATA_SEGMENT_TO_COPY+0x7290>
    72e8:	01 00 00 00 	nop 
    72ec:	90 10 20 02 	mov  2, %o0	! 2 <_start+0x2>
    72f0:	7f ff ff 9b 	call  715c <DATA_SEGMENT_TO_COPY+0x70dc>
    72f4:	01 00 00 00 	nop 
    72f8:	82 10 00 08 	mov  %o0, %g1
    72fc:	82 08 60 ff 	and  %g1, 0xff, %g1
    7300:	c2 27 bf f8 	st  %g1, [ %fp + -8 ]
    7304:	c2 07 bf fc 	ld  [ %fp + -4 ], %g1
    7308:	82 00 7f ff 	add  %g1, -1, %g1
    730c:	c2 27 bf fc 	st  %g1, [ %fp + -4 ]
    7310:	c2 07 bf fc 	ld  [ %fp + -4 ], %g1
    7314:	85 38 60 1f 	sra  %g1, 0x1f, %g2
    7318:	c2 07 bf fc 	ld  [ %fp + -4 ], %g1
    731c:	82 20 80 01 	sub  %g2, %g1, %g1
    7320:	83 30 60 1f 	srl  %g1, 0x1f, %g1
    7324:	84 08 60 ff 	and  %g1, 0xff, %g2
    7328:	c2 07 bf f8 	ld  [ %fp + -8 ], %g1
    732c:	82 08 80 01 	and  %g2, %g1, %g1
    7330:	80 a0 60 00 	cmp  %g1, 0
    7334:	12 bf ff ee 	bne  72ec <DATA_SEGMENT_TO_COPY+0x726c>
    7338:	01 00 00 00 	nop 
    733c:	90 10 20 00 	clr  %o0	! 0 <_start>
    7340:	7f ff ff 87 	call  715c <DATA_SEGMENT_TO_COPY+0x70dc>
    7344:	01 00 00 00 	nop 
    7348:	82 10 00 08 	mov  %o0, %g1
    734c:	82 08 60 ff 	and  %g1, 0xff, %g1
    7350:	c2 27 bf f4 	st  %g1, [ %fp + -12 ]
    7354:	c2 07 bf f4 	ld  [ %fp + -12 ], %g1
    7358:	b0 10 00 01 	mov  %g1, %i0
    735c:	81 e8 00 00 	restore 
    7360:	81 c3 e0 08 	retl 
    7364:	01 00 00 00 	nop 
    7368:	9d e3 bf a0 	save  %sp, -96, %sp
    736c:	91 d0 20 00 	ta  0
    7370:	01 00 00 00 	nop 
    7374:	01 00 00 00 	nop 
    7378:	81 e8 00 00 	restore 
    737c:	81 c3 e0 08 	retl 
    7380:	01 00 00 00 	nop 
    7384:	9d e3 bf a0 	save  %sp, -96, %sp
    7388:	f0 27 a0 44 	st  %i0, [ %fp + 0x44 ]
    738c:	f2 27 a0 48 	st  %i1, [ %fp + 0x48 ]
    7390:	c2 07 a0 44 	ld  [ %fp + 0x44 ], %g1
    7394:	c4 07 a0 48 	ld  [ %fp + 0x48 ], %g2
    7398:	c1 18 40 00 	ldd  [ %g1 ], %f0
    739c:	85 a0 05 40 	fsqrtd  %f0, %f2
    73a0:	c5 38 80 00 	std  %f2, [ %g2 ]
    73a4:	81 e8 00 00 	restore 
    73a8:	81 c3 e0 08 	retl 
    73ac:	01 00 00 00 	nop 
    73b0:	9d e3 bf a0 	save  %sp, -96, %sp
    73b4:	f0 27 a0 44 	st  %i0, [ %fp + 0x44 ]
    73b8:	f2 27 a0 48 	st  %i1, [ %fp + 0x48 ]
    73bc:	c2 07 a0 44 	ld  [ %fp + 0x44 ], %g1
    73c0:	c4 07 a0 48 	ld  [ %fp + 0x48 ], %g2
    73c4:	c1 00 40 00 	ld  [ %g1 ], %f0
    73c8:	83 a0 05 20 	fsqrts  %f0, %f1
    73cc:	c3 20 80 00 	st  %f1, [ %g2 ]
    73d0:	81 e8 00 00 	restore 
    73d4:	81 c3 e0 08 	retl 
    73d8:	01 00 00 00 	nop 
    73dc:	9d e3 bf a0 	save  %sp, -96, %sp
    73e0:	f0 27 a0 44 	st  %i0, [ %fp + 0x44 ]
    73e4:	f2 27 a0 48 	st  %i1, [ %fp + 0x48 ]
    73e8:	c2 07 a0 44 	ld  [ %fp + 0x44 ], %g1
    73ec:	c4 07 a0 48 	ld  [ %fp + 0x48 ], %g2
    73f0:	c1 00 40 00 	ld  [ %g1 ], %f0
    73f4:	85 a0 19 00 	fitod  %f0, %f2
    73f8:	c5 38 80 00 	std  %f2, [ %g2 ]
    73fc:	81 e8 00 00 	restore 
    7400:	81 c3 e0 08 	retl 
    7404:	01 00 00 00 	nop 
    7408:	9d e3 bf a0 	save  %sp, -96, %sp
    740c:	f0 27 a0 44 	st  %i0, [ %fp + 0x44 ]
    7410:	f2 27 a0 48 	st  %i1, [ %fp + 0x48 ]
    7414:	c2 07 a0 44 	ld  [ %fp + 0x44 ], %g1
    7418:	c4 07 a0 48 	ld  [ %fp + 0x48 ], %g2
    741c:	c1 00 40 00 	ld  [ %g1 ], %f0
    7420:	83 a0 18 80 	fitos  %f0, %f1
    7424:	c3 20 80 00 	st  %f1, [ %g2 ]
    7428:	81 e8 00 00 	restore 
    742c:	81 c3 e0 08 	retl 
    7430:	01 00 00 00 	nop 
    7434:	9d e3 bf a0 	save  %sp, -96, %sp
    7438:	f0 27 a0 44 	st  %i0, [ %fp + 0x44 ]
    743c:	f2 27 a0 48 	st  %i1, [ %fp + 0x48 ]
    7440:	c2 07 a0 44 	ld  [ %fp + 0x44 ], %g1
    7444:	c4 07 a0 48 	ld  [ %fp + 0x48 ], %g2
    7448:	c1 18 40 00 	ldd  [ %g1 ], %f0
    744c:	85 a0 1a 40 	fdtoi  %f0, %f2
    7450:	c5 20 80 00 	st  %f2, [ %g2 ]
    7454:	81 e8 00 00 	restore 
    7458:	81 c3 e0 08 	retl 
    745c:	01 00 00 00 	nop 
    7460:	9d e3 bf a0 	save  %sp, -96, %sp
    7464:	f0 27 a0 44 	st  %i0, [ %fp + 0x44 ]
    7468:	f2 27 a0 48 	st  %i1, [ %fp + 0x48 ]
    746c:	c2 07 a0 44 	ld  [ %fp + 0x44 ], %g1
    7470:	c4 07 a0 48 	ld  [ %fp + 0x48 ], %g2
    7474:	c1 00 40 00 	ld  [ %g1 ], %f0
    7478:	83 a0 1a 20 	fstoi  %f0, %f1
    747c:	c3 20 80 00 	st  %f1, [ %g2 ]
    7480:	81 e8 00 00 	restore 
    7484:	81 c3 e0 08 	retl 
    7488:	01 00 00 00 	nop 
    748c:	80 8a 60 01 	btst  1, %o1
    7490:	02 80 00 08 	be  74b0 <DATA_SEGMENT_TO_COPY+0x7430>
    7494:	80 8a 60 02 	btst  2, %o1
    7498:	c4 0a 7f ff 	ldub  [ %o1 + -1 ], %g2
    749c:	92 22 60 01 	dec  %o1
    74a0:	c4 2a 3f ff 	stb  %g2, [ %o0 + -1 ]
    74a4:	94 22 a0 01 	dec  %o2
    74a8:	02 80 00 1a 	be  7510 <DATA_SEGMENT_TO_COPY+0x7490>
    74ac:	90 22 20 01 	dec  %o0
    74b0:	c4 12 7f fe 	lduh  [ %o1 + -2 ], %g2
    74b4:	92 22 60 02 	sub  %o1, 2, %o1
    74b8:	c4 32 3f fe 	sth  %g2, [ %o0 + -2 ]
    74bc:	94 22 a0 02 	sub  %o2, 2, %o2
    74c0:	10 80 00 14 	b  7510 <DATA_SEGMENT_TO_COPY+0x7490>
    74c4:	90 22 20 02 	sub  %o0, 2, %o0
    74c8:	96 10 00 08 	mov  %o0, %o3
    74cc:	90 10 00 09 	mov  %o1, %o0
    74d0:	92 10 00 0b 	mov  %o3, %o1
    74d4:	80 a2 00 09 	cmp  %o0, %o1
    74d8:	d0 23 a0 40 	st  %o0, [ %sp + 0x40 ]
    74dc:	08 80 01 79 	bleu  7ac0 <DATA_SEGMENT_TO_COPY+0x7a40>
    74e0:	98 22 00 09 	sub  %o0, %o1, %o4
    74e4:	96 02 40 0a 	add  %o1, %o2, %o3
    74e8:	80 a2 c0 08 	cmp  %o3, %o0
    74ec:	08 80 01 76 	bleu  7ac4 <DATA_SEGMENT_TO_COPY+0x7a44>
    74f0:	9a 8b 20 03 	andcc  %o4, 3, %o5
    74f4:	92 02 40 0a 	add  %o1, %o2, %o1
    74f8:	90 02 00 0a 	add  %o0, %o2, %o0
    74fc:	12 80 00 f9 	bne  78e0 <DATA_SEGMENT_TO_COPY+0x7860>
    7500:	80 a2 a0 0f 	cmp  %o2, 0xf
    7504:	08 80 00 eb 	bleu  78b0 <DATA_SEGMENT_TO_COPY+0x7830>
    7508:	80 8a 60 03 	btst  3, %o1
    750c:	12 bf ff e0 	bne  748c <DATA_SEGMENT_TO_COPY+0x740c>
    7510:	80 8a 60 04 	btst  4, %o1
    7514:	02 80 00 07 	be  7530 <DATA_SEGMENT_TO_COPY+0x74b0>
    7518:	82 10 00 0a 	mov  %o2, %g1
    751c:	d8 02 7f fc 	ld  [ %o1 + -4 ], %o4
    7520:	82 20 60 04 	sub  %g1, 4, %g1
    7524:	d8 22 3f fc 	st  %o4, [ %o0 + -4 ]
    7528:	92 22 60 04 	sub  %o1, 4, %o1
    752c:	90 22 20 04 	sub  %o0, 4, %o0
    7530:	8c 88 7f 80 	andcc  %g1, -128, %g6
    7534:	02 80 00 37 	be  7610 <DATA_SEGMENT_TO_COPY+0x7590>
    7538:	80 8a 20 04 	btst  4, %o0
    753c:	02 80 00 84 	be  774c <DATA_SEGMENT_TO_COPY+0x76cc>
    7540:	d4 1a 7f e0 	ldd  [ %o1 + -32 ], %o2
    7544:	d8 1a 7f e8 	ldd  [ %o1 + -24 ], %o4
    7548:	c4 1a 7f f0 	ldd  [ %o1 + -16 ], %g2
    754c:	c8 1a 7f f8 	ldd  [ %o1 + -8 ], %g4
    7550:	d4 22 3f e0 	st  %o2, [ %o0 + -32 ]
    7554:	d6 22 3f e4 	st  %o3, [ %o0 + -28 ]
    7558:	d8 22 3f e8 	st  %o4, [ %o0 + -24 ]
    755c:	da 22 3f ec 	st  %o5, [ %o0 + -20 ]
    7560:	c4 22 3f f0 	st  %g2, [ %o0 + -16 ]
    7564:	c6 22 3f f4 	st  %g3, [ %o0 + -12 ]
    7568:	c8 22 3f f8 	st  %g4, [ %o0 + -8 ]
    756c:	ca 22 3f fc 	st  %g5, [ %o0 + -4 ]
    7570:	d4 1a 7f c0 	ldd  [ %o1 + -64 ], %o2
    7574:	d8 1a 7f c8 	ldd  [ %o1 + -56 ], %o4
    7578:	c4 1a 7f d0 	ldd  [ %o1 + -48 ], %g2
    757c:	c8 1a 7f d8 	ldd  [ %o1 + -40 ], %g4
    7580:	d4 22 3f c0 	st  %o2, [ %o0 + -64 ]
    7584:	d6 22 3f c4 	st  %o3, [ %o0 + -60 ]
    7588:	d8 22 3f c8 	st  %o4, [ %o0 + -56 ]
    758c:	da 22 3f cc 	st  %o5, [ %o0 + -52 ]
    7590:	c4 22 3f d0 	st  %g2, [ %o0 + -48 ]
    7594:	c6 22 3f d4 	st  %g3, [ %o0 + -44 ]
    7598:	c8 22 3f d8 	st  %g4, [ %o0 + -40 ]
    759c:	ca 22 3f dc 	st  %g5, [ %o0 + -36 ]
    75a0:	d4 1a 7f a0 	ldd  [ %o1 + -96 ], %o2
    75a4:	d8 1a 7f a8 	ldd  [ %o1 + -88 ], %o4
    75a8:	c4 1a 7f b0 	ldd  [ %o1 + -80 ], %g2
    75ac:	c8 1a 7f b8 	ldd  [ %o1 + -72 ], %g4
    75b0:	d4 22 3f a0 	st  %o2, [ %o0 + -96 ]
    75b4:	d6 22 3f a4 	st  %o3, [ %o0 + -92 ]
    75b8:	d8 22 3f a8 	st  %o4, [ %o0 + -88 ]
    75bc:	da 22 3f ac 	st  %o5, [ %o0 + -84 ]
    75c0:	c4 22 3f b0 	st  %g2, [ %o0 + -80 ]
    75c4:	c6 22 3f b4 	st  %g3, [ %o0 + -76 ]
    75c8:	c8 22 3f b8 	st  %g4, [ %o0 + -72 ]
    75cc:	ca 22 3f bc 	st  %g5, [ %o0 + -68 ]
    75d0:	d4 1a 7f 80 	ldd  [ %o1 + -128 ], %o2
    75d4:	d8 1a 7f 88 	ldd  [ %o1 + -120 ], %o4
    75d8:	c4 1a 7f 90 	ldd  [ %o1 + -112 ], %g2
    75dc:	c8 1a 7f 98 	ldd  [ %o1 + -104 ], %g4
    75e0:	d4 22 3f 80 	st  %o2, [ %o0 + -128 ]
    75e4:	d6 22 3f 84 	st  %o3, [ %o0 + -124 ]
    75e8:	d8 22 3f 88 	st  %o4, [ %o0 + -120 ]
    75ec:	da 22 3f 8c 	st  %o5, [ %o0 + -116 ]
    75f0:	c4 22 3f 90 	st  %g2, [ %o0 + -112 ]
    75f4:	c6 22 3f 94 	st  %g3, [ %o0 + -108 ]
    75f8:	c8 22 3f 98 	st  %g4, [ %o0 + -104 ]
    75fc:	ca 22 3f 9c 	st  %g5, [ %o0 + -100 ]
    7600:	8c a1 a0 80 	subcc  %g6, 0x80, %g6
    7604:	92 22 60 80 	sub  %o1, 0x80, %o1
    7608:	12 bf ff ce 	bne  7540 <DATA_SEGMENT_TO_COPY+0x74c0>
    760c:	90 22 20 80 	sub  %o0, 0x80, %o0
    7610:	8c 88 60 70 	andcc  %g1, 0x70, %g6
    7614:	02 80 00 34 	be  76e4 <DATA_SEGMENT_TO_COPY+0x7664>
    7618:	80 88 60 08 	btst  8, %g1
    761c:	99 31 a0 01 	srl  %g6, 1, %o4
    7620:	84 10 00 0f 	mov  %o7, %g2
    7624:	98 01 80 0c 	add  %g6, %o4, %o4
    7628:	40 00 05 3d 	call  8b1c <DATA_SEGMENT_TO_COPY+0x8a9c>
    762c:	92 22 40 06 	sub  %o1, %g6, %o1
    7630:	9e 10 00 02 	mov  %g2, %o7
    7634:	81 c3 60 bc 	jmp  %o5 + 0xbc
    7638:	90 22 00 06 	sub  %o0, %g6, %o0
    763c:	c4 1a 60 60 	ldd  [ %o1 + 0x60 ], %g2
    7640:	c8 1a 60 68 	ldd  [ %o1 + 0x68 ], %g4
    7644:	c4 22 20 60 	st  %g2, [ %o0 + 0x60 ]
    7648:	c6 22 20 64 	st  %g3, [ %o0 + 0x64 ]
    764c:	c8 22 20 68 	st  %g4, [ %o0 + 0x68 ]
    7650:	ca 22 20 6c 	st  %g5, [ %o0 + 0x6c ]
    7654:	c4 1a 60 50 	ldd  [ %o1 + 0x50 ], %g2
    7658:	c8 1a 60 58 	ldd  [ %o1 + 0x58 ], %g4
    765c:	c4 22 20 50 	st  %g2, [ %o0 + 0x50 ]
    7660:	c6 22 20 54 	st  %g3, [ %o0 + 0x54 ]
    7664:	c8 22 20 58 	st  %g4, [ %o0 + 0x58 ]
    7668:	ca 22 20 5c 	st  %g5, [ %o0 + 0x5c ]
    766c:	c4 1a 60 40 	ldd  [ %o1 + 0x40 ], %g2
    7670:	c8 1a 60 48 	ldd  [ %o1 + 0x48 ], %g4
    7674:	c4 22 20 40 	st  %g2, [ %o0 + 0x40 ]
    7678:	c6 22 20 44 	st  %g3, [ %o0 + 0x44 ]
    767c:	c8 22 20 48 	st  %g4, [ %o0 + 0x48 ]
    7680:	ca 22 20 4c 	st  %g5, [ %o0 + 0x4c ]
    7684:	c4 1a 60 30 	ldd  [ %o1 + 0x30 ], %g2
    7688:	c8 1a 60 38 	ldd  [ %o1 + 0x38 ], %g4
    768c:	c4 22 20 30 	st  %g2, [ %o0 + 0x30 ]
    7690:	c6 22 20 34 	st  %g3, [ %o0 + 0x34 ]
    7694:	c8 22 20 38 	st  %g4, [ %o0 + 0x38 ]
    7698:	ca 22 20 3c 	st  %g5, [ %o0 + 0x3c ]
    769c:	c4 1a 60 20 	ldd  [ %o1 + 0x20 ], %g2
    76a0:	c8 1a 60 28 	ldd  [ %o1 + 0x28 ], %g4
    76a4:	c4 22 20 20 	st  %g2, [ %o0 + 0x20 ]
    76a8:	c6 22 20 24 	st  %g3, [ %o0 + 0x24 ]
    76ac:	c8 22 20 28 	st  %g4, [ %o0 + 0x28 ]
    76b0:	ca 22 20 2c 	st  %g5, [ %o0 + 0x2c ]
    76b4:	c4 1a 60 10 	ldd  [ %o1 + 0x10 ], %g2
    76b8:	c8 1a 60 18 	ldd  [ %o1 + 0x18 ], %g4
    76bc:	c4 22 20 10 	st  %g2, [ %o0 + 0x10 ]
    76c0:	c6 22 20 14 	st  %g3, [ %o0 + 0x14 ]
    76c4:	c8 22 20 18 	st  %g4, [ %o0 + 0x18 ]
    76c8:	ca 22 20 1c 	st  %g5, [ %o0 + 0x1c ]
    76cc:	c4 1a 60 00 	ldd  [ %o1 ], %g2
    76d0:	c8 1a 60 08 	ldd  [ %o1 + 8 ], %g4
    76d4:	c4 22 20 00 	st  %g2, [ %o0 ]
    76d8:	c6 22 20 04 	st  %g3, [ %o0 + 4 ]
    76dc:	c8 22 20 08 	st  %g4, [ %o0 + 8 ]
    76e0:	ca 22 20 0c 	st  %g5, [ %o0 + 0xc ]
    76e4:	02 80 00 07 	be  7700 <DATA_SEGMENT_TO_COPY+0x7680>
    76e8:	80 88 60 04 	btst  4, %g1
    76ec:	c4 1a 7f f8 	ldd  [ %o1 + -8 ], %g2
    76f0:	90 22 20 08 	sub  %o0, 8, %o0
    76f4:	92 22 60 08 	sub  %o1, 8, %o1
    76f8:	c4 22 00 00 	st  %g2, [ %o0 ]
    76fc:	c6 22 20 04 	st  %g3, [ %o0 + 4 ]
    7700:	02 80 00 06 	be  7718 <DATA_SEGMENT_TO_COPY+0x7698>
    7704:	80 88 60 02 	btst  2, %g1
    7708:	c4 02 7f fc 	ld  [ %o1 + -4 ], %g2
    770c:	92 22 60 04 	sub  %o1, 4, %o1
    7710:	c4 22 3f fc 	st  %g2, [ %o0 + -4 ]
    7714:	90 22 20 04 	sub  %o0, 4, %o0
    7718:	02 80 00 06 	be  7730 <DATA_SEGMENT_TO_COPY+0x76b0>
    771c:	80 88 60 01 	btst  1, %g1
    7720:	c4 12 7f fe 	lduh  [ %o1 + -2 ], %g2
    7724:	92 22 60 02 	sub  %o1, 2, %o1
    7728:	c4 32 3f fe 	sth  %g2, [ %o0 + -2 ]
    772c:	90 22 20 02 	sub  %o0, 2, %o0
    7730:	02 80 00 04 	be  7740 <DATA_SEGMENT_TO_COPY+0x76c0>
    7734:	01 00 00 00 	nop 
    7738:	c4 0a 7f ff 	ldub  [ %o1 + -1 ], %g2
    773c:	c4 2a 3f ff 	stb  %g2, [ %o0 + -1 ]
    7740:	81 c3 e0 08 	retl 
    7744:	d0 03 a0 40 	ld  [ %sp + 0x40 ], %o0
    7748:	d4 1a 7f e0 	ldd  [ %o1 + -32 ], %o2
    774c:	d8 1a 7f e8 	ldd  [ %o1 + -24 ], %o4
    7750:	c4 1a 7f f0 	ldd  [ %o1 + -16 ], %g2
    7754:	c8 1a 7f f8 	ldd  [ %o1 + -8 ], %g4
    7758:	d4 3a 3f e0 	std  %o2, [ %o0 + -32 ]
    775c:	d8 3a 3f e8 	std  %o4, [ %o0 + -24 ]
    7760:	c4 3a 3f f0 	std  %g2, [ %o0 + -16 ]
    7764:	c8 3a 3f f8 	std  %g4, [ %o0 + -8 ]
    7768:	d4 1a 7f c0 	ldd  [ %o1 + -64 ], %o2
    776c:	d8 1a 7f c8 	ldd  [ %o1 + -56 ], %o4
    7770:	c4 1a 7f d0 	ldd  [ %o1 + -48 ], %g2
    7774:	c8 1a 7f d8 	ldd  [ %o1 + -40 ], %g4
    7778:	d4 3a 3f c0 	std  %o2, [ %o0 + -64 ]
    777c:	d8 3a 3f c8 	std  %o4, [ %o0 + -56 ]
    7780:	c4 3a 3f d0 	std  %g2, [ %o0 + -48 ]
    7784:	c8 3a 3f d8 	std  %g4, [ %o0 + -40 ]
    7788:	d4 1a 7f a0 	ldd  [ %o1 + -96 ], %o2
    778c:	d8 1a 7f a8 	ldd  [ %o1 + -88 ], %o4
    7790:	c4 1a 7f b0 	ldd  [ %o1 + -80 ], %g2
    7794:	c8 1a 7f b8 	ldd  [ %o1 + -72 ], %g4
    7798:	d4 3a 3f a0 	std  %o2, [ %o0 + -96 ]
    779c:	d8 3a 3f a8 	std  %o4, [ %o0 + -88 ]
    77a0:	c4 3a 3f b0 	std  %g2, [ %o0 + -80 ]
    77a4:	c8 3a 3f b8 	std  %g4, [ %o0 + -72 ]
    77a8:	d4 1a 7f 80 	ldd  [ %o1 + -128 ], %o2
    77ac:	d8 1a 7f 88 	ldd  [ %o1 + -120 ], %o4
    77b0:	c4 1a 7f 90 	ldd  [ %o1 + -112 ], %g2
    77b4:	c8 1a 7f 98 	ldd  [ %o1 + -104 ], %g4
    77b8:	d4 3a 3f 80 	std  %o2, [ %o0 + -128 ]
    77bc:	d8 3a 3f 88 	std  %o4, [ %o0 + -120 ]
    77c0:	c4 3a 3f 90 	std  %g2, [ %o0 + -112 ]
    77c4:	c8 3a 3f 98 	std  %g4, [ %o0 + -104 ]
    77c8:	8c a1 a0 80 	subcc  %g6, 0x80, %g6
    77cc:	92 22 60 80 	sub  %o1, 0x80, %o1
    77d0:	12 bf ff de 	bne  7748 <DATA_SEGMENT_TO_COPY+0x76c8>
    77d4:	90 22 20 80 	sub  %o0, 0x80, %o0
    77d8:	8c 88 60 70 	andcc  %g1, 0x70, %g6
    77dc:	02 bf ff c2 	be  76e4 <DATA_SEGMENT_TO_COPY+0x7664>
    77e0:	80 88 60 08 	btst  8, %g1
    77e4:	99 31 a0 01 	srl  %g6, 1, %o4
    77e8:	84 10 00 0f 	mov  %o7, %g2
    77ec:	98 01 80 0c 	add  %g6, %o4, %o4
    77f0:	40 00 04 cb 	call  8b1c <DATA_SEGMENT_TO_COPY+0x8a9c>
    77f4:	92 22 40 06 	sub  %o1, %g6, %o1
    77f8:	9e 10 00 02 	mov  %g2, %o7
    77fc:	81 c3 7e f4 	jmp  %o5 + -268
    7800:	90 22 00 06 	sub  %o0, %g6, %o0
    7804:	96 0a a0 0e 	and  %o2, 0xe, %o3
    7808:	84 10 00 0f 	mov  %o7, %g2
    780c:	99 2a e0 03 	sll  %o3, 3, %o4
    7810:	90 22 00 0b 	sub  %o0, %o3, %o0
    7814:	40 00 04 c2 	call  8b1c <DATA_SEGMENT_TO_COPY+0x8a9c>
    7818:	92 22 40 0b 	sub  %o1, %o3, %o1
    781c:	9e 10 00 02 	mov  %g2, %o7
    7820:	81 c3 60 84 	jmp  %o5 + 0x84
    7824:	80 8a a0 01 	btst  1, %o2
    7828:	c4 0a 60 0c 	ldub  [ %o1 + 0xc ], %g2
    782c:	c6 0a 60 0d 	ldub  [ %o1 + 0xd ], %g3
    7830:	c4 2a 20 0c 	stb  %g2, [ %o0 + 0xc ]
    7834:	c6 2a 20 0d 	stb  %g3, [ %o0 + 0xd ]
    7838:	c4 0a 60 0a 	ldub  [ %o1 + 0xa ], %g2
    783c:	c6 0a 60 0b 	ldub  [ %o1 + 0xb ], %g3
    7840:	c4 2a 20 0a 	stb  %g2, [ %o0 + 0xa ]
    7844:	c6 2a 20 0b 	stb  %g3, [ %o0 + 0xb ]
    7848:	c4 0a 60 08 	ldub  [ %o1 + 8 ], %g2
    784c:	c6 0a 60 09 	ldub  [ %o1 + 9 ], %g3
    7850:	c4 2a 20 08 	stb  %g2, [ %o0 + 8 ]
    7854:	c6 2a 20 09 	stb  %g3, [ %o0 + 9 ]
    7858:	c4 0a 60 06 	ldub  [ %o1 + 6 ], %g2
    785c:	c6 0a 60 07 	ldub  [ %o1 + 7 ], %g3
    7860:	c4 2a 20 06 	stb  %g2, [ %o0 + 6 ]
    7864:	c6 2a 20 07 	stb  %g3, [ %o0 + 7 ]
    7868:	c4 0a 60 04 	ldub  [ %o1 + 4 ], %g2
    786c:	c6 0a 60 05 	ldub  [ %o1 + 5 ], %g3
    7870:	c4 2a 20 04 	stb  %g2, [ %o0 + 4 ]
    7874:	c6 2a 20 05 	stb  %g3, [ %o0 + 5 ]
    7878:	c4 0a 60 02 	ldub  [ %o1 + 2 ], %g2
    787c:	c6 0a 60 03 	ldub  [ %o1 + 3 ], %g3
    7880:	c4 2a 20 02 	stb  %g2, [ %o0 + 2 ]
    7884:	c6 2a 20 03 	stb  %g3, [ %o0 + 3 ]
    7888:	c4 0a 60 00 	ldub  [ %o1 ], %g2
    788c:	c6 0a 60 01 	ldub  [ %o1 + 1 ], %g3
    7890:	c4 2a 20 00 	stb  %g2, [ %o0 ]
    7894:	c6 2a 20 01 	stb  %g3, [ %o0 + 1 ]
    7898:	02 80 00 04 	be  78a8 <DATA_SEGMENT_TO_COPY+0x7828>
    789c:	01 00 00 00 	nop 
    78a0:	c4 0a 7f ff 	ldub  [ %o1 + -1 ], %g2
    78a4:	c4 2a 3f ff 	stb  %g2, [ %o0 + -1 ]
    78a8:	81 c3 e0 08 	retl 
    78ac:	d0 03 a0 40 	ld  [ %sp + 0x40 ], %o0
    78b0:	12 bf ff d5 	bne  7804 <DATA_SEGMENT_TO_COPY+0x7784>
    78b4:	80 8a a0 08 	btst  8, %o2
    78b8:	02 80 00 08 	be  78d8 <DATA_SEGMENT_TO_COPY+0x7858>
    78bc:	80 8a a0 04 	btst  4, %o2
    78c0:	c4 02 7f f8 	ld  [ %o1 + -8 ], %g2
    78c4:	c6 02 7f fc 	ld  [ %o1 + -4 ], %g3
    78c8:	92 22 60 08 	sub  %o1, 8, %o1
    78cc:	c4 22 3f f8 	st  %g2, [ %o0 + -8 ]
    78d0:	c6 22 3f fc 	st  %g3, [ %o0 + -4 ]
    78d4:	90 22 20 08 	sub  %o0, 8, %o0
    78d8:	10 bf ff 8a 	b  7700 <DATA_SEGMENT_TO_COPY+0x7680>
    78dc:	82 10 00 0a 	mov  %o2, %g1
    78e0:	80 a2 a0 0f 	cmp  %o2, 0xf
    78e4:	08 bf ff c8 	bleu  7804 <DATA_SEGMENT_TO_COPY+0x7784>
    78e8:	80 8a 20 03 	btst  3, %o0
    78ec:	02 80 00 11 	be  7930 <DATA_SEGMENT_TO_COPY+0x78b0>
    78f0:	80 8a 20 01 	btst  1, %o0
    78f4:	02 80 00 08 	be  7914 <DATA_SEGMENT_TO_COPY+0x7894>
    78f8:	80 8a 20 02 	btst  2, %o0
    78fc:	ca 0a 7f ff 	ldub  [ %o1 + -1 ], %g5
    7900:	92 22 60 01 	dec  %o1
    7904:	ca 2a 3f ff 	stb  %g5, [ %o0 + -1 ]
    7908:	90 22 20 01 	dec  %o0
    790c:	02 80 00 09 	be  7930 <DATA_SEGMENT_TO_COPY+0x78b0>
    7910:	94 22 a0 01 	dec  %o2
    7914:	ca 0a 7f ff 	ldub  [ %o1 + -1 ], %g5
    7918:	92 22 60 02 	sub  %o1, 2, %o1
    791c:	ca 2a 3f ff 	stb  %g5, [ %o0 + -1 ]
    7920:	90 22 20 02 	sub  %o0, 2, %o0
    7924:	ca 0a 40 00 	ldub  [ %o1 ], %g5
    7928:	94 22 a0 02 	sub  %o2, 2, %o2
    792c:	ca 2a 00 00 	stb  %g5, [ %o0 ]
    7930:	84 0a 60 03 	and  %o1, 3, %g2
    7934:	92 0a 7f fc 	and  %o1, -4, %o1
    7938:	86 0a a0 0c 	and  %o2, 0xc, %g3
    793c:	92 02 60 04 	add  %o1, 4, %o1
    7940:	80 a0 e0 04 	cmp  %g3, 4
    7944:	89 28 a0 03 	sll  %g2, 3, %g4
    7948:	84 10 20 20 	mov  0x20, %g2
    794c:	02 80 00 18 	be  79ac <DATA_SEGMENT_TO_COPY+0x792c>
    7950:	8c 20 80 04 	sub  %g2, %g4, %g6
    7954:	0a 80 00 10 	bcs  7994 <DATA_SEGMENT_TO_COPY+0x7914>
    7958:	80 a0 e0 08 	cmp  %g3, 8
    795c:	02 80 00 08 	be  797c <DATA_SEGMENT_TO_COPY+0x78fc>
    7960:	87 32 a0 02 	srl  %o2, 2, %g3
    7964:	d6 02 7f fc 	ld  [ %o1 + -4 ], %o3
    7968:	90 02 3f f8 	add  %o0, -8, %o0
    796c:	d8 02 7f f8 	ld  [ %o1 + -8 ], %o4
    7970:	92 02 7f f0 	add  %o1, -16, %o1
    7974:	10 80 00 1e 	b  79ec <DATA_SEGMENT_TO_COPY+0x796c>
    7978:	86 00 e0 01 	inc  %g3
    797c:	d8 02 7f fc 	ld  [ %o1 + -4 ], %o4
    7980:	90 02 3f fc 	add  %o0, -4, %o0
    7984:	c2 02 7f f8 	ld  [ %o1 + -8 ], %g1
    7988:	92 02 7f f4 	add  %o1, -12, %o1
    798c:	10 80 00 1d 	b  7a00 <DATA_SEGMENT_TO_COPY+0x7980>
    7990:	86 00 e0 02 	add  %g3, 2, %g3
    7994:	da 02 7f fc 	ld  [ %o1 + -4 ], %o5
    7998:	90 02 3f f4 	add  %o0, -12, %o0
    799c:	d6 02 7f f8 	ld  [ %o1 + -8 ], %o3
    79a0:	92 02 7f ec 	add  %o1, -20, %o1
    79a4:	10 80 00 0d 	b  79d8 <DATA_SEGMENT_TO_COPY+0x7958>
    79a8:	87 32 a0 02 	srl  %o2, 2, %g3
    79ac:	c2 02 7f fc 	ld  [ %o1 + -4 ], %g1
    79b0:	87 32 a0 02 	srl  %o2, 2, %g3
    79b4:	da 02 7f f8 	ld  [ %o1 + -8 ], %o5
    79b8:	92 02 7f e8 	add  %o1, -24, %o1
    79bc:	90 02 3f f0 	add  %o0, -16, %o0
    79c0:	86 00 ff ff 	add  %g3, -1, %g3
    79c4:	d6 02 60 0c 	ld  [ %o1 + 0xc ], %o3
    79c8:	85 2b 40 04 	sll  %o5, %g4, %g2
    79cc:	8b 30 40 06 	srl  %g1, %g6, %g5
    79d0:	84 10 80 05 	or  %g2, %g5, %g2
    79d4:	c4 22 20 0c 	st  %g2, [ %o0 + 0xc ]
    79d8:	d8 02 60 08 	ld  [ %o1 + 8 ], %o4
    79dc:	85 2a c0 04 	sll  %o3, %g4, %g2
    79e0:	8b 33 40 06 	srl  %o5, %g6, %g5
    79e4:	84 10 80 05 	or  %g2, %g5, %g2
    79e8:	c4 22 20 08 	st  %g2, [ %o0 + 8 ]
    79ec:	c2 02 60 04 	ld  [ %o1 + 4 ], %g1
    79f0:	85 2b 00 04 	sll  %o4, %g4, %g2
    79f4:	8b 32 c0 06 	srl  %o3, %g6, %g5
    79f8:	84 10 80 05 	or  %g2, %g5, %g2
    79fc:	c4 22 20 04 	st  %g2, [ %o0 + 4 ]
    7a00:	da 02 40 00 	ld  [ %o1 ], %o5
    7a04:	85 28 40 04 	sll  %g1, %g4, %g2
    7a08:	8b 33 00 06 	srl  %o4, %g6, %g5
    7a0c:	86 80 ff fc 	addcc  %g3, -4, %g3
    7a10:	84 10 80 05 	or  %g2, %g5, %g2
    7a14:	92 02 7f f0 	add  %o1, -16, %o1
    7a18:	c4 22 00 00 	st  %g2, [ %o0 ]
    7a1c:	90 02 3f f0 	add  %o0, -16, %o0
    7a20:	32 bf ff ea 	bne,a   79c8 <DATA_SEGMENT_TO_COPY+0x7948>
    7a24:	d6 02 60 0c 	ld  [ %o1 + 0xc ], %o3
    7a28:	85 2b 40 04 	sll  %o5, %g4, %g2
    7a2c:	8b 30 40 06 	srl  %g1, %g6, %g5
    7a30:	87 31 20 03 	srl  %g4, 3, %g3
    7a34:	84 10 80 05 	or  %g2, %g5, %g2
    7a38:	92 02 40 03 	add  %o1, %g3, %o1
    7a3c:	80 8a a0 02 	btst  2, %o2
    7a40:	c4 22 20 0c 	st  %g2, [ %o0 + 0xc ]
    7a44:	02 80 00 08 	be  7a64 <DATA_SEGMENT_TO_COPY+0x79e4>
    7a48:	80 8a a0 01 	btst  1, %o2
    7a4c:	ca 0a 60 0f 	ldub  [ %o1 + 0xf ], %g5
    7a50:	92 02 7f fe 	add  %o1, -2, %o1
    7a54:	ca 2a 20 0b 	stb  %g5, [ %o0 + 0xb ]
    7a58:	90 02 3f fe 	add  %o0, -2, %o0
    7a5c:	ca 0a 60 10 	ldub  [ %o1 + 0x10 ], %g5
    7a60:	ca 2a 20 0c 	stb  %g5, [ %o0 + 0xc ]
    7a64:	02 80 00 04 	be  7a74 <DATA_SEGMENT_TO_COPY+0x79f4>
    7a68:	01 00 00 00 	nop 
    7a6c:	ca 0a 60 0f 	ldub  [ %o1 + 0xf ], %g5
    7a70:	ca 2a 20 0b 	stb  %g5, [ %o0 + 0xb ]
    7a74:	81 c3 e0 08 	retl 
    7a78:	d0 03 a0 40 	ld  [ %sp + 0x40 ], %o0
