
.//main.elf:     file format elf32-sparc


Disassembly of section .text:

00000000 <_start>:
       0:	1d 3f fc 07 	sethi  %hi(0xfff01c00), %sp
       4:	9c 13 a3 f8 	or  %sp, 0x3f8, %sp	! fff01ff8 <_GLOBAL_OFFSET_TABLE_+0xbff01ef0>
       8:	3d 3f fc 07 	sethi  %hi(0xfff01c00), %fp
       c:	bc 17 a3 00 	or  %fp, 0x300, %fp	! fff01f00 <_GLOBAL_OFFSET_TABLE_+0xbff01df8>
      10:	a0 10 20 01 	mov  1, %l0
      14:	81 94 20 00 	mov  %l0, %wim
      18:	21 00 00 0c 	sethi  %hi(0x3000), %l0
      1c:	a0 14 20 00 	mov  %l0, %l0	! 3000 <trap_table_base>
      20:	81 9c 20 00 	mov  %l0, %tbr
      24:	40 00 00 f7 	call  400 <page_table_setup>
      28:	01 00 00 00 	nop 
      2c:	40 00 01 40 	call  52c <set_context_table_pointer>
      30:	01 00 00 00 	nop 
      34:	21 00 00 04 	sethi  %hi(0x1000), %l0
      38:	a0 14 20 e7 	or  %l0, 0xe7, %l0	! 10e7 <PAGE_TABLE_BASE+0x8e7>
      3c:	81 88 00 10 	mov  %l0, %psr
      40:	90 10 20 01 	mov  1, %o0
      44:	d0 a0 01 40 	sta  %o0, [ %g0 ] (10)
      48:	40 00 22 e5 	call  8bdc <main>
      4c:	01 00 00 00 	nop 
      50:	91 d0 20 00 	ta  0
	...

00000400 <page_table_setup>:
     400:	03 00 00 02 	sethi  %hi(0x800), %g1
     404:	82 10 60 00 	mov  %g1, %g1	! 800 <PAGE_TABLE_BASE>
     408:	88 10 28 00 	mov  0x800, %g4
     40c:	88 00 40 04 	add  %g1, %g4, %g4
     410:	89 31 20 04 	srl  %g4, 4, %g4
     414:	88 11 20 01 	or  %g4, 1, %g4
     418:	8a 10 2c 00 	mov  0xc00, %g5
     41c:	86 01 40 01 	add  %g5, %g1, %g3
     420:	c8 20 c0 00 	st  %g4, [ %g3 ]
     424:	88 10 20 00 	clr  %g4
     428:	88 00 40 04 	add  %g1, %g4, %g4
     42c:	89 31 20 04 	srl  %g4, 4, %g4
     430:	88 11 20 01 	or  %g4, 1, %g4
     434:	8a 10 28 00 	mov  0x800, %g5
     438:	86 01 40 01 	add  %g5, %g1, %g3
     43c:	c8 20 c0 00 	st  %g4, [ %g3 ]
     440:	84 10 20 8e 	mov  0x8e, %g2
     444:	8a 10 20 00 	clr  %g5
     448:	86 01 40 01 	add  %g5, %g1, %g3
     44c:	c4 20 c0 00 	st  %g2, [ %g3 ]
     450:	88 10 21 00 	mov  0x100, %g4
     454:	88 00 40 04 	add  %g1, %g4, %g4
     458:	89 31 20 04 	srl  %g4, 4, %g4
     45c:	88 11 20 01 	or  %g4, 1, %g4
     460:	8a 10 29 00 	mov  0x900, %g5
     464:	86 01 40 01 	add  %g5, %g1, %g3
     468:	c8 20 c0 00 	st  %g4, [ %g3 ]
     46c:	05 01 00 00 	sethi  %hi(0x4000000), %g2
     470:	84 10 a0 8e 	or  %g2, 0x8e, %g2	! 400008e <__sparc_get_pc_thunk.l7+0x3ff743a>
     474:	8a 10 21 00 	mov  0x100, %g5
     478:	86 01 40 01 	add  %g5, %g1, %g3
     47c:	c4 20 c0 00 	st  %g2, [ %g3 ]
     480:	88 10 24 00 	mov  0x400, %g4
     484:	88 00 40 04 	add  %g1, %g4, %g4
     488:	89 31 20 04 	srl  %g4, 4, %g4
     48c:	88 11 20 01 	or  %g4, 1, %g4
     490:	8a 10 2b fc 	mov  0xbfc, %g5
     494:	86 01 40 01 	add  %g5, %g1, %g3
     498:	c8 20 c0 00 	st  %g4, [ %g3 ]
     49c:	88 10 22 00 	mov  0x200, %g4
     4a0:	88 00 40 04 	add  %g1, %g4, %g4
     4a4:	89 31 20 04 	srl  %g4, 4, %g4
     4a8:	88 11 20 01 	or  %g4, 1, %g4
     4ac:	8a 10 24 f0 	mov  0x4f0, %g5
     4b0:	86 01 40 01 	add  %g5, %g1, %g3
     4b4:	c8 20 c0 00 	st  %g4, [ %g3 ]
     4b8:	05 03 ff c0 	sethi  %hi(0xfff0000), %g2
     4bc:	84 10 a0 8e 	or  %g2, 0x8e, %g2	! fff008e <__sparc_get_pc_thunk.l7+0xffe743a>
     4c0:	8a 10 22 00 	mov  0x200, %g5
     4c4:	86 01 40 01 	add  %g5, %g1, %g3
     4c8:	c4 20 c0 00 	st  %g2, [ %g3 ]
     4cc:	05 03 ff c0 	sethi  %hi(0xfff0000), %g2
     4d0:	84 10 a1 8e 	or  %g2, 0x18e, %g2	! fff018e <__sparc_get_pc_thunk.l7+0xffe753a>
     4d4:	8a 10 22 04 	mov  0x204, %g5
     4d8:	86 01 40 01 	add  %g5, %g1, %g3
     4dc:	c4 20 c0 00 	st  %g2, [ %g3 ]
     4e0:	88 10 23 00 	mov  0x300, %g4
     4e4:	88 00 40 04 	add  %g1, %g4, %g4
     4e8:	89 31 20 04 	srl  %g4, 4, %g4
     4ec:	88 11 20 01 	or  %g4, 1, %g4
     4f0:	8a 10 24 fc 	mov  0x4fc, %g5
     4f4:	86 01 40 01 	add  %g5, %g1, %g3
     4f8:	c8 20 c0 00 	st  %g4, [ %g3 ]
     4fc:	05 03 ff fc 	sethi  %hi(0xffff000), %g2
     500:	84 10 a3 0e 	or  %g2, 0x30e, %g2	! ffff30e <__sparc_get_pc_thunk.l7+0xfff66ba>
     504:	8a 10 23 cc 	mov  0x3cc, %g5
     508:	86 01 40 01 	add  %g5, %g1, %g3
     50c:	c4 20 c0 00 	st  %g2, [ %g3 ]
     510:	05 03 ff fd 	sethi  %hi(0xffff400), %g2
     514:	84 10 a0 0e 	or  %g2, 0xe, %g2	! ffff40e <__sparc_get_pc_thunk.l7+0xfff67ba>
     518:	8a 10 23 d0 	mov  0x3d0, %g5
     51c:	86 01 40 01 	add  %g5, %g1, %g3
     520:	c4 20 c0 00 	st  %g2, [ %g3 ]
     524:	81 c3 e0 08 	retl 
     528:	01 00 00 00 	nop 

0000052c <set_context_table_pointer>:
     52c:	03 00 00 02 	sethi  %hi(0x800), %g1
     530:	82 10 60 00 	mov  %g1, %g1	! 800 <PAGE_TABLE_BASE>
     534:	8a 10 2c 00 	mov  0xc00, %g5
     538:	84 01 40 01 	add  %g5, %g1, %g2
     53c:	85 30 a0 04 	srl  %g2, 4, %g2
     540:	84 10 a0 01 	or  %g2, 1, %g2
     544:	86 10 21 00 	mov  0x100, %g3
     548:	c4 a0 c0 80 	sta  %g2, [ %g3 ] #ASI_N
     54c:	81 c3 e0 08 	retl 
     550:	01 00 00 00 	nop 
     554:	01 00 00 00 	nop 
     558:	01 00 00 00 	nop 
     55c:	01 00 00 00 	nop 
     560:	01 00 00 00 	nop 
     564:	01 00 00 00 	nop 
     568:	01 00 00 00 	nop 
     56c:	01 00 00 00 	nop 
     570:	01 00 00 00 	nop 
     574:	01 00 00 00 	nop 
     578:	01 00 00 00 	nop 
     57c:	01 00 00 00 	nop 
     580:	01 00 00 00 	nop 
     584:	01 00 00 00 	nop 
     588:	01 00 00 00 	nop 
     58c:	01 00 00 00 	nop 
     590:	01 00 00 00 	nop 
     594:	01 00 00 00 	nop 
     598:	01 00 00 00 	nop 
     59c:	01 00 00 00 	nop 
     5a0:	01 00 00 00 	nop 
     5a4:	01 00 00 00 	nop 
     5a8:	01 00 00 00 	nop 
     5ac:	01 00 00 00 	nop 
     5b0:	01 00 00 00 	nop 
     5b4:	01 00 00 00 	nop 
     5b8:	01 00 00 00 	nop 
     5bc:	01 00 00 00 	nop 
     5c0:	01 00 00 00 	nop 
     5c4:	01 00 00 00 	nop 
     5c8:	01 00 00 00 	nop 
     5cc:	01 00 00 00 	nop 
     5d0:	01 00 00 00 	nop 
     5d4:	01 00 00 00 	nop 
     5d8:	01 00 00 00 	nop 
     5dc:	01 00 00 00 	nop 
     5e0:	01 00 00 00 	nop 
     5e4:	01 00 00 00 	nop 
     5e8:	01 00 00 00 	nop 
     5ec:	01 00 00 00 	nop 
     5f0:	01 00 00 00 	nop 
     5f4:	01 00 00 00 	nop 
     5f8:	01 00 00 00 	nop 
     5fc:	01 00 00 00 	nop 
     600:	01 00 00 00 	nop 
     604:	01 00 00 00 	nop 
     608:	01 00 00 00 	nop 
     60c:	01 00 00 00 	nop 
     610:	01 00 00 00 	nop 
     614:	01 00 00 00 	nop 
     618:	01 00 00 00 	nop 
     61c:	01 00 00 00 	nop 
     620:	01 00 00 00 	nop 
     624:	01 00 00 00 	nop 
     628:	01 00 00 00 	nop 
     62c:	01 00 00 00 	nop 
     630:	01 00 00 00 	nop 
     634:	01 00 00 00 	nop 
     638:	01 00 00 00 	nop 
     63c:	01 00 00 00 	nop 
     640:	01 00 00 00 	nop 
     644:	01 00 00 00 	nop 
     648:	01 00 00 00 	nop 
     64c:	01 00 00 00 	nop 
     650:	01 00 00 00 	nop 
     654:	01 00 00 00 	nop 
     658:	01 00 00 00 	nop 
     65c:	01 00 00 00 	nop 
     660:	01 00 00 00 	nop 
     664:	01 00 00 00 	nop 
     668:	01 00 00 00 	nop 
     66c:	01 00 00 00 	nop 
     670:	01 00 00 00 	nop 
     674:	01 00 00 00 	nop 
     678:	01 00 00 00 	nop 
     67c:	01 00 00 00 	nop 
     680:	01 00 00 00 	nop 
     684:	01 00 00 00 	nop 
     688:	01 00 00 00 	nop 
     68c:	01 00 00 00 	nop 
     690:	01 00 00 00 	nop 
     694:	01 00 00 00 	nop 
     698:	01 00 00 00 	nop 
     69c:	01 00 00 00 	nop 
     6a0:	01 00 00 00 	nop 
     6a4:	01 00 00 00 	nop 
     6a8:	01 00 00 00 	nop 
     6ac:	01 00 00 00 	nop 
     6b0:	01 00 00 00 	nop 
     6b4:	01 00 00 00 	nop 
     6b8:	01 00 00 00 	nop 
     6bc:	01 00 00 00 	nop 
     6c0:	01 00 00 00 	nop 
     6c4:	01 00 00 00 	nop 
     6c8:	01 00 00 00 	nop 
     6cc:	01 00 00 00 	nop 
     6d0:	01 00 00 00 	nop 
     6d4:	01 00 00 00 	nop 
     6d8:	01 00 00 00 	nop 
     6dc:	01 00 00 00 	nop 
     6e0:	01 00 00 00 	nop 
     6e4:	01 00 00 00 	nop 
     6e8:	01 00 00 00 	nop 
     6ec:	01 00 00 00 	nop 
     6f0:	01 00 00 00 	nop 
     6f4:	01 00 00 00 	nop 
     6f8:	01 00 00 00 	nop 
     6fc:	01 00 00 00 	nop 
     700:	01 00 00 00 	nop 
     704:	01 00 00 00 	nop 
     708:	01 00 00 00 	nop 
     70c:	01 00 00 00 	nop 
     710:	01 00 00 00 	nop 
     714:	01 00 00 00 	nop 
     718:	01 00 00 00 	nop 
     71c:	01 00 00 00 	nop 
     720:	01 00 00 00 	nop 
     724:	01 00 00 00 	nop 
     728:	01 00 00 00 	nop 
     72c:	01 00 00 00 	nop 
     730:	01 00 00 00 	nop 
     734:	01 00 00 00 	nop 
     738:	01 00 00 00 	nop 
     73c:	01 00 00 00 	nop 
     740:	01 00 00 00 	nop 
     744:	01 00 00 00 	nop 
     748:	01 00 00 00 	nop 
     74c:	01 00 00 00 	nop 
     750:	01 00 00 00 	nop 
     754:	01 00 00 00 	nop 
     758:	01 00 00 00 	nop 
     75c:	01 00 00 00 	nop 
     760:	01 00 00 00 	nop 
     764:	01 00 00 00 	nop 
     768:	01 00 00 00 	nop 
     76c:	01 00 00 00 	nop 
     770:	01 00 00 00 	nop 
     774:	01 00 00 00 	nop 
     778:	01 00 00 00 	nop 
     77c:	01 00 00 00 	nop 
     780:	01 00 00 00 	nop 
     784:	01 00 00 00 	nop 
     788:	01 00 00 00 	nop 
     78c:	01 00 00 00 	nop 
     790:	01 00 00 00 	nop 
     794:	01 00 00 00 	nop 
     798:	01 00 00 00 	nop 
     79c:	01 00 00 00 	nop 
     7a0:	01 00 00 00 	nop 
     7a4:	01 00 00 00 	nop 
     7a8:	01 00 00 00 	nop 
     7ac:	01 00 00 00 	nop 
     7b0:	01 00 00 00 	nop 
     7b4:	01 00 00 00 	nop 
     7b8:	01 00 00 00 	nop 
     7bc:	01 00 00 00 	nop 
     7c0:	01 00 00 00 	nop 
     7c4:	01 00 00 00 	nop 
     7c8:	01 00 00 00 	nop 
     7cc:	01 00 00 00 	nop 
     7d0:	01 00 00 00 	nop 
     7d4:	01 00 00 00 	nop 
     7d8:	01 00 00 00 	nop 
     7dc:	01 00 00 00 	nop 
     7e0:	01 00 00 00 	nop 
     7e4:	01 00 00 00 	nop 
     7e8:	01 00 00 00 	nop 
     7ec:	01 00 00 00 	nop 
     7f0:	01 00 00 00 	nop 
     7f4:	01 00 00 00 	nop 
     7f8:	01 00 00 00 	nop 
     7fc:	01 00 00 00 	nop 

00000800 <PAGE_TABLE_BASE>:
	...

00002000 <window_overflow_trap_handler>:
    2000:	a7 50 00 00 	rd  %wim, %l3
    2004:	a9 2c e0 07 	sll  %l3, 7, %l4
    2008:	a7 34 e0 01 	srl  %l3, 1, %l3
    200c:	a6 14 c0 14 	or  %l3, %l4, %l3
    2010:	a6 0c e0 ff 	and  %l3, 0xff, %l3
    2014:	81 90 00 00 	mov  %g0, %wim
    2018:	01 00 00 00 	nop 
    201c:	01 00 00 00 	nop 
    2020:	01 00 00 00 	nop 
    2024:	81 e0 00 00 	save 
    2028:	e0 3b a0 00 	std  %l0, [ %sp ]
    202c:	e4 3b a0 08 	std  %l2, [ %sp + 8 ]
    2030:	e8 3b a0 10 	std  %l4, [ %sp + 0x10 ]
    2034:	ec 3b a0 18 	std  %l6, [ %sp + 0x18 ]
    2038:	f0 3b a0 20 	std  %i0, [ %sp + 0x20 ]
    203c:	f4 3b a0 28 	std  %i2, [ %sp + 0x28 ]
    2040:	f8 3b a0 30 	std  %i4, [ %sp + 0x30 ]
    2044:	fc 3b a0 38 	std  %fp, [ %sp + 0x38 ]
    2048:	81 e8 00 00 	restore 
    204c:	81 90 00 13 	mov  %l3, %wim
    2050:	01 00 00 00 	nop 
    2054:	01 00 00 00 	nop 
    2058:	01 00 00 00 	nop 
    205c:	81 c4 40 00 	jmp  %l1
    2060:	81 cc 80 00 	rett  %l2

00002064 <window_underflow_trap_handler>:
    2064:	a7 50 00 00 	rd  %wim, %l3
    2068:	a9 34 e0 07 	srl  %l3, 7, %l4
    206c:	a7 2c e0 01 	sll  %l3, 1, %l3
    2070:	a6 14 c0 14 	or  %l3, %l4, %l3
    2074:	a6 0c e0 ff 	and  %l3, 0xff, %l3
    2078:	81 90 00 00 	mov  %g0, %wim
    207c:	01 00 00 00 	nop 
    2080:	01 00 00 00 	nop 
    2084:	01 00 00 00 	nop 
    2088:	81 e8 00 00 	restore 
    208c:	81 e8 00 00 	restore 
    2090:	e0 1b a0 00 	ldd  [ %sp ], %l0
    2094:	e4 1b a0 08 	ldd  [ %sp + 8 ], %l2
    2098:	e8 1b a0 10 	ldd  [ %sp + 0x10 ], %l4
    209c:	ec 1b a0 18 	ldd  [ %sp + 0x18 ], %l6
    20a0:	f0 1b a0 20 	ldd  [ %sp + 0x20 ], %i0
    20a4:	f4 1b a0 28 	ldd  [ %sp + 0x28 ], %i2
    20a8:	f8 1b a0 30 	ldd  [ %sp + 0x30 ], %i4
    20ac:	fc 1b a0 38 	ldd  [ %sp + 0x38 ], %fp
    20b0:	81 e0 00 00 	save 
    20b4:	81 e0 00 00 	save 
    20b8:	81 90 00 13 	mov  %l3, %wim
    20bc:	01 00 00 00 	nop 
    20c0:	01 00 00 00 	nop 
    20c4:	01 00 00 00 	nop 
    20c8:	81 c4 40 00 	jmp  %l1
    20cc:	81 cc 80 00 	rett  %l2
    20d0:	01 00 00 00 	nop 
    20d4:	01 00 00 00 	nop 
    20d8:	01 00 00 00 	nop 
    20dc:	01 00 00 00 	nop 
    20e0:	01 00 00 00 	nop 
    20e4:	01 00 00 00 	nop 
    20e8:	01 00 00 00 	nop 
    20ec:	01 00 00 00 	nop 
    20f0:	01 00 00 00 	nop 
    20f4:	01 00 00 00 	nop 
    20f8:	01 00 00 00 	nop 
    20fc:	01 00 00 00 	nop 
    2100:	01 00 00 00 	nop 
    2104:	01 00 00 00 	nop 
    2108:	01 00 00 00 	nop 
    210c:	01 00 00 00 	nop 
    2110:	01 00 00 00 	nop 
    2114:	01 00 00 00 	nop 
    2118:	01 00 00 00 	nop 
    211c:	01 00 00 00 	nop 
    2120:	01 00 00 00 	nop 
    2124:	01 00 00 00 	nop 
    2128:	01 00 00 00 	nop 
    212c:	01 00 00 00 	nop 
    2130:	01 00 00 00 	nop 
    2134:	01 00 00 00 	nop 
    2138:	01 00 00 00 	nop 
    213c:	01 00 00 00 	nop 
    2140:	01 00 00 00 	nop 
    2144:	01 00 00 00 	nop 
    2148:	01 00 00 00 	nop 
    214c:	01 00 00 00 	nop 
    2150:	01 00 00 00 	nop 
    2154:	01 00 00 00 	nop 
    2158:	01 00 00 00 	nop 
    215c:	01 00 00 00 	nop 
    2160:	01 00 00 00 	nop 
    2164:	01 00 00 00 	nop 
    2168:	01 00 00 00 	nop 
    216c:	01 00 00 00 	nop 
    2170:	01 00 00 00 	nop 
    2174:	01 00 00 00 	nop 
    2178:	01 00 00 00 	nop 
    217c:	01 00 00 00 	nop 
    2180:	01 00 00 00 	nop 
    2184:	01 00 00 00 	nop 
    2188:	01 00 00 00 	nop 
    218c:	01 00 00 00 	nop 
    2190:	01 00 00 00 	nop 
    2194:	01 00 00 00 	nop 
    2198:	01 00 00 00 	nop 
    219c:	01 00 00 00 	nop 
    21a0:	01 00 00 00 	nop 
    21a4:	01 00 00 00 	nop 
    21a8:	01 00 00 00 	nop 
    21ac:	01 00 00 00 	nop 
    21b0:	01 00 00 00 	nop 
    21b4:	01 00 00 00 	nop 
    21b8:	01 00 00 00 	nop 
    21bc:	01 00 00 00 	nop 
    21c0:	01 00 00 00 	nop 
    21c4:	01 00 00 00 	nop 
    21c8:	01 00 00 00 	nop 
    21cc:	01 00 00 00 	nop 
    21d0:	01 00 00 00 	nop 
    21d4:	01 00 00 00 	nop 
    21d8:	01 00 00 00 	nop 
    21dc:	01 00 00 00 	nop 
    21e0:	01 00 00 00 	nop 
    21e4:	01 00 00 00 	nop 
    21e8:	01 00 00 00 	nop 
    21ec:	01 00 00 00 	nop 
    21f0:	01 00 00 00 	nop 
    21f4:	01 00 00 00 	nop 
    21f8:	01 00 00 00 	nop 
    21fc:	01 00 00 00 	nop 
    2200:	01 00 00 00 	nop 
    2204:	01 00 00 00 	nop 
    2208:	01 00 00 00 	nop 
    220c:	01 00 00 00 	nop 
    2210:	01 00 00 00 	nop 
    2214:	01 00 00 00 	nop 
    2218:	01 00 00 00 	nop 
    221c:	01 00 00 00 	nop 
    2220:	01 00 00 00 	nop 
    2224:	01 00 00 00 	nop 
    2228:	01 00 00 00 	nop 
    222c:	01 00 00 00 	nop 
    2230:	01 00 00 00 	nop 
    2234:	01 00 00 00 	nop 
    2238:	01 00 00 00 	nop 
    223c:	01 00 00 00 	nop 
    2240:	01 00 00 00 	nop 
    2244:	01 00 00 00 	nop 
    2248:	01 00 00 00 	nop 
    224c:	01 00 00 00 	nop 
    2250:	01 00 00 00 	nop 
    2254:	01 00 00 00 	nop 
    2258:	01 00 00 00 	nop 
    225c:	01 00 00 00 	nop 
    2260:	01 00 00 00 	nop 
    2264:	01 00 00 00 	nop 
    2268:	01 00 00 00 	nop 
    226c:	01 00 00 00 	nop 
    2270:	01 00 00 00 	nop 
    2274:	01 00 00 00 	nop 
    2278:	01 00 00 00 	nop 
    227c:	01 00 00 00 	nop 
    2280:	01 00 00 00 	nop 
    2284:	01 00 00 00 	nop 
    2288:	01 00 00 00 	nop 
    228c:	01 00 00 00 	nop 
    2290:	01 00 00 00 	nop 
    2294:	01 00 00 00 	nop 
    2298:	01 00 00 00 	nop 
    229c:	01 00 00 00 	nop 
    22a0:	01 00 00 00 	nop 
    22a4:	01 00 00 00 	nop 
    22a8:	01 00 00 00 	nop 
    22ac:	01 00 00 00 	nop 
    22b0:	01 00 00 00 	nop 
    22b4:	01 00 00 00 	nop 
    22b8:	01 00 00 00 	nop 
    22bc:	01 00 00 00 	nop 
    22c0:	01 00 00 00 	nop 
    22c4:	01 00 00 00 	nop 
    22c8:	01 00 00 00 	nop 
    22cc:	01 00 00 00 	nop 
    22d0:	01 00 00 00 	nop 
    22d4:	01 00 00 00 	nop 
    22d8:	01 00 00 00 	nop 
    22dc:	01 00 00 00 	nop 
    22e0:	01 00 00 00 	nop 
    22e4:	01 00 00 00 	nop 
    22e8:	01 00 00 00 	nop 
    22ec:	01 00 00 00 	nop 
    22f0:	01 00 00 00 	nop 
    22f4:	01 00 00 00 	nop 
    22f8:	01 00 00 00 	nop 
    22fc:	01 00 00 00 	nop 
    2300:	01 00 00 00 	nop 
    2304:	01 00 00 00 	nop 
    2308:	01 00 00 00 	nop 
    230c:	01 00 00 00 	nop 
    2310:	01 00 00 00 	nop 
    2314:	01 00 00 00 	nop 
    2318:	01 00 00 00 	nop 
    231c:	01 00 00 00 	nop 
    2320:	01 00 00 00 	nop 
    2324:	01 00 00 00 	nop 
    2328:	01 00 00 00 	nop 
    232c:	01 00 00 00 	nop 
    2330:	01 00 00 00 	nop 
    2334:	01 00 00 00 	nop 
    2338:	01 00 00 00 	nop 
    233c:	01 00 00 00 	nop 
    2340:	01 00 00 00 	nop 
    2344:	01 00 00 00 	nop 
    2348:	01 00 00 00 	nop 
    234c:	01 00 00 00 	nop 
    2350:	01 00 00 00 	nop 
    2354:	01 00 00 00 	nop 
    2358:	01 00 00 00 	nop 
    235c:	01 00 00 00 	nop 
    2360:	01 00 00 00 	nop 
    2364:	01 00 00 00 	nop 
    2368:	01 00 00 00 	nop 
    236c:	01 00 00 00 	nop 
    2370:	01 00 00 00 	nop 
    2374:	01 00 00 00 	nop 
    2378:	01 00 00 00 	nop 
    237c:	01 00 00 00 	nop 
    2380:	01 00 00 00 	nop 
    2384:	01 00 00 00 	nop 
    2388:	01 00 00 00 	nop 
    238c:	01 00 00 00 	nop 
    2390:	01 00 00 00 	nop 
    2394:	01 00 00 00 	nop 
    2398:	01 00 00 00 	nop 
    239c:	01 00 00 00 	nop 
    23a0:	01 00 00 00 	nop 
    23a4:	01 00 00 00 	nop 
    23a8:	01 00 00 00 	nop 
    23ac:	01 00 00 00 	nop 
    23b0:	01 00 00 00 	nop 
    23b4:	01 00 00 00 	nop 
    23b8:	01 00 00 00 	nop 
    23bc:	01 00 00 00 	nop 
    23c0:	01 00 00 00 	nop 
    23c4:	01 00 00 00 	nop 
    23c8:	01 00 00 00 	nop 
    23cc:	01 00 00 00 	nop 
    23d0:	01 00 00 00 	nop 
    23d4:	01 00 00 00 	nop 
    23d8:	01 00 00 00 	nop 
    23dc:	01 00 00 00 	nop 
    23e0:	01 00 00 00 	nop 
    23e4:	01 00 00 00 	nop 
    23e8:	01 00 00 00 	nop 
    23ec:	01 00 00 00 	nop 
    23f0:	01 00 00 00 	nop 
    23f4:	01 00 00 00 	nop 
    23f8:	01 00 00 00 	nop 
    23fc:	01 00 00 00 	nop 
    2400:	01 00 00 00 	nop 
    2404:	01 00 00 00 	nop 
    2408:	01 00 00 00 	nop 
    240c:	01 00 00 00 	nop 
    2410:	01 00 00 00 	nop 
    2414:	01 00 00 00 	nop 
    2418:	01 00 00 00 	nop 
    241c:	01 00 00 00 	nop 
    2420:	01 00 00 00 	nop 
    2424:	01 00 00 00 	nop 
    2428:	01 00 00 00 	nop 
    242c:	01 00 00 00 	nop 
    2430:	01 00 00 00 	nop 
    2434:	01 00 00 00 	nop 
    2438:	01 00 00 00 	nop 
    243c:	01 00 00 00 	nop 
    2440:	01 00 00 00 	nop 
    2444:	01 00 00 00 	nop 
    2448:	01 00 00 00 	nop 
    244c:	01 00 00 00 	nop 
    2450:	01 00 00 00 	nop 
    2454:	01 00 00 00 	nop 
    2458:	01 00 00 00 	nop 
    245c:	01 00 00 00 	nop 
    2460:	01 00 00 00 	nop 
    2464:	01 00 00 00 	nop 
    2468:	01 00 00 00 	nop 
    246c:	01 00 00 00 	nop 
    2470:	01 00 00 00 	nop 
    2474:	01 00 00 00 	nop 
    2478:	01 00 00 00 	nop 
    247c:	01 00 00 00 	nop 
    2480:	01 00 00 00 	nop 
    2484:	01 00 00 00 	nop 
    2488:	01 00 00 00 	nop 
    248c:	01 00 00 00 	nop 
    2490:	01 00 00 00 	nop 
    2494:	01 00 00 00 	nop 
    2498:	01 00 00 00 	nop 
    249c:	01 00 00 00 	nop 
    24a0:	01 00 00 00 	nop 
    24a4:	01 00 00 00 	nop 
    24a8:	01 00 00 00 	nop 
    24ac:	01 00 00 00 	nop 
    24b0:	01 00 00 00 	nop 
    24b4:	01 00 00 00 	nop 
    24b8:	01 00 00 00 	nop 
    24bc:	01 00 00 00 	nop 
    24c0:	01 00 00 00 	nop 
    24c4:	01 00 00 00 	nop 
    24c8:	01 00 00 00 	nop 
    24cc:	01 00 00 00 	nop 
    24d0:	01 00 00 00 	nop 
    24d4:	01 00 00 00 	nop 
    24d8:	01 00 00 00 	nop 
    24dc:	01 00 00 00 	nop 
    24e0:	01 00 00 00 	nop 
    24e4:	01 00 00 00 	nop 
    24e8:	01 00 00 00 	nop 
    24ec:	01 00 00 00 	nop 
    24f0:	01 00 00 00 	nop 
    24f4:	01 00 00 00 	nop 
    24f8:	01 00 00 00 	nop 
    24fc:	01 00 00 00 	nop 
    2500:	01 00 00 00 	nop 
    2504:	01 00 00 00 	nop 
    2508:	01 00 00 00 	nop 
    250c:	01 00 00 00 	nop 
    2510:	01 00 00 00 	nop 
    2514:	01 00 00 00 	nop 
    2518:	01 00 00 00 	nop 
    251c:	01 00 00 00 	nop 
    2520:	01 00 00 00 	nop 
    2524:	01 00 00 00 	nop 
    2528:	01 00 00 00 	nop 
    252c:	01 00 00 00 	nop 
    2530:	01 00 00 00 	nop 
    2534:	01 00 00 00 	nop 
    2538:	01 00 00 00 	nop 
    253c:	01 00 00 00 	nop 
    2540:	01 00 00 00 	nop 
    2544:	01 00 00 00 	nop 
    2548:	01 00 00 00 	nop 
    254c:	01 00 00 00 	nop 
    2550:	01 00 00 00 	nop 
    2554:	01 00 00 00 	nop 
    2558:	01 00 00 00 	nop 
    255c:	01 00 00 00 	nop 
    2560:	01 00 00 00 	nop 
    2564:	01 00 00 00 	nop 
    2568:	01 00 00 00 	nop 
    256c:	01 00 00 00 	nop 
    2570:	01 00 00 00 	nop 
    2574:	01 00 00 00 	nop 
    2578:	01 00 00 00 	nop 
    257c:	01 00 00 00 	nop 
    2580:	01 00 00 00 	nop 
    2584:	01 00 00 00 	nop 
    2588:	01 00 00 00 	nop 
    258c:	01 00 00 00 	nop 
    2590:	01 00 00 00 	nop 
    2594:	01 00 00 00 	nop 
    2598:	01 00 00 00 	nop 
    259c:	01 00 00 00 	nop 
    25a0:	01 00 00 00 	nop 
    25a4:	01 00 00 00 	nop 
    25a8:	01 00 00 00 	nop 
    25ac:	01 00 00 00 	nop 
    25b0:	01 00 00 00 	nop 
    25b4:	01 00 00 00 	nop 
    25b8:	01 00 00 00 	nop 
    25bc:	01 00 00 00 	nop 
    25c0:	01 00 00 00 	nop 
    25c4:	01 00 00 00 	nop 
    25c8:	01 00 00 00 	nop 
    25cc:	01 00 00 00 	nop 
    25d0:	01 00 00 00 	nop 
    25d4:	01 00 00 00 	nop 
    25d8:	01 00 00 00 	nop 
    25dc:	01 00 00 00 	nop 
    25e0:	01 00 00 00 	nop 
    25e4:	01 00 00 00 	nop 
    25e8:	01 00 00 00 	nop 
    25ec:	01 00 00 00 	nop 
    25f0:	01 00 00 00 	nop 
    25f4:	01 00 00 00 	nop 
    25f8:	01 00 00 00 	nop 
    25fc:	01 00 00 00 	nop 
    2600:	01 00 00 00 	nop 
    2604:	01 00 00 00 	nop 
    2608:	01 00 00 00 	nop 
    260c:	01 00 00 00 	nop 
    2610:	01 00 00 00 	nop 
    2614:	01 00 00 00 	nop 
    2618:	01 00 00 00 	nop 
    261c:	01 00 00 00 	nop 
    2620:	01 00 00 00 	nop 
    2624:	01 00 00 00 	nop 
    2628:	01 00 00 00 	nop 
    262c:	01 00 00 00 	nop 
    2630:	01 00 00 00 	nop 
    2634:	01 00 00 00 	nop 
    2638:	01 00 00 00 	nop 
    263c:	01 00 00 00 	nop 
    2640:	01 00 00 00 	nop 
    2644:	01 00 00 00 	nop 
    2648:	01 00 00 00 	nop 
    264c:	01 00 00 00 	nop 
    2650:	01 00 00 00 	nop 
    2654:	01 00 00 00 	nop 
    2658:	01 00 00 00 	nop 
    265c:	01 00 00 00 	nop 
    2660:	01 00 00 00 	nop 
    2664:	01 00 00 00 	nop 
    2668:	01 00 00 00 	nop 
    266c:	01 00 00 00 	nop 
    2670:	01 00 00 00 	nop 
    2674:	01 00 00 00 	nop 
    2678:	01 00 00 00 	nop 
    267c:	01 00 00 00 	nop 
    2680:	01 00 00 00 	nop 
    2684:	01 00 00 00 	nop 
    2688:	01 00 00 00 	nop 
    268c:	01 00 00 00 	nop 
    2690:	01 00 00 00 	nop 
    2694:	01 00 00 00 	nop 
    2698:	01 00 00 00 	nop 
    269c:	01 00 00 00 	nop 
    26a0:	01 00 00 00 	nop 
    26a4:	01 00 00 00 	nop 
    26a8:	01 00 00 00 	nop 
    26ac:	01 00 00 00 	nop 
    26b0:	01 00 00 00 	nop 
    26b4:	01 00 00 00 	nop 
    26b8:	01 00 00 00 	nop 
    26bc:	01 00 00 00 	nop 
    26c0:	01 00 00 00 	nop 
    26c4:	01 00 00 00 	nop 
    26c8:	01 00 00 00 	nop 
    26cc:	01 00 00 00 	nop 
    26d0:	01 00 00 00 	nop 
    26d4:	01 00 00 00 	nop 
    26d8:	01 00 00 00 	nop 
    26dc:	01 00 00 00 	nop 
    26e0:	01 00 00 00 	nop 
    26e4:	01 00 00 00 	nop 
    26e8:	01 00 00 00 	nop 
    26ec:	01 00 00 00 	nop 
    26f0:	01 00 00 00 	nop 
    26f4:	01 00 00 00 	nop 
    26f8:	01 00 00 00 	nop 
    26fc:	01 00 00 00 	nop 
    2700:	01 00 00 00 	nop 
    2704:	01 00 00 00 	nop 
    2708:	01 00 00 00 	nop 
    270c:	01 00 00 00 	nop 
    2710:	01 00 00 00 	nop 
    2714:	01 00 00 00 	nop 
    2718:	01 00 00 00 	nop 
    271c:	01 00 00 00 	nop 
    2720:	01 00 00 00 	nop 
    2724:	01 00 00 00 	nop 
    2728:	01 00 00 00 	nop 
    272c:	01 00 00 00 	nop 
    2730:	01 00 00 00 	nop 
    2734:	01 00 00 00 	nop 
    2738:	01 00 00 00 	nop 
    273c:	01 00 00 00 	nop 
    2740:	01 00 00 00 	nop 
    2744:	01 00 00 00 	nop 
    2748:	01 00 00 00 	nop 
    274c:	01 00 00 00 	nop 
    2750:	01 00 00 00 	nop 
    2754:	01 00 00 00 	nop 
    2758:	01 00 00 00 	nop 
    275c:	01 00 00 00 	nop 
    2760:	01 00 00 00 	nop 
    2764:	01 00 00 00 	nop 
    2768:	01 00 00 00 	nop 
    276c:	01 00 00 00 	nop 
    2770:	01 00 00 00 	nop 
    2774:	01 00 00 00 	nop 
    2778:	01 00 00 00 	nop 
    277c:	01 00 00 00 	nop 
    2780:	01 00 00 00 	nop 
    2784:	01 00 00 00 	nop 
    2788:	01 00 00 00 	nop 
    278c:	01 00 00 00 	nop 
    2790:	01 00 00 00 	nop 
    2794:	01 00 00 00 	nop 
    2798:	01 00 00 00 	nop 
    279c:	01 00 00 00 	nop 
    27a0:	01 00 00 00 	nop 
    27a4:	01 00 00 00 	nop 
    27a8:	01 00 00 00 	nop 
    27ac:	01 00 00 00 	nop 
    27b0:	01 00 00 00 	nop 
    27b4:	01 00 00 00 	nop 
    27b8:	01 00 00 00 	nop 
    27bc:	01 00 00 00 	nop 
    27c0:	01 00 00 00 	nop 
    27c4:	01 00 00 00 	nop 
    27c8:	01 00 00 00 	nop 
    27cc:	01 00 00 00 	nop 
    27d0:	01 00 00 00 	nop 
    27d4:	01 00 00 00 	nop 
    27d8:	01 00 00 00 	nop 
    27dc:	01 00 00 00 	nop 
    27e0:	01 00 00 00 	nop 
    27e4:	01 00 00 00 	nop 
    27e8:	01 00 00 00 	nop 
    27ec:	01 00 00 00 	nop 
    27f0:	01 00 00 00 	nop 
    27f4:	01 00 00 00 	nop 
    27f8:	01 00 00 00 	nop 
    27fc:	01 00 00 00 	nop 
    2800:	01 00 00 00 	nop 
    2804:	01 00 00 00 	nop 
    2808:	01 00 00 00 	nop 
    280c:	01 00 00 00 	nop 
    2810:	01 00 00 00 	nop 
    2814:	01 00 00 00 	nop 
    2818:	01 00 00 00 	nop 
    281c:	01 00 00 00 	nop 
    2820:	01 00 00 00 	nop 
    2824:	01 00 00 00 	nop 
    2828:	01 00 00 00 	nop 
    282c:	01 00 00 00 	nop 
    2830:	01 00 00 00 	nop 
    2834:	01 00 00 00 	nop 
    2838:	01 00 00 00 	nop 
    283c:	01 00 00 00 	nop 
    2840:	01 00 00 00 	nop 
    2844:	01 00 00 00 	nop 
    2848:	01 00 00 00 	nop 
    284c:	01 00 00 00 	nop 
    2850:	01 00 00 00 	nop 
    2854:	01 00 00 00 	nop 
    2858:	01 00 00 00 	nop 
    285c:	01 00 00 00 	nop 
    2860:	01 00 00 00 	nop 
    2864:	01 00 00 00 	nop 
    2868:	01 00 00 00 	nop 
    286c:	01 00 00 00 	nop 
    2870:	01 00 00 00 	nop 
    2874:	01 00 00 00 	nop 
    2878:	01 00 00 00 	nop 
    287c:	01 00 00 00 	nop 
    2880:	01 00 00 00 	nop 
    2884:	01 00 00 00 	nop 
    2888:	01 00 00 00 	nop 
    288c:	01 00 00 00 	nop 
    2890:	01 00 00 00 	nop 
    2894:	01 00 00 00 	nop 
    2898:	01 00 00 00 	nop 
    289c:	01 00 00 00 	nop 
    28a0:	01 00 00 00 	nop 
    28a4:	01 00 00 00 	nop 
    28a8:	01 00 00 00 	nop 
    28ac:	01 00 00 00 	nop 
    28b0:	01 00 00 00 	nop 
    28b4:	01 00 00 00 	nop 
    28b8:	01 00 00 00 	nop 
    28bc:	01 00 00 00 	nop 
    28c0:	01 00 00 00 	nop 
    28c4:	01 00 00 00 	nop 
    28c8:	01 00 00 00 	nop 
    28cc:	01 00 00 00 	nop 
    28d0:	01 00 00 00 	nop 
    28d4:	01 00 00 00 	nop 
    28d8:	01 00 00 00 	nop 
    28dc:	01 00 00 00 	nop 
    28e0:	01 00 00 00 	nop 
    28e4:	01 00 00 00 	nop 
    28e8:	01 00 00 00 	nop 
    28ec:	01 00 00 00 	nop 
    28f0:	01 00 00 00 	nop 
    28f4:	01 00 00 00 	nop 
    28f8:	01 00 00 00 	nop 
    28fc:	01 00 00 00 	nop 
    2900:	01 00 00 00 	nop 
    2904:	01 00 00 00 	nop 
    2908:	01 00 00 00 	nop 
    290c:	01 00 00 00 	nop 
    2910:	01 00 00 00 	nop 
    2914:	01 00 00 00 	nop 
    2918:	01 00 00 00 	nop 
    291c:	01 00 00 00 	nop 
    2920:	01 00 00 00 	nop 
    2924:	01 00 00 00 	nop 
    2928:	01 00 00 00 	nop 
    292c:	01 00 00 00 	nop 
    2930:	01 00 00 00 	nop 
    2934:	01 00 00 00 	nop 
    2938:	01 00 00 00 	nop 
    293c:	01 00 00 00 	nop 
    2940:	01 00 00 00 	nop 
    2944:	01 00 00 00 	nop 
    2948:	01 00 00 00 	nop 
    294c:	01 00 00 00 	nop 
    2950:	01 00 00 00 	nop 
    2954:	01 00 00 00 	nop 
    2958:	01 00 00 00 	nop 
    295c:	01 00 00 00 	nop 
    2960:	01 00 00 00 	nop 
    2964:	01 00 00 00 	nop 
    2968:	01 00 00 00 	nop 
    296c:	01 00 00 00 	nop 
    2970:	01 00 00 00 	nop 
    2974:	01 00 00 00 	nop 
    2978:	01 00 00 00 	nop 
    297c:	01 00 00 00 	nop 
    2980:	01 00 00 00 	nop 
    2984:	01 00 00 00 	nop 
    2988:	01 00 00 00 	nop 
    298c:	01 00 00 00 	nop 
    2990:	01 00 00 00 	nop 
    2994:	01 00 00 00 	nop 
    2998:	01 00 00 00 	nop 
    299c:	01 00 00 00 	nop 
    29a0:	01 00 00 00 	nop 
    29a4:	01 00 00 00 	nop 
    29a8:	01 00 00 00 	nop 
    29ac:	01 00 00 00 	nop 
    29b0:	01 00 00 00 	nop 
    29b4:	01 00 00 00 	nop 
    29b8:	01 00 00 00 	nop 
    29bc:	01 00 00 00 	nop 
    29c0:	01 00 00 00 	nop 
    29c4:	01 00 00 00 	nop 
    29c8:	01 00 00 00 	nop 
    29cc:	01 00 00 00 	nop 
    29d0:	01 00 00 00 	nop 
    29d4:	01 00 00 00 	nop 
    29d8:	01 00 00 00 	nop 
    29dc:	01 00 00 00 	nop 
    29e0:	01 00 00 00 	nop 
    29e4:	01 00 00 00 	nop 
    29e8:	01 00 00 00 	nop 
    29ec:	01 00 00 00 	nop 
    29f0:	01 00 00 00 	nop 
    29f4:	01 00 00 00 	nop 
    29f8:	01 00 00 00 	nop 
    29fc:	01 00 00 00 	nop 
    2a00:	01 00 00 00 	nop 
    2a04:	01 00 00 00 	nop 
    2a08:	01 00 00 00 	nop 
    2a0c:	01 00 00 00 	nop 
    2a10:	01 00 00 00 	nop 
    2a14:	01 00 00 00 	nop 
    2a18:	01 00 00 00 	nop 
    2a1c:	01 00 00 00 	nop 
    2a20:	01 00 00 00 	nop 
    2a24:	01 00 00 00 	nop 
    2a28:	01 00 00 00 	nop 
    2a2c:	01 00 00 00 	nop 
    2a30:	01 00 00 00 	nop 
    2a34:	01 00 00 00 	nop 
    2a38:	01 00 00 00 	nop 
    2a3c:	01 00 00 00 	nop 
    2a40:	01 00 00 00 	nop 
    2a44:	01 00 00 00 	nop 
    2a48:	01 00 00 00 	nop 
    2a4c:	01 00 00 00 	nop 
    2a50:	01 00 00 00 	nop 
    2a54:	01 00 00 00 	nop 
    2a58:	01 00 00 00 	nop 
    2a5c:	01 00 00 00 	nop 
    2a60:	01 00 00 00 	nop 
    2a64:	01 00 00 00 	nop 
    2a68:	01 00 00 00 	nop 
    2a6c:	01 00 00 00 	nop 
    2a70:	01 00 00 00 	nop 
    2a74:	01 00 00 00 	nop 
    2a78:	01 00 00 00 	nop 
    2a7c:	01 00 00 00 	nop 
    2a80:	01 00 00 00 	nop 
    2a84:	01 00 00 00 	nop 
    2a88:	01 00 00 00 	nop 
    2a8c:	01 00 00 00 	nop 
    2a90:	01 00 00 00 	nop 
    2a94:	01 00 00 00 	nop 
    2a98:	01 00 00 00 	nop 
    2a9c:	01 00 00 00 	nop 
    2aa0:	01 00 00 00 	nop 
    2aa4:	01 00 00 00 	nop 
    2aa8:	01 00 00 00 	nop 
    2aac:	01 00 00 00 	nop 
    2ab0:	01 00 00 00 	nop 
    2ab4:	01 00 00 00 	nop 
    2ab8:	01 00 00 00 	nop 
    2abc:	01 00 00 00 	nop 
    2ac0:	01 00 00 00 	nop 
    2ac4:	01 00 00 00 	nop 
    2ac8:	01 00 00 00 	nop 
    2acc:	01 00 00 00 	nop 
    2ad0:	01 00 00 00 	nop 
    2ad4:	01 00 00 00 	nop 
    2ad8:	01 00 00 00 	nop 
    2adc:	01 00 00 00 	nop 
    2ae0:	01 00 00 00 	nop 
    2ae4:	01 00 00 00 	nop 
    2ae8:	01 00 00 00 	nop 
    2aec:	01 00 00 00 	nop 
    2af0:	01 00 00 00 	nop 
    2af4:	01 00 00 00 	nop 
    2af8:	01 00 00 00 	nop 
    2afc:	01 00 00 00 	nop 
    2b00:	01 00 00 00 	nop 
    2b04:	01 00 00 00 	nop 
    2b08:	01 00 00 00 	nop 
    2b0c:	01 00 00 00 	nop 
    2b10:	01 00 00 00 	nop 
    2b14:	01 00 00 00 	nop 
    2b18:	01 00 00 00 	nop 
    2b1c:	01 00 00 00 	nop 
    2b20:	01 00 00 00 	nop 
    2b24:	01 00 00 00 	nop 
    2b28:	01 00 00 00 	nop 
    2b2c:	01 00 00 00 	nop 
    2b30:	01 00 00 00 	nop 
    2b34:	01 00 00 00 	nop 
    2b38:	01 00 00 00 	nop 
    2b3c:	01 00 00 00 	nop 
    2b40:	01 00 00 00 	nop 
    2b44:	01 00 00 00 	nop 
    2b48:	01 00 00 00 	nop 
    2b4c:	01 00 00 00 	nop 
    2b50:	01 00 00 00 	nop 
    2b54:	01 00 00 00 	nop 
    2b58:	01 00 00 00 	nop 
    2b5c:	01 00 00 00 	nop 
    2b60:	01 00 00 00 	nop 
    2b64:	01 00 00 00 	nop 
    2b68:	01 00 00 00 	nop 
    2b6c:	01 00 00 00 	nop 
    2b70:	01 00 00 00 	nop 
    2b74:	01 00 00 00 	nop 
    2b78:	01 00 00 00 	nop 
    2b7c:	01 00 00 00 	nop 
    2b80:	01 00 00 00 	nop 
    2b84:	01 00 00 00 	nop 
    2b88:	01 00 00 00 	nop 
    2b8c:	01 00 00 00 	nop 
    2b90:	01 00 00 00 	nop 
    2b94:	01 00 00 00 	nop 
    2b98:	01 00 00 00 	nop 
    2b9c:	01 00 00 00 	nop 
    2ba0:	01 00 00 00 	nop 
    2ba4:	01 00 00 00 	nop 
    2ba8:	01 00 00 00 	nop 
    2bac:	01 00 00 00 	nop 
    2bb0:	01 00 00 00 	nop 
    2bb4:	01 00 00 00 	nop 
    2bb8:	01 00 00 00 	nop 
    2bbc:	01 00 00 00 	nop 
    2bc0:	01 00 00 00 	nop 
    2bc4:	01 00 00 00 	nop 
    2bc8:	01 00 00 00 	nop 
    2bcc:	01 00 00 00 	nop 
    2bd0:	01 00 00 00 	nop 
    2bd4:	01 00 00 00 	nop 
    2bd8:	01 00 00 00 	nop 
    2bdc:	01 00 00 00 	nop 
    2be0:	01 00 00 00 	nop 
    2be4:	01 00 00 00 	nop 
    2be8:	01 00 00 00 	nop 
    2bec:	01 00 00 00 	nop 
    2bf0:	01 00 00 00 	nop 
    2bf4:	01 00 00 00 	nop 
    2bf8:	01 00 00 00 	nop 
    2bfc:	01 00 00 00 	nop 
    2c00:	01 00 00 00 	nop 
    2c04:	01 00 00 00 	nop 
    2c08:	01 00 00 00 	nop 
    2c0c:	01 00 00 00 	nop 
    2c10:	01 00 00 00 	nop 
    2c14:	01 00 00 00 	nop 
    2c18:	01 00 00 00 	nop 
    2c1c:	01 00 00 00 	nop 
    2c20:	01 00 00 00 	nop 
    2c24:	01 00 00 00 	nop 
    2c28:	01 00 00 00 	nop 
    2c2c:	01 00 00 00 	nop 
    2c30:	01 00 00 00 	nop 
    2c34:	01 00 00 00 	nop 
    2c38:	01 00 00 00 	nop 
    2c3c:	01 00 00 00 	nop 
    2c40:	01 00 00 00 	nop 
    2c44:	01 00 00 00 	nop 
    2c48:	01 00 00 00 	nop 
    2c4c:	01 00 00 00 	nop 
    2c50:	01 00 00 00 	nop 
    2c54:	01 00 00 00 	nop 
    2c58:	01 00 00 00 	nop 
    2c5c:	01 00 00 00 	nop 
    2c60:	01 00 00 00 	nop 
    2c64:	01 00 00 00 	nop 
    2c68:	01 00 00 00 	nop 
    2c6c:	01 00 00 00 	nop 
    2c70:	01 00 00 00 	nop 
    2c74:	01 00 00 00 	nop 
    2c78:	01 00 00 00 	nop 
    2c7c:	01 00 00 00 	nop 
    2c80:	01 00 00 00 	nop 
    2c84:	01 00 00 00 	nop 
    2c88:	01 00 00 00 	nop 
    2c8c:	01 00 00 00 	nop 
    2c90:	01 00 00 00 	nop 
    2c94:	01 00 00 00 	nop 
    2c98:	01 00 00 00 	nop 
    2c9c:	01 00 00 00 	nop 
    2ca0:	01 00 00 00 	nop 
    2ca4:	01 00 00 00 	nop 
    2ca8:	01 00 00 00 	nop 
    2cac:	01 00 00 00 	nop 
    2cb0:	01 00 00 00 	nop 
    2cb4:	01 00 00 00 	nop 
    2cb8:	01 00 00 00 	nop 
    2cbc:	01 00 00 00 	nop 
    2cc0:	01 00 00 00 	nop 
    2cc4:	01 00 00 00 	nop 
    2cc8:	01 00 00 00 	nop 
    2ccc:	01 00 00 00 	nop 
    2cd0:	01 00 00 00 	nop 
    2cd4:	01 00 00 00 	nop 
    2cd8:	01 00 00 00 	nop 
    2cdc:	01 00 00 00 	nop 
    2ce0:	01 00 00 00 	nop 
    2ce4:	01 00 00 00 	nop 
    2ce8:	01 00 00 00 	nop 
    2cec:	01 00 00 00 	nop 
    2cf0:	01 00 00 00 	nop 
    2cf4:	01 00 00 00 	nop 
    2cf8:	01 00 00 00 	nop 
    2cfc:	01 00 00 00 	nop 
    2d00:	01 00 00 00 	nop 
    2d04:	01 00 00 00 	nop 
    2d08:	01 00 00 00 	nop 
    2d0c:	01 00 00 00 	nop 
    2d10:	01 00 00 00 	nop 
    2d14:	01 00 00 00 	nop 
    2d18:	01 00 00 00 	nop 
    2d1c:	01 00 00 00 	nop 
    2d20:	01 00 00 00 	nop 
    2d24:	01 00 00 00 	nop 
    2d28:	01 00 00 00 	nop 
    2d2c:	01 00 00 00 	nop 
    2d30:	01 00 00 00 	nop 
    2d34:	01 00 00 00 	nop 
    2d38:	01 00 00 00 	nop 
    2d3c:	01 00 00 00 	nop 
    2d40:	01 00 00 00 	nop 
    2d44:	01 00 00 00 	nop 
    2d48:	01 00 00 00 	nop 
    2d4c:	01 00 00 00 	nop 
    2d50:	01 00 00 00 	nop 
    2d54:	01 00 00 00 	nop 
    2d58:	01 00 00 00 	nop 
    2d5c:	01 00 00 00 	nop 
    2d60:	01 00 00 00 	nop 
    2d64:	01 00 00 00 	nop 
    2d68:	01 00 00 00 	nop 
    2d6c:	01 00 00 00 	nop 
    2d70:	01 00 00 00 	nop 
    2d74:	01 00 00 00 	nop 
    2d78:	01 00 00 00 	nop 
    2d7c:	01 00 00 00 	nop 
    2d80:	01 00 00 00 	nop 
    2d84:	01 00 00 00 	nop 
    2d88:	01 00 00 00 	nop 
    2d8c:	01 00 00 00 	nop 
    2d90:	01 00 00 00 	nop 
    2d94:	01 00 00 00 	nop 
    2d98:	01 00 00 00 	nop 
    2d9c:	01 00 00 00 	nop 
    2da0:	01 00 00 00 	nop 
    2da4:	01 00 00 00 	nop 
    2da8:	01 00 00 00 	nop 
    2dac:	01 00 00 00 	nop 
    2db0:	01 00 00 00 	nop 
    2db4:	01 00 00 00 	nop 
    2db8:	01 00 00 00 	nop 
    2dbc:	01 00 00 00 	nop 
    2dc0:	01 00 00 00 	nop 
    2dc4:	01 00 00 00 	nop 
    2dc8:	01 00 00 00 	nop 
    2dcc:	01 00 00 00 	nop 
    2dd0:	01 00 00 00 	nop 
    2dd4:	01 00 00 00 	nop 
    2dd8:	01 00 00 00 	nop 
    2ddc:	01 00 00 00 	nop 
    2de0:	01 00 00 00 	nop 
    2de4:	01 00 00 00 	nop 
    2de8:	01 00 00 00 	nop 
    2dec:	01 00 00 00 	nop 
    2df0:	01 00 00 00 	nop 
    2df4:	01 00 00 00 	nop 
    2df8:	01 00 00 00 	nop 
    2dfc:	01 00 00 00 	nop 
    2e00:	01 00 00 00 	nop 
    2e04:	01 00 00 00 	nop 
    2e08:	01 00 00 00 	nop 
    2e0c:	01 00 00 00 	nop 
    2e10:	01 00 00 00 	nop 
    2e14:	01 00 00 00 	nop 
    2e18:	01 00 00 00 	nop 
    2e1c:	01 00 00 00 	nop 
    2e20:	01 00 00 00 	nop 
    2e24:	01 00 00 00 	nop 
    2e28:	01 00 00 00 	nop 
    2e2c:	01 00 00 00 	nop 
    2e30:	01 00 00 00 	nop 
    2e34:	01 00 00 00 	nop 
    2e38:	01 00 00 00 	nop 
    2e3c:	01 00 00 00 	nop 
    2e40:	01 00 00 00 	nop 
    2e44:	01 00 00 00 	nop 
    2e48:	01 00 00 00 	nop 
    2e4c:	01 00 00 00 	nop 
    2e50:	01 00 00 00 	nop 
    2e54:	01 00 00 00 	nop 
    2e58:	01 00 00 00 	nop 
    2e5c:	01 00 00 00 	nop 
    2e60:	01 00 00 00 	nop 
    2e64:	01 00 00 00 	nop 
    2e68:	01 00 00 00 	nop 
    2e6c:	01 00 00 00 	nop 
    2e70:	01 00 00 00 	nop 
    2e74:	01 00 00 00 	nop 
    2e78:	01 00 00 00 	nop 
    2e7c:	01 00 00 00 	nop 
    2e80:	01 00 00 00 	nop 
    2e84:	01 00 00 00 	nop 
    2e88:	01 00 00 00 	nop 
    2e8c:	01 00 00 00 	nop 
    2e90:	01 00 00 00 	nop 
    2e94:	01 00 00 00 	nop 
    2e98:	01 00 00 00 	nop 
    2e9c:	01 00 00 00 	nop 
    2ea0:	01 00 00 00 	nop 
    2ea4:	01 00 00 00 	nop 
    2ea8:	01 00 00 00 	nop 
    2eac:	01 00 00 00 	nop 
    2eb0:	01 00 00 00 	nop 
    2eb4:	01 00 00 00 	nop 
    2eb8:	01 00 00 00 	nop 
    2ebc:	01 00 00 00 	nop 
    2ec0:	01 00 00 00 	nop 
    2ec4:	01 00 00 00 	nop 
    2ec8:	01 00 00 00 	nop 
    2ecc:	01 00 00 00 	nop 
    2ed0:	01 00 00 00 	nop 
    2ed4:	01 00 00 00 	nop 
    2ed8:	01 00 00 00 	nop 
    2edc:	01 00 00 00 	nop 
    2ee0:	01 00 00 00 	nop 
    2ee4:	01 00 00 00 	nop 
    2ee8:	01 00 00 00 	nop 
    2eec:	01 00 00 00 	nop 
    2ef0:	01 00 00 00 	nop 
    2ef4:	01 00 00 00 	nop 
    2ef8:	01 00 00 00 	nop 
    2efc:	01 00 00 00 	nop 
    2f00:	01 00 00 00 	nop 
    2f04:	01 00 00 00 	nop 
    2f08:	01 00 00 00 	nop 
    2f0c:	01 00 00 00 	nop 
    2f10:	01 00 00 00 	nop 
    2f14:	01 00 00 00 	nop 
    2f18:	01 00 00 00 	nop 
    2f1c:	01 00 00 00 	nop 
    2f20:	01 00 00 00 	nop 
    2f24:	01 00 00 00 	nop 
    2f28:	01 00 00 00 	nop 
    2f2c:	01 00 00 00 	nop 
    2f30:	01 00 00 00 	nop 
    2f34:	01 00 00 00 	nop 
    2f38:	01 00 00 00 	nop 
    2f3c:	01 00 00 00 	nop 
    2f40:	01 00 00 00 	nop 
    2f44:	01 00 00 00 	nop 
    2f48:	01 00 00 00 	nop 
    2f4c:	01 00 00 00 	nop 
    2f50:	01 00 00 00 	nop 
    2f54:	01 00 00 00 	nop 
    2f58:	01 00 00 00 	nop 
    2f5c:	01 00 00 00 	nop 
    2f60:	01 00 00 00 	nop 
    2f64:	01 00 00 00 	nop 
    2f68:	01 00 00 00 	nop 
    2f6c:	01 00 00 00 	nop 
    2f70:	01 00 00 00 	nop 
    2f74:	01 00 00 00 	nop 
    2f78:	01 00 00 00 	nop 
    2f7c:	01 00 00 00 	nop 
    2f80:	01 00 00 00 	nop 
    2f84:	01 00 00 00 	nop 
    2f88:	01 00 00 00 	nop 
    2f8c:	01 00 00 00 	nop 
    2f90:	01 00 00 00 	nop 
    2f94:	01 00 00 00 	nop 
    2f98:	01 00 00 00 	nop 
    2f9c:	01 00 00 00 	nop 
    2fa0:	01 00 00 00 	nop 
    2fa4:	01 00 00 00 	nop 
    2fa8:	01 00 00 00 	nop 
    2fac:	01 00 00 00 	nop 
    2fb0:	01 00 00 00 	nop 
    2fb4:	01 00 00 00 	nop 
    2fb8:	01 00 00 00 	nop 
    2fbc:	01 00 00 00 	nop 
    2fc0:	01 00 00 00 	nop 
    2fc4:	01 00 00 00 	nop 
    2fc8:	01 00 00 00 	nop 
    2fcc:	01 00 00 00 	nop 
    2fd0:	01 00 00 00 	nop 
    2fd4:	01 00 00 00 	nop 
    2fd8:	01 00 00 00 	nop 
    2fdc:	01 00 00 00 	nop 
    2fe0:	01 00 00 00 	nop 
    2fe4:	01 00 00 00 	nop 
    2fe8:	01 00 00 00 	nop 
    2fec:	01 00 00 00 	nop 
    2ff0:	01 00 00 00 	nop 
    2ff4:	01 00 00 00 	nop 
    2ff8:	01 00 00 00 	nop 
    2ffc:	01 00 00 00 	nop 

00003000 <trap_table_base>:
    3000:	91 d0 20 00 	ta  0
    3004:	01 00 00 00 	nop 
    3008:	01 00 00 00 	nop 
    300c:	01 00 00 00 	nop 

00003010 <HW_trap_0x01>:
    3010:	91 d0 20 00 	ta  0
    3014:	01 00 00 00 	nop 
    3018:	01 00 00 00 	nop 
    301c:	01 00 00 00 	nop 

00003020 <HW_trap_0x02>:
    3020:	91 d0 20 00 	ta  0
    3024:	01 00 00 00 	nop 
    3028:	01 00 00 00 	nop 
    302c:	01 00 00 00 	nop 

00003030 <HW_trap_0x03>:
    3030:	91 d0 20 00 	ta  0
    3034:	01 00 00 00 	nop 
    3038:	01 00 00 00 	nop 
    303c:	01 00 00 00 	nop 

00003040 <HW_trap_0x04>:
    3040:	91 d0 20 00 	ta  0
    3044:	01 00 00 00 	nop 
    3048:	01 00 00 00 	nop 
    304c:	01 00 00 00 	nop 

00003050 <HW_trap_0x05>:
    3050:	10 bf fb ec 	b  2000 <window_overflow_trap_handler>
    3054:	01 00 00 00 	nop 
    3058:	01 00 00 00 	nop 
    305c:	01 00 00 00 	nop 

00003060 <HW_trap_0x06>:
    3060:	10 bf fc 01 	b  2064 <window_underflow_trap_handler>
    3064:	01 00 00 00 	nop 
    3068:	01 00 00 00 	nop 
    306c:	01 00 00 00 	nop 

00003070 <HW_trap_0x07>:
    3070:	91 d0 20 00 	ta  0
    3074:	01 00 00 00 	nop 
    3078:	01 00 00 00 	nop 
    307c:	01 00 00 00 	nop 

00003080 <HW_trap_0x08>:
    3080:	91 d0 20 00 	ta  0
    3084:	01 00 00 00 	nop 
    3088:	01 00 00 00 	nop 
    308c:	01 00 00 00 	nop 

00003090 <HW_trap_0x09>:
    3090:	91 d0 20 00 	ta  0
    3094:	01 00 00 00 	nop 
    3098:	01 00 00 00 	nop 
    309c:	01 00 00 00 	nop 

000030a0 <HW_trap_0x0a>:
    30a0:	91 d0 20 00 	ta  0
    30a4:	01 00 00 00 	nop 
    30a8:	01 00 00 00 	nop 
    30ac:	01 00 00 00 	nop 

000030b0 <HW_trap_0x0b>:
    30b0:	91 d0 20 00 	ta  0
    30b4:	01 00 00 00 	nop 
    30b8:	01 00 00 00 	nop 
    30bc:	01 00 00 00 	nop 

000030c0 <HW_trap_0x0c>:
    30c0:	91 d0 20 00 	ta  0
    30c4:	01 00 00 00 	nop 
    30c8:	01 00 00 00 	nop 
    30cc:	01 00 00 00 	nop 

000030d0 <HW_trap_0x0d>:
    30d0:	91 d0 20 00 	ta  0
    30d4:	01 00 00 00 	nop 
    30d8:	01 00 00 00 	nop 
    30dc:	01 00 00 00 	nop 

000030e0 <HW_trap_0x0e>:
    30e0:	91 d0 20 00 	ta  0
    30e4:	01 00 00 00 	nop 
    30e8:	01 00 00 00 	nop 
    30ec:	01 00 00 00 	nop 

000030f0 <HW_trap_0x0f>:
    30f0:	91 d0 20 00 	ta  0
    30f4:	01 00 00 00 	nop 
    30f8:	01 00 00 00 	nop 
    30fc:	01 00 00 00 	nop 

00003100 <HW_trap_0x10>:
    3100:	91 d0 20 00 	ta  0
    3104:	01 00 00 00 	nop 
    3108:	01 00 00 00 	nop 
    310c:	01 00 00 00 	nop 

00003110 <HW_trap_0x11>:
    3110:	91 d0 20 00 	ta  0
    3114:	01 00 00 00 	nop 
    3118:	01 00 00 00 	nop 
    311c:	01 00 00 00 	nop 

00003120 <HW_trap_0x12>:
    3120:	91 d0 20 00 	ta  0
    3124:	01 00 00 00 	nop 
    3128:	01 00 00 00 	nop 
    312c:	01 00 00 00 	nop 

00003130 <HW_trap_0x13>:
    3130:	91 d0 20 00 	ta  0
    3134:	01 00 00 00 	nop 
    3138:	01 00 00 00 	nop 
    313c:	01 00 00 00 	nop 

00003140 <HW_trap_0x14>:
    3140:	91 d0 20 00 	ta  0
    3144:	01 00 00 00 	nop 
    3148:	01 00 00 00 	nop 
    314c:	01 00 00 00 	nop 

00003150 <HW_trap_0x15>:
    3150:	91 d0 20 00 	ta  0
    3154:	01 00 00 00 	nop 
    3158:	01 00 00 00 	nop 
    315c:	01 00 00 00 	nop 

00003160 <HW_trap_0x16>:
    3160:	91 d0 20 00 	ta  0
    3164:	01 00 00 00 	nop 
    3168:	01 00 00 00 	nop 
    316c:	01 00 00 00 	nop 

00003170 <HW_trap_0x17>:
    3170:	91 d0 20 00 	ta  0
    3174:	01 00 00 00 	nop 
    3178:	01 00 00 00 	nop 
    317c:	01 00 00 00 	nop 

00003180 <HW_trap_0x18>:
    3180:	91 d0 20 00 	ta  0
    3184:	01 00 00 00 	nop 
    3188:	01 00 00 00 	nop 
    318c:	01 00 00 00 	nop 

00003190 <HW_trap_0x19>:
    3190:	91 d0 20 00 	ta  0
    3194:	01 00 00 00 	nop 
    3198:	01 00 00 00 	nop 
    319c:	01 00 00 00 	nop 

000031a0 <HW_trap_0x1a>:
    31a0:	91 d0 20 00 	ta  0
    31a4:	01 00 00 00 	nop 
    31a8:	01 00 00 00 	nop 
    31ac:	01 00 00 00 	nop 

000031b0 <HW_trap_0x1b>:
    31b0:	91 d0 20 00 	ta  0
    31b4:	01 00 00 00 	nop 
    31b8:	01 00 00 00 	nop 
    31bc:	01 00 00 00 	nop 

000031c0 <HW_trap_0x1c>:
    31c0:	91 d0 20 00 	ta  0
    31c4:	01 00 00 00 	nop 
    31c8:	01 00 00 00 	nop 
    31cc:	01 00 00 00 	nop 

000031d0 <HW_trap_0x1d>:
    31d0:	91 d0 20 00 	ta  0
    31d4:	01 00 00 00 	nop 
    31d8:	01 00 00 00 	nop 
    31dc:	01 00 00 00 	nop 

000031e0 <HW_trap_0x1e>:
    31e0:	91 d0 20 00 	ta  0
    31e4:	01 00 00 00 	nop 
    31e8:	01 00 00 00 	nop 
    31ec:	01 00 00 00 	nop 

000031f0 <HW_trap_0x1f>:
    31f0:	91 d0 20 00 	ta  0
    31f4:	01 00 00 00 	nop 
    31f8:	01 00 00 00 	nop 
    31fc:	01 00 00 00 	nop 

00003200 <HW_trap_0x20>:
    3200:	91 d0 20 00 	ta  0
    3204:	01 00 00 00 	nop 
    3208:	01 00 00 00 	nop 
    320c:	01 00 00 00 	nop 

00003210 <HW_trap_0x21>:
    3210:	91 d0 20 00 	ta  0
    3214:	01 00 00 00 	nop 
    3218:	01 00 00 00 	nop 
    321c:	01 00 00 00 	nop 

00003220 <HW_trap_0x22>:
    3220:	91 d0 20 00 	ta  0
    3224:	01 00 00 00 	nop 
    3228:	01 00 00 00 	nop 
    322c:	01 00 00 00 	nop 

00003230 <HW_trap_0x23>:
    3230:	91 d0 20 00 	ta  0
    3234:	01 00 00 00 	nop 
    3238:	01 00 00 00 	nop 
    323c:	01 00 00 00 	nop 

00003240 <HW_trap_0x24>:
    3240:	91 d0 20 00 	ta  0
    3244:	01 00 00 00 	nop 
    3248:	01 00 00 00 	nop 
    324c:	01 00 00 00 	nop 

00003250 <HW_trap_0x25>:
    3250:	91 d0 20 00 	ta  0
    3254:	01 00 00 00 	nop 
    3258:	01 00 00 00 	nop 
    325c:	01 00 00 00 	nop 

00003260 <HW_trap_0x26>:
    3260:	91 d0 20 00 	ta  0
    3264:	01 00 00 00 	nop 
    3268:	01 00 00 00 	nop 
    326c:	01 00 00 00 	nop 

00003270 <HW_trap_0x27>:
    3270:	91 d0 20 00 	ta  0
    3274:	01 00 00 00 	nop 
    3278:	01 00 00 00 	nop 
    327c:	01 00 00 00 	nop 

00003280 <HW_trap_0x28>:
    3280:	91 d0 20 00 	ta  0
    3284:	01 00 00 00 	nop 
    3288:	01 00 00 00 	nop 
    328c:	01 00 00 00 	nop 

00003290 <HW_trap_0x29>:
    3290:	91 d0 20 00 	ta  0
    3294:	01 00 00 00 	nop 
    3298:	01 00 00 00 	nop 
    329c:	01 00 00 00 	nop 

000032a0 <HW_trap_0x2a>:
    32a0:	91 d0 20 00 	ta  0
    32a4:	01 00 00 00 	nop 
    32a8:	01 00 00 00 	nop 
    32ac:	01 00 00 00 	nop 

000032b0 <HW_trap_0x2b>:
    32b0:	91 d0 20 00 	ta  0
    32b4:	01 00 00 00 	nop 
    32b8:	01 00 00 00 	nop 
    32bc:	01 00 00 00 	nop 

000032c0 <HW_trap_0x2c>:
    32c0:	91 d0 20 00 	ta  0
    32c4:	01 00 00 00 	nop 
    32c8:	01 00 00 00 	nop 
    32cc:	01 00 00 00 	nop 

000032d0 <HW_trap_0x2d>:
    32d0:	91 d0 20 00 	ta  0
    32d4:	01 00 00 00 	nop 
    32d8:	01 00 00 00 	nop 
    32dc:	01 00 00 00 	nop 

000032e0 <HW_trap_0x2e>:
    32e0:	91 d0 20 00 	ta  0
    32e4:	01 00 00 00 	nop 
    32e8:	01 00 00 00 	nop 
    32ec:	01 00 00 00 	nop 

000032f0 <HW_trap_0x2f>:
    32f0:	91 d0 20 00 	ta  0
    32f4:	01 00 00 00 	nop 
    32f8:	01 00 00 00 	nop 
    32fc:	01 00 00 00 	nop 

00003300 <HW_trap_0x30>:
    3300:	91 d0 20 00 	ta  0
    3304:	01 00 00 00 	nop 
    3308:	01 00 00 00 	nop 
    330c:	01 00 00 00 	nop 

00003310 <HW_trap_0x31>:
    3310:	91 d0 20 00 	ta  0
    3314:	01 00 00 00 	nop 
    3318:	01 00 00 00 	nop 
    331c:	01 00 00 00 	nop 

00003320 <HW_trap_0x32>:
    3320:	91 d0 20 00 	ta  0
    3324:	01 00 00 00 	nop 
    3328:	01 00 00 00 	nop 
    332c:	01 00 00 00 	nop 

00003330 <HW_trap_0x33>:
    3330:	91 d0 20 00 	ta  0
    3334:	01 00 00 00 	nop 
    3338:	01 00 00 00 	nop 
    333c:	01 00 00 00 	nop 

00003340 <HW_trap_0x34>:
    3340:	91 d0 20 00 	ta  0
    3344:	01 00 00 00 	nop 
    3348:	01 00 00 00 	nop 
    334c:	01 00 00 00 	nop 

00003350 <HW_trap_0x35>:
    3350:	91 d0 20 00 	ta  0
    3354:	01 00 00 00 	nop 
    3358:	01 00 00 00 	nop 
    335c:	01 00 00 00 	nop 

00003360 <HW_trap_0x36>:
    3360:	91 d0 20 00 	ta  0
    3364:	01 00 00 00 	nop 
    3368:	01 00 00 00 	nop 
    336c:	01 00 00 00 	nop 

00003370 <HW_trap_0x37>:
    3370:	91 d0 20 00 	ta  0
    3374:	01 00 00 00 	nop 
    3378:	01 00 00 00 	nop 
    337c:	01 00 00 00 	nop 

00003380 <HW_trap_0x38>:
    3380:	91 d0 20 00 	ta  0
    3384:	01 00 00 00 	nop 
    3388:	01 00 00 00 	nop 
    338c:	01 00 00 00 	nop 

00003390 <HW_trap_0x39>:
    3390:	91 d0 20 00 	ta  0
    3394:	01 00 00 00 	nop 
    3398:	01 00 00 00 	nop 
    339c:	01 00 00 00 	nop 

000033a0 <HW_trap_0x3a>:
    33a0:	91 d0 20 00 	ta  0
    33a4:	01 00 00 00 	nop 
    33a8:	01 00 00 00 	nop 
    33ac:	01 00 00 00 	nop 

000033b0 <HW_trap_0x3b>:
    33b0:	91 d0 20 00 	ta  0
    33b4:	01 00 00 00 	nop 
    33b8:	01 00 00 00 	nop 
    33bc:	01 00 00 00 	nop 

000033c0 <HW_trap_0x3c>:
    33c0:	91 d0 20 00 	ta  0
    33c4:	01 00 00 00 	nop 
    33c8:	01 00 00 00 	nop 
    33cc:	01 00 00 00 	nop 

000033d0 <HW_trap_0x3d>:
    33d0:	91 d0 20 00 	ta  0
    33d4:	01 00 00 00 	nop 
    33d8:	01 00 00 00 	nop 
    33dc:	01 00 00 00 	nop 

000033e0 <HW_trap_0x3e>:
    33e0:	91 d0 20 00 	ta  0
    33e4:	01 00 00 00 	nop 
    33e8:	01 00 00 00 	nop 
    33ec:	01 00 00 00 	nop 

000033f0 <HW_trap_0x3f>:
    33f0:	91 d0 20 00 	ta  0
    33f4:	01 00 00 00 	nop 
    33f8:	01 00 00 00 	nop 
    33fc:	01 00 00 00 	nop 

00003400 <HW_trap_0x40>:
    3400:	91 d0 20 00 	ta  0
    3404:	01 00 00 00 	nop 
    3408:	01 00 00 00 	nop 
    340c:	01 00 00 00 	nop 

00003410 <HW_trap_0x41>:
    3410:	91 d0 20 00 	ta  0
    3414:	01 00 00 00 	nop 
    3418:	01 00 00 00 	nop 
    341c:	01 00 00 00 	nop 

00003420 <HW_trap_0x42>:
    3420:	91 d0 20 00 	ta  0
    3424:	01 00 00 00 	nop 
    3428:	01 00 00 00 	nop 
    342c:	01 00 00 00 	nop 

00003430 <HW_trap_0x43>:
    3430:	91 d0 20 00 	ta  0
    3434:	01 00 00 00 	nop 
    3438:	01 00 00 00 	nop 
    343c:	01 00 00 00 	nop 

00003440 <HW_trap_0x44>:
    3440:	91 d0 20 00 	ta  0
    3444:	01 00 00 00 	nop 
    3448:	01 00 00 00 	nop 
    344c:	01 00 00 00 	nop 

00003450 <HW_trap_0x45>:
    3450:	91 d0 20 00 	ta  0
    3454:	01 00 00 00 	nop 
    3458:	01 00 00 00 	nop 
    345c:	01 00 00 00 	nop 

00003460 <HW_trap_0x46>:
    3460:	91 d0 20 00 	ta  0
    3464:	01 00 00 00 	nop 
    3468:	01 00 00 00 	nop 
    346c:	01 00 00 00 	nop 

00003470 <HW_trap_0x47>:
    3470:	91 d0 20 00 	ta  0
    3474:	01 00 00 00 	nop 
    3478:	01 00 00 00 	nop 
    347c:	01 00 00 00 	nop 

00003480 <HW_trap_0x48>:
    3480:	91 d0 20 00 	ta  0
    3484:	01 00 00 00 	nop 
    3488:	01 00 00 00 	nop 
    348c:	01 00 00 00 	nop 

00003490 <HW_trap_0x49>:
    3490:	91 d0 20 00 	ta  0
    3494:	01 00 00 00 	nop 
    3498:	01 00 00 00 	nop 
    349c:	01 00 00 00 	nop 

000034a0 <HW_trap_0x4a>:
    34a0:	91 d0 20 00 	ta  0
    34a4:	01 00 00 00 	nop 
    34a8:	01 00 00 00 	nop 
    34ac:	01 00 00 00 	nop 

000034b0 <HW_trap_0x4b>:
    34b0:	91 d0 20 00 	ta  0
    34b4:	01 00 00 00 	nop 
    34b8:	01 00 00 00 	nop 
    34bc:	01 00 00 00 	nop 

000034c0 <HW_trap_0x4c>:
    34c0:	91 d0 20 00 	ta  0
    34c4:	01 00 00 00 	nop 
    34c8:	01 00 00 00 	nop 
    34cc:	01 00 00 00 	nop 

000034d0 <HW_trap_0x4d>:
    34d0:	91 d0 20 00 	ta  0
    34d4:	01 00 00 00 	nop 
    34d8:	01 00 00 00 	nop 
    34dc:	01 00 00 00 	nop 

000034e0 <HW_trap_0x4e>:
    34e0:	91 d0 20 00 	ta  0
    34e4:	01 00 00 00 	nop 
    34e8:	01 00 00 00 	nop 
    34ec:	01 00 00 00 	nop 

000034f0 <HW_trap_0x4f>:
    34f0:	91 d0 20 00 	ta  0
    34f4:	01 00 00 00 	nop 
    34f8:	01 00 00 00 	nop 
    34fc:	01 00 00 00 	nop 

00003500 <HW_trap_0x50>:
    3500:	91 d0 20 00 	ta  0
    3504:	01 00 00 00 	nop 
    3508:	01 00 00 00 	nop 
    350c:	01 00 00 00 	nop 

00003510 <HW_trap_0x51>:
    3510:	91 d0 20 00 	ta  0
    3514:	01 00 00 00 	nop 
    3518:	01 00 00 00 	nop 
    351c:	01 00 00 00 	nop 

00003520 <HW_trap_0x52>:
    3520:	91 d0 20 00 	ta  0
    3524:	01 00 00 00 	nop 
    3528:	01 00 00 00 	nop 
    352c:	01 00 00 00 	nop 

00003530 <HW_trap_0x53>:
    3530:	91 d0 20 00 	ta  0
    3534:	01 00 00 00 	nop 
    3538:	01 00 00 00 	nop 
    353c:	01 00 00 00 	nop 

00003540 <HW_trap_0x54>:
    3540:	91 d0 20 00 	ta  0
    3544:	01 00 00 00 	nop 
    3548:	01 00 00 00 	nop 
    354c:	01 00 00 00 	nop 

00003550 <HW_trap_0x55>:
    3550:	91 d0 20 00 	ta  0
    3554:	01 00 00 00 	nop 
    3558:	01 00 00 00 	nop 
    355c:	01 00 00 00 	nop 

00003560 <HW_trap_0x56>:
    3560:	91 d0 20 00 	ta  0
    3564:	01 00 00 00 	nop 
    3568:	01 00 00 00 	nop 
    356c:	01 00 00 00 	nop 

00003570 <HW_trap_0x57>:
    3570:	91 d0 20 00 	ta  0
    3574:	01 00 00 00 	nop 
    3578:	01 00 00 00 	nop 
    357c:	01 00 00 00 	nop 

00003580 <HW_trap_0x58>:
    3580:	91 d0 20 00 	ta  0
    3584:	01 00 00 00 	nop 
    3588:	01 00 00 00 	nop 
    358c:	01 00 00 00 	nop 

00003590 <HW_trap_0x59>:
    3590:	91 d0 20 00 	ta  0
    3594:	01 00 00 00 	nop 
    3598:	01 00 00 00 	nop 
    359c:	01 00 00 00 	nop 

000035a0 <HW_trap_0x5a>:
    35a0:	91 d0 20 00 	ta  0
    35a4:	01 00 00 00 	nop 
    35a8:	01 00 00 00 	nop 
    35ac:	01 00 00 00 	nop 

000035b0 <HW_trap_0x5b>:
    35b0:	91 d0 20 00 	ta  0
    35b4:	01 00 00 00 	nop 
    35b8:	01 00 00 00 	nop 
    35bc:	01 00 00 00 	nop 

000035c0 <HW_trap_0x5c>:
    35c0:	91 d0 20 00 	ta  0
    35c4:	01 00 00 00 	nop 
    35c8:	01 00 00 00 	nop 
    35cc:	01 00 00 00 	nop 

000035d0 <HW_trap_0x5d>:
    35d0:	91 d0 20 00 	ta  0
    35d4:	01 00 00 00 	nop 
    35d8:	01 00 00 00 	nop 
    35dc:	01 00 00 00 	nop 

000035e0 <HW_trap_0x5e>:
    35e0:	91 d0 20 00 	ta  0
    35e4:	01 00 00 00 	nop 
    35e8:	01 00 00 00 	nop 
    35ec:	01 00 00 00 	nop 

000035f0 <HW_trap_0x5f>:
    35f0:	91 d0 20 00 	ta  0
    35f4:	01 00 00 00 	nop 
    35f8:	01 00 00 00 	nop 
    35fc:	01 00 00 00 	nop 

00003600 <HW_trap_0x60>:
    3600:	91 d0 20 00 	ta  0
    3604:	01 00 00 00 	nop 
    3608:	01 00 00 00 	nop 
    360c:	01 00 00 00 	nop 

00003610 <HW_trap_0x61>:
    3610:	91 d0 20 00 	ta  0
    3614:	01 00 00 00 	nop 
    3618:	01 00 00 00 	nop 
    361c:	01 00 00 00 	nop 

00003620 <HW_trap_0x62>:
    3620:	91 d0 20 00 	ta  0
    3624:	01 00 00 00 	nop 
    3628:	01 00 00 00 	nop 
    362c:	01 00 00 00 	nop 

00003630 <HW_trap_0x63>:
    3630:	91 d0 20 00 	ta  0
    3634:	01 00 00 00 	nop 
    3638:	01 00 00 00 	nop 
    363c:	01 00 00 00 	nop 

00003640 <HW_trap_0x64>:
    3640:	91 d0 20 00 	ta  0
    3644:	01 00 00 00 	nop 
    3648:	01 00 00 00 	nop 
    364c:	01 00 00 00 	nop 

00003650 <HW_trap_0x65>:
    3650:	91 d0 20 00 	ta  0
    3654:	01 00 00 00 	nop 
    3658:	01 00 00 00 	nop 
    365c:	01 00 00 00 	nop 

00003660 <HW_trap_0x66>:
    3660:	91 d0 20 00 	ta  0
    3664:	01 00 00 00 	nop 
    3668:	01 00 00 00 	nop 
    366c:	01 00 00 00 	nop 

00003670 <HW_trap_0x67>:
    3670:	91 d0 20 00 	ta  0
    3674:	01 00 00 00 	nop 
    3678:	01 00 00 00 	nop 
    367c:	01 00 00 00 	nop 

00003680 <HW_trap_0x68>:
    3680:	91 d0 20 00 	ta  0
    3684:	01 00 00 00 	nop 
    3688:	01 00 00 00 	nop 
    368c:	01 00 00 00 	nop 

00003690 <HW_trap_0x69>:
    3690:	91 d0 20 00 	ta  0
    3694:	01 00 00 00 	nop 
    3698:	01 00 00 00 	nop 
    369c:	01 00 00 00 	nop 

000036a0 <HW_trap_0x6a>:
    36a0:	91 d0 20 00 	ta  0
    36a4:	01 00 00 00 	nop 
    36a8:	01 00 00 00 	nop 
    36ac:	01 00 00 00 	nop 

000036b0 <HW_trap_0x6b>:
    36b0:	91 d0 20 00 	ta  0
    36b4:	01 00 00 00 	nop 
    36b8:	01 00 00 00 	nop 
    36bc:	01 00 00 00 	nop 

000036c0 <HW_trap_0x6c>:
    36c0:	91 d0 20 00 	ta  0
    36c4:	01 00 00 00 	nop 
    36c8:	01 00 00 00 	nop 
    36cc:	01 00 00 00 	nop 

000036d0 <HW_trap_0x6d>:
    36d0:	91 d0 20 00 	ta  0
    36d4:	01 00 00 00 	nop 
    36d8:	01 00 00 00 	nop 
    36dc:	01 00 00 00 	nop 

000036e0 <HW_trap_0x6e>:
    36e0:	91 d0 20 00 	ta  0
    36e4:	01 00 00 00 	nop 
    36e8:	01 00 00 00 	nop 
    36ec:	01 00 00 00 	nop 

000036f0 <HW_trap_0x6f>:
    36f0:	91 d0 20 00 	ta  0
    36f4:	01 00 00 00 	nop 
    36f8:	01 00 00 00 	nop 
    36fc:	01 00 00 00 	nop 

00003700 <HW_trap_0x70>:
    3700:	91 d0 20 00 	ta  0
    3704:	01 00 00 00 	nop 
    3708:	01 00 00 00 	nop 
    370c:	01 00 00 00 	nop 

00003710 <HW_trap_0x71>:
    3710:	91 d0 20 00 	ta  0
    3714:	01 00 00 00 	nop 
    3718:	01 00 00 00 	nop 
    371c:	01 00 00 00 	nop 

00003720 <HW_trap_0x72>:
    3720:	91 d0 20 00 	ta  0
    3724:	01 00 00 00 	nop 
    3728:	01 00 00 00 	nop 
    372c:	01 00 00 00 	nop 

00003730 <HW_trap_0x73>:
    3730:	91 d0 20 00 	ta  0
    3734:	01 00 00 00 	nop 
    3738:	01 00 00 00 	nop 
    373c:	01 00 00 00 	nop 

00003740 <HW_trap_0x74>:
    3740:	91 d0 20 00 	ta  0
    3744:	01 00 00 00 	nop 
    3748:	01 00 00 00 	nop 
    374c:	01 00 00 00 	nop 

00003750 <HW_trap_0x75>:
    3750:	91 d0 20 00 	ta  0
    3754:	01 00 00 00 	nop 
    3758:	01 00 00 00 	nop 
    375c:	01 00 00 00 	nop 

00003760 <HW_trap_0x76>:
    3760:	91 d0 20 00 	ta  0
    3764:	01 00 00 00 	nop 
    3768:	01 00 00 00 	nop 
    376c:	01 00 00 00 	nop 

00003770 <HW_trap_0x77>:
    3770:	91 d0 20 00 	ta  0
    3774:	01 00 00 00 	nop 
    3778:	01 00 00 00 	nop 
    377c:	01 00 00 00 	nop 

00003780 <HW_trap_0x78>:
    3780:	91 d0 20 00 	ta  0
    3784:	01 00 00 00 	nop 
    3788:	01 00 00 00 	nop 
    378c:	01 00 00 00 	nop 

00003790 <HW_trap_0x79>:
    3790:	91 d0 20 00 	ta  0
    3794:	01 00 00 00 	nop 
    3798:	01 00 00 00 	nop 
    379c:	01 00 00 00 	nop 

000037a0 <HW_trap_0x7a>:
    37a0:	91 d0 20 00 	ta  0
    37a4:	01 00 00 00 	nop 
    37a8:	01 00 00 00 	nop 
    37ac:	01 00 00 00 	nop 

000037b0 <HW_trap_0x7b>:
    37b0:	91 d0 20 00 	ta  0
    37b4:	01 00 00 00 	nop 
    37b8:	01 00 00 00 	nop 
    37bc:	01 00 00 00 	nop 

000037c0 <HW_trap_0x7c>:
    37c0:	91 d0 20 00 	ta  0
    37c4:	01 00 00 00 	nop 
    37c8:	01 00 00 00 	nop 
    37cc:	01 00 00 00 	nop 

000037d0 <HW_trap_0x7d>:
    37d0:	91 d0 20 00 	ta  0
    37d4:	01 00 00 00 	nop 
    37d8:	01 00 00 00 	nop 
    37dc:	01 00 00 00 	nop 

000037e0 <HW_trap_0x7e>:
    37e0:	91 d0 20 00 	ta  0
    37e4:	01 00 00 00 	nop 
    37e8:	01 00 00 00 	nop 
    37ec:	01 00 00 00 	nop 

000037f0 <HW_trap_0x7f>:
    37f0:	91 d0 20 00 	ta  0
    37f4:	01 00 00 00 	nop 
    37f8:	01 00 00 00 	nop 
    37fc:	01 00 00 00 	nop 

00003800 <SW_trap_0x80>:
    3800:	91 d0 20 00 	ta  0
    3804:	01 00 00 00 	nop 
    3808:	01 00 00 00 	nop 
    380c:	01 00 00 00 	nop 

00003810 <SW_trap_0x81>:
    3810:	91 d0 20 00 	ta  0
    3814:	01 00 00 00 	nop 
    3818:	01 00 00 00 	nop 
    381c:	01 00 00 00 	nop 

00003820 <SW_trap_0x82>:
    3820:	91 d0 20 00 	ta  0
    3824:	01 00 00 00 	nop 
    3828:	01 00 00 00 	nop 
    382c:	01 00 00 00 	nop 

00003830 <SW_trap_0x83>:
    3830:	91 d0 20 00 	ta  0
    3834:	01 00 00 00 	nop 
    3838:	01 00 00 00 	nop 
    383c:	01 00 00 00 	nop 

00003840 <SW_trap_0x84>:
    3840:	91 d0 20 00 	ta  0
    3844:	01 00 00 00 	nop 
    3848:	01 00 00 00 	nop 
    384c:	01 00 00 00 	nop 

00003850 <SW_trap_0x85>:
    3850:	91 d0 20 00 	ta  0
    3854:	01 00 00 00 	nop 
    3858:	01 00 00 00 	nop 
    385c:	01 00 00 00 	nop 

00003860 <SW_trap_0x86>:
    3860:	91 d0 20 00 	ta  0
    3864:	01 00 00 00 	nop 
    3868:	01 00 00 00 	nop 
    386c:	01 00 00 00 	nop 

00003870 <SW_trap_0x87>:
    3870:	91 d0 20 00 	ta  0
    3874:	01 00 00 00 	nop 
    3878:	01 00 00 00 	nop 
    387c:	01 00 00 00 	nop 

00003880 <SW_trap_0x88>:
    3880:	91 d0 20 00 	ta  0
    3884:	01 00 00 00 	nop 
    3888:	01 00 00 00 	nop 
    388c:	01 00 00 00 	nop 

00003890 <SW_trap_0x89>:
    3890:	91 d0 20 00 	ta  0
    3894:	01 00 00 00 	nop 
    3898:	01 00 00 00 	nop 
    389c:	01 00 00 00 	nop 

000038a0 <SW_trap_0x8a>:
    38a0:	91 d0 20 00 	ta  0
    38a4:	01 00 00 00 	nop 
    38a8:	01 00 00 00 	nop 
    38ac:	01 00 00 00 	nop 

000038b0 <SW_trap_0x8b>:
    38b0:	91 d0 20 00 	ta  0
    38b4:	01 00 00 00 	nop 
    38b8:	01 00 00 00 	nop 
    38bc:	01 00 00 00 	nop 

000038c0 <SW_trap_0x8c>:
    38c0:	91 d0 20 00 	ta  0
    38c4:	01 00 00 00 	nop 
    38c8:	01 00 00 00 	nop 
    38cc:	01 00 00 00 	nop 

000038d0 <SW_trap_0x8d>:
    38d0:	91 d0 20 00 	ta  0
    38d4:	01 00 00 00 	nop 
    38d8:	01 00 00 00 	nop 
    38dc:	01 00 00 00 	nop 

000038e0 <SW_trap_0x8e>:
    38e0:	91 d0 20 00 	ta  0
    38e4:	01 00 00 00 	nop 
    38e8:	01 00 00 00 	nop 
    38ec:	01 00 00 00 	nop 

000038f0 <SW_trap_0x8f>:
    38f0:	91 d0 20 00 	ta  0
    38f4:	01 00 00 00 	nop 
    38f8:	01 00 00 00 	nop 
    38fc:	01 00 00 00 	nop 

00003900 <SW_trap_0x90>:
    3900:	91 d0 20 00 	ta  0
    3904:	01 00 00 00 	nop 
    3908:	01 00 00 00 	nop 
    390c:	01 00 00 00 	nop 

00003910 <SW_trap_0x91>:
    3910:	91 d0 20 00 	ta  0
    3914:	01 00 00 00 	nop 
    3918:	01 00 00 00 	nop 
    391c:	01 00 00 00 	nop 

00003920 <SW_trap_0x92>:
    3920:	91 d0 20 00 	ta  0
    3924:	01 00 00 00 	nop 
    3928:	01 00 00 00 	nop 
    392c:	01 00 00 00 	nop 

00003930 <SW_trap_0x93>:
    3930:	91 d0 20 00 	ta  0
    3934:	01 00 00 00 	nop 
    3938:	01 00 00 00 	nop 
    393c:	01 00 00 00 	nop 

00003940 <SW_trap_0x94>:
    3940:	91 d0 20 00 	ta  0
    3944:	01 00 00 00 	nop 
    3948:	01 00 00 00 	nop 
    394c:	01 00 00 00 	nop 

00003950 <SW_trap_0x95>:
    3950:	91 d0 20 00 	ta  0
    3954:	01 00 00 00 	nop 
    3958:	01 00 00 00 	nop 
    395c:	01 00 00 00 	nop 

00003960 <SW_trap_0x96>:
    3960:	91 d0 20 00 	ta  0
    3964:	01 00 00 00 	nop 
    3968:	01 00 00 00 	nop 
    396c:	01 00 00 00 	nop 

00003970 <SW_trap_0x97>:
    3970:	91 d0 20 00 	ta  0
    3974:	01 00 00 00 	nop 
    3978:	01 00 00 00 	nop 
    397c:	01 00 00 00 	nop 

00003980 <SW_trap_0x98>:
    3980:	91 d0 20 00 	ta  0
    3984:	01 00 00 00 	nop 
    3988:	01 00 00 00 	nop 
    398c:	01 00 00 00 	nop 

00003990 <SW_trap_0x99>:
    3990:	91 d0 20 00 	ta  0
    3994:	01 00 00 00 	nop 
    3998:	01 00 00 00 	nop 
    399c:	01 00 00 00 	nop 

000039a0 <SW_trap_0x9a>:
    39a0:	91 d0 20 00 	ta  0
    39a4:	01 00 00 00 	nop 
    39a8:	01 00 00 00 	nop 
    39ac:	01 00 00 00 	nop 

000039b0 <SW_trap_0x9b>:
    39b0:	91 d0 20 00 	ta  0
    39b4:	01 00 00 00 	nop 
    39b8:	01 00 00 00 	nop 
    39bc:	01 00 00 00 	nop 

000039c0 <SW_trap_0x9c>:
    39c0:	91 d0 20 00 	ta  0
    39c4:	01 00 00 00 	nop 
    39c8:	01 00 00 00 	nop 
    39cc:	01 00 00 00 	nop 

000039d0 <SW_trap_0x9d>:
    39d0:	91 d0 20 00 	ta  0
    39d4:	01 00 00 00 	nop 
    39d8:	01 00 00 00 	nop 
    39dc:	01 00 00 00 	nop 

000039e0 <SW_trap_0x9e>:
    39e0:	91 d0 20 00 	ta  0
    39e4:	01 00 00 00 	nop 
    39e8:	01 00 00 00 	nop 
    39ec:	01 00 00 00 	nop 

000039f0 <SW_trap_0x9f>:
    39f0:	91 d0 20 00 	ta  0
    39f4:	01 00 00 00 	nop 
    39f8:	01 00 00 00 	nop 
    39fc:	01 00 00 00 	nop 

00003a00 <SW_trap_0xa0>:
    3a00:	91 d0 20 00 	ta  0
    3a04:	01 00 00 00 	nop 
    3a08:	01 00 00 00 	nop 
    3a0c:	01 00 00 00 	nop 

00003a10 <SW_trap_0xa1>:
    3a10:	91 d0 20 00 	ta  0
    3a14:	01 00 00 00 	nop 
    3a18:	01 00 00 00 	nop 
    3a1c:	01 00 00 00 	nop 

00003a20 <SW_trap_0xa2>:
    3a20:	91 d0 20 00 	ta  0
    3a24:	01 00 00 00 	nop 
    3a28:	01 00 00 00 	nop 
    3a2c:	01 00 00 00 	nop 

00003a30 <SW_trap_0xa3>:
    3a30:	91 d0 20 00 	ta  0
    3a34:	01 00 00 00 	nop 
    3a38:	01 00 00 00 	nop 
    3a3c:	01 00 00 00 	nop 

00003a40 <SW_trap_0xa4>:
    3a40:	91 d0 20 00 	ta  0
    3a44:	01 00 00 00 	nop 
    3a48:	01 00 00 00 	nop 
    3a4c:	01 00 00 00 	nop 

00003a50 <SW_trap_0xa5>:
    3a50:	91 d0 20 00 	ta  0
    3a54:	01 00 00 00 	nop 
    3a58:	01 00 00 00 	nop 
    3a5c:	01 00 00 00 	nop 

00003a60 <SW_trap_0xa6>:
    3a60:	91 d0 20 00 	ta  0
    3a64:	01 00 00 00 	nop 
    3a68:	01 00 00 00 	nop 
    3a6c:	01 00 00 00 	nop 

00003a70 <SW_trap_0xa7>:
    3a70:	91 d0 20 00 	ta  0
    3a74:	01 00 00 00 	nop 
    3a78:	01 00 00 00 	nop 
    3a7c:	01 00 00 00 	nop 

00003a80 <SW_trap_0xa8>:
    3a80:	91 d0 20 00 	ta  0
    3a84:	01 00 00 00 	nop 
    3a88:	01 00 00 00 	nop 
    3a8c:	01 00 00 00 	nop 

00003a90 <SW_trap_0xa9>:
    3a90:	91 d0 20 00 	ta  0
    3a94:	01 00 00 00 	nop 
    3a98:	01 00 00 00 	nop 
    3a9c:	01 00 00 00 	nop 

00003aa0 <SW_trap_0xaa>:
    3aa0:	91 d0 20 00 	ta  0
    3aa4:	01 00 00 00 	nop 
    3aa8:	01 00 00 00 	nop 
    3aac:	01 00 00 00 	nop 

00003ab0 <SW_trap_0xab>:
    3ab0:	91 d0 20 00 	ta  0
    3ab4:	01 00 00 00 	nop 
    3ab8:	01 00 00 00 	nop 
    3abc:	01 00 00 00 	nop 

00003ac0 <SW_trap_0xac>:
    3ac0:	91 d0 20 00 	ta  0
    3ac4:	01 00 00 00 	nop 
    3ac8:	01 00 00 00 	nop 
    3acc:	01 00 00 00 	nop 

00003ad0 <SW_trap_0xad>:
    3ad0:	91 d0 20 00 	ta  0
    3ad4:	01 00 00 00 	nop 
    3ad8:	01 00 00 00 	nop 
    3adc:	01 00 00 00 	nop 

00003ae0 <SW_trap_0xae>:
    3ae0:	91 d0 20 00 	ta  0
    3ae4:	01 00 00 00 	nop 
    3ae8:	01 00 00 00 	nop 
    3aec:	01 00 00 00 	nop 

00003af0 <SW_trap_0xaf>:
    3af0:	91 d0 20 00 	ta  0
    3af4:	01 00 00 00 	nop 
    3af8:	01 00 00 00 	nop 
    3afc:	01 00 00 00 	nop 

00003b00 <SW_trap_0xb0>:
    3b00:	91 d0 20 00 	ta  0
    3b04:	01 00 00 00 	nop 
    3b08:	01 00 00 00 	nop 
    3b0c:	01 00 00 00 	nop 

00003b10 <SW_trap_0xb1>:
    3b10:	91 d0 20 00 	ta  0
    3b14:	01 00 00 00 	nop 
    3b18:	01 00 00 00 	nop 
    3b1c:	01 00 00 00 	nop 

00003b20 <SW_trap_0xb2>:
    3b20:	91 d0 20 00 	ta  0
    3b24:	01 00 00 00 	nop 
    3b28:	01 00 00 00 	nop 
    3b2c:	01 00 00 00 	nop 

00003b30 <SW_trap_0xb3>:
    3b30:	91 d0 20 00 	ta  0
    3b34:	01 00 00 00 	nop 
    3b38:	01 00 00 00 	nop 
    3b3c:	01 00 00 00 	nop 

00003b40 <SW_trap_0xb4>:
    3b40:	91 d0 20 00 	ta  0
    3b44:	01 00 00 00 	nop 
    3b48:	01 00 00 00 	nop 
    3b4c:	01 00 00 00 	nop 

00003b50 <SW_trap_0xb5>:
    3b50:	91 d0 20 00 	ta  0
    3b54:	01 00 00 00 	nop 
    3b58:	01 00 00 00 	nop 
    3b5c:	01 00 00 00 	nop 

00003b60 <SW_trap_0xb6>:
    3b60:	91 d0 20 00 	ta  0
    3b64:	01 00 00 00 	nop 
    3b68:	01 00 00 00 	nop 
    3b6c:	01 00 00 00 	nop 

00003b70 <SW_trap_0xb7>:
    3b70:	91 d0 20 00 	ta  0
    3b74:	01 00 00 00 	nop 
    3b78:	01 00 00 00 	nop 
    3b7c:	01 00 00 00 	nop 

00003b80 <SW_trap_0xb8>:
    3b80:	91 d0 20 00 	ta  0
    3b84:	01 00 00 00 	nop 
    3b88:	01 00 00 00 	nop 
    3b8c:	01 00 00 00 	nop 

00003b90 <SW_trap_0xb9>:
    3b90:	91 d0 20 00 	ta  0
    3b94:	01 00 00 00 	nop 
    3b98:	01 00 00 00 	nop 
    3b9c:	01 00 00 00 	nop 

00003ba0 <SW_trap_0xba>:
    3ba0:	91 d0 20 00 	ta  0
    3ba4:	01 00 00 00 	nop 
    3ba8:	01 00 00 00 	nop 
    3bac:	01 00 00 00 	nop 

00003bb0 <SW_trap_0xbb>:
    3bb0:	91 d0 20 00 	ta  0
    3bb4:	01 00 00 00 	nop 
    3bb8:	01 00 00 00 	nop 
    3bbc:	01 00 00 00 	nop 

00003bc0 <SW_trap_0xbc>:
    3bc0:	91 d0 20 00 	ta  0
    3bc4:	01 00 00 00 	nop 
    3bc8:	01 00 00 00 	nop 
    3bcc:	01 00 00 00 	nop 

00003bd0 <SW_trap_0xbd>:
    3bd0:	91 d0 20 00 	ta  0
    3bd4:	01 00 00 00 	nop 
    3bd8:	01 00 00 00 	nop 
    3bdc:	01 00 00 00 	nop 

00003be0 <SW_trap_0xbe>:
    3be0:	91 d0 20 00 	ta  0
    3be4:	01 00 00 00 	nop 
    3be8:	01 00 00 00 	nop 
    3bec:	01 00 00 00 	nop 

00003bf0 <SW_trap_0xbf>:
    3bf0:	91 d0 20 00 	ta  0
    3bf4:	01 00 00 00 	nop 
    3bf8:	01 00 00 00 	nop 
    3bfc:	01 00 00 00 	nop 

00003c00 <SW_trap_0xc0>:
    3c00:	91 d0 20 00 	ta  0
    3c04:	01 00 00 00 	nop 
    3c08:	01 00 00 00 	nop 
    3c0c:	01 00 00 00 	nop 

00003c10 <SW_trap_0xc1>:
    3c10:	91 d0 20 00 	ta  0
    3c14:	01 00 00 00 	nop 
    3c18:	01 00 00 00 	nop 
    3c1c:	01 00 00 00 	nop 

00003c20 <SW_trap_0xc2>:
    3c20:	91 d0 20 00 	ta  0
    3c24:	01 00 00 00 	nop 
    3c28:	01 00 00 00 	nop 
    3c2c:	01 00 00 00 	nop 

00003c30 <SW_trap_0xc3>:
    3c30:	91 d0 20 00 	ta  0
    3c34:	01 00 00 00 	nop 
    3c38:	01 00 00 00 	nop 
    3c3c:	01 00 00 00 	nop 

00003c40 <SW_trap_0xc4>:
    3c40:	91 d0 20 00 	ta  0
    3c44:	01 00 00 00 	nop 
    3c48:	01 00 00 00 	nop 
    3c4c:	01 00 00 00 	nop 

00003c50 <SW_trap_0xc5>:
    3c50:	91 d0 20 00 	ta  0
    3c54:	01 00 00 00 	nop 
    3c58:	01 00 00 00 	nop 
    3c5c:	01 00 00 00 	nop 

00003c60 <SW_trap_0xc6>:
    3c60:	91 d0 20 00 	ta  0
    3c64:	01 00 00 00 	nop 
    3c68:	01 00 00 00 	nop 
    3c6c:	01 00 00 00 	nop 

00003c70 <SW_trap_0xc7>:
    3c70:	91 d0 20 00 	ta  0
    3c74:	01 00 00 00 	nop 
    3c78:	01 00 00 00 	nop 
    3c7c:	01 00 00 00 	nop 

00003c80 <SW_trap_0xc8>:
    3c80:	91 d0 20 00 	ta  0
    3c84:	01 00 00 00 	nop 
    3c88:	01 00 00 00 	nop 
    3c8c:	01 00 00 00 	nop 

00003c90 <SW_trap_0xc9>:
    3c90:	91 d0 20 00 	ta  0
    3c94:	01 00 00 00 	nop 
    3c98:	01 00 00 00 	nop 
    3c9c:	01 00 00 00 	nop 

00003ca0 <SW_trap_0xca>:
    3ca0:	91 d0 20 00 	ta  0
    3ca4:	01 00 00 00 	nop 
    3ca8:	01 00 00 00 	nop 
    3cac:	01 00 00 00 	nop 

00003cb0 <SW_trap_0xcb>:
    3cb0:	91 d0 20 00 	ta  0
    3cb4:	01 00 00 00 	nop 
    3cb8:	01 00 00 00 	nop 
    3cbc:	01 00 00 00 	nop 

00003cc0 <SW_trap_0xcc>:
    3cc0:	91 d0 20 00 	ta  0
    3cc4:	01 00 00 00 	nop 
    3cc8:	01 00 00 00 	nop 
    3ccc:	01 00 00 00 	nop 

00003cd0 <SW_trap_0xcd>:
    3cd0:	91 d0 20 00 	ta  0
    3cd4:	01 00 00 00 	nop 
    3cd8:	01 00 00 00 	nop 
    3cdc:	01 00 00 00 	nop 

00003ce0 <SW_trap_0xce>:
    3ce0:	91 d0 20 00 	ta  0
    3ce4:	01 00 00 00 	nop 
    3ce8:	01 00 00 00 	nop 
    3cec:	01 00 00 00 	nop 

00003cf0 <SW_trap_0xcf>:
    3cf0:	91 d0 20 00 	ta  0
    3cf4:	01 00 00 00 	nop 
    3cf8:	01 00 00 00 	nop 
    3cfc:	01 00 00 00 	nop 

00003d00 <SW_trap_0xd0>:
    3d00:	91 d0 20 00 	ta  0
    3d04:	01 00 00 00 	nop 
    3d08:	01 00 00 00 	nop 
    3d0c:	01 00 00 00 	nop 

00003d10 <SW_trap_0xd1>:
    3d10:	91 d0 20 00 	ta  0
    3d14:	01 00 00 00 	nop 
    3d18:	01 00 00 00 	nop 
    3d1c:	01 00 00 00 	nop 

00003d20 <SW_trap_0xd2>:
    3d20:	91 d0 20 00 	ta  0
    3d24:	01 00 00 00 	nop 
    3d28:	01 00 00 00 	nop 
    3d2c:	01 00 00 00 	nop 

00003d30 <SW_trap_0xd3>:
    3d30:	91 d0 20 00 	ta  0
    3d34:	01 00 00 00 	nop 
    3d38:	01 00 00 00 	nop 
    3d3c:	01 00 00 00 	nop 

00003d40 <SW_trap_0xd4>:
    3d40:	91 d0 20 00 	ta  0
    3d44:	01 00 00 00 	nop 
    3d48:	01 00 00 00 	nop 
    3d4c:	01 00 00 00 	nop 

00003d50 <SW_trap_0xd5>:
    3d50:	91 d0 20 00 	ta  0
    3d54:	01 00 00 00 	nop 
    3d58:	01 00 00 00 	nop 
    3d5c:	01 00 00 00 	nop 

00003d60 <SW_trap_0xd6>:
    3d60:	91 d0 20 00 	ta  0
    3d64:	01 00 00 00 	nop 
    3d68:	01 00 00 00 	nop 
    3d6c:	01 00 00 00 	nop 

00003d70 <SW_trap_0xd7>:
    3d70:	91 d0 20 00 	ta  0
    3d74:	01 00 00 00 	nop 
    3d78:	01 00 00 00 	nop 
    3d7c:	01 00 00 00 	nop 

00003d80 <SW_trap_0xd8>:
    3d80:	91 d0 20 00 	ta  0
    3d84:	01 00 00 00 	nop 
    3d88:	01 00 00 00 	nop 
    3d8c:	01 00 00 00 	nop 

00003d90 <SW_trap_0xd9>:
    3d90:	91 d0 20 00 	ta  0
    3d94:	01 00 00 00 	nop 
    3d98:	01 00 00 00 	nop 
    3d9c:	01 00 00 00 	nop 

00003da0 <SW_trap_0xda>:
    3da0:	91 d0 20 00 	ta  0
    3da4:	01 00 00 00 	nop 
    3da8:	01 00 00 00 	nop 
    3dac:	01 00 00 00 	nop 

00003db0 <SW_trap_0xdb>:
    3db0:	91 d0 20 00 	ta  0
    3db4:	01 00 00 00 	nop 
    3db8:	01 00 00 00 	nop 
    3dbc:	01 00 00 00 	nop 

00003dc0 <SW_trap_0xdc>:
    3dc0:	91 d0 20 00 	ta  0
    3dc4:	01 00 00 00 	nop 
    3dc8:	01 00 00 00 	nop 
    3dcc:	01 00 00 00 	nop 

00003dd0 <SW_trap_0xdd>:
    3dd0:	91 d0 20 00 	ta  0
    3dd4:	01 00 00 00 	nop 
    3dd8:	01 00 00 00 	nop 
    3ddc:	01 00 00 00 	nop 

00003de0 <SW_trap_0xde>:
    3de0:	91 d0 20 00 	ta  0
    3de4:	01 00 00 00 	nop 
    3de8:	01 00 00 00 	nop 
    3dec:	01 00 00 00 	nop 

00003df0 <SW_trap_0xdf>:
    3df0:	91 d0 20 00 	ta  0
    3df4:	01 00 00 00 	nop 
    3df8:	01 00 00 00 	nop 
    3dfc:	01 00 00 00 	nop 

00003e00 <SW_trap_0xe0>:
    3e00:	91 d0 20 00 	ta  0
    3e04:	01 00 00 00 	nop 
    3e08:	01 00 00 00 	nop 
    3e0c:	01 00 00 00 	nop 

00003e10 <SW_trap_0xe1>:
    3e10:	91 d0 20 00 	ta  0
    3e14:	01 00 00 00 	nop 
    3e18:	01 00 00 00 	nop 
    3e1c:	01 00 00 00 	nop 

00003e20 <SW_trap_0xe2>:
    3e20:	91 d0 20 00 	ta  0
    3e24:	01 00 00 00 	nop 
    3e28:	01 00 00 00 	nop 
    3e2c:	01 00 00 00 	nop 

00003e30 <SW_trap_0xe3>:
    3e30:	91 d0 20 00 	ta  0
    3e34:	01 00 00 00 	nop 
    3e38:	01 00 00 00 	nop 
    3e3c:	01 00 00 00 	nop 

00003e40 <SW_trap_0xe4>:
    3e40:	91 d0 20 00 	ta  0
    3e44:	01 00 00 00 	nop 
    3e48:	01 00 00 00 	nop 
    3e4c:	01 00 00 00 	nop 

00003e50 <SW_trap_0xe5>:
    3e50:	91 d0 20 00 	ta  0
    3e54:	01 00 00 00 	nop 
    3e58:	01 00 00 00 	nop 
    3e5c:	01 00 00 00 	nop 

00003e60 <SW_trap_0xe6>:
    3e60:	91 d0 20 00 	ta  0
    3e64:	01 00 00 00 	nop 
    3e68:	01 00 00 00 	nop 
    3e6c:	01 00 00 00 	nop 

00003e70 <SW_trap_0xe7>:
    3e70:	91 d0 20 00 	ta  0
    3e74:	01 00 00 00 	nop 
    3e78:	01 00 00 00 	nop 
    3e7c:	01 00 00 00 	nop 

00003e80 <SW_trap_0xe8>:
    3e80:	91 d0 20 00 	ta  0
    3e84:	01 00 00 00 	nop 
    3e88:	01 00 00 00 	nop 
    3e8c:	01 00 00 00 	nop 

00003e90 <SW_trap_0xe9>:
    3e90:	91 d0 20 00 	ta  0
    3e94:	01 00 00 00 	nop 
    3e98:	01 00 00 00 	nop 
    3e9c:	01 00 00 00 	nop 

00003ea0 <SW_trap_0xea>:
    3ea0:	91 d0 20 00 	ta  0
    3ea4:	01 00 00 00 	nop 
    3ea8:	01 00 00 00 	nop 
    3eac:	01 00 00 00 	nop 

00003eb0 <SW_trap_0xeb>:
    3eb0:	91 d0 20 00 	ta  0
    3eb4:	01 00 00 00 	nop 
    3eb8:	01 00 00 00 	nop 
    3ebc:	01 00 00 00 	nop 

00003ec0 <SW_trap_0xec>:
    3ec0:	91 d0 20 00 	ta  0
    3ec4:	01 00 00 00 	nop 
    3ec8:	01 00 00 00 	nop 
    3ecc:	01 00 00 00 	nop 

00003ed0 <SW_trap_0xed>:
    3ed0:	91 d0 20 00 	ta  0
    3ed4:	01 00 00 00 	nop 
    3ed8:	01 00 00 00 	nop 
    3edc:	01 00 00 00 	nop 

00003ee0 <SW_trap_0xee>:
    3ee0:	91 d0 20 00 	ta  0
    3ee4:	01 00 00 00 	nop 
    3ee8:	01 00 00 00 	nop 
    3eec:	01 00 00 00 	nop 

00003ef0 <SW_trap_0xef>:
    3ef0:	91 d0 20 00 	ta  0
    3ef4:	01 00 00 00 	nop 
    3ef8:	01 00 00 00 	nop 
    3efc:	01 00 00 00 	nop 

00003f00 <SW_trap_0xf0>:
    3f00:	91 d0 20 00 	ta  0
    3f04:	01 00 00 00 	nop 
    3f08:	01 00 00 00 	nop 
    3f0c:	01 00 00 00 	nop 

00003f10 <SW_trap_0xf1>:
    3f10:	91 d0 20 00 	ta  0
    3f14:	01 00 00 00 	nop 
    3f18:	01 00 00 00 	nop 
    3f1c:	01 00 00 00 	nop 

00003f20 <SW_trap_0xf2>:
    3f20:	91 d0 20 00 	ta  0
    3f24:	01 00 00 00 	nop 
    3f28:	01 00 00 00 	nop 
    3f2c:	01 00 00 00 	nop 

00003f30 <SW_trap_0xf3>:
    3f30:	91 d0 20 00 	ta  0
    3f34:	01 00 00 00 	nop 
    3f38:	01 00 00 00 	nop 
    3f3c:	01 00 00 00 	nop 

00003f40 <SW_trap_0xf4>:
    3f40:	91 d0 20 00 	ta  0
    3f44:	01 00 00 00 	nop 
    3f48:	01 00 00 00 	nop 
    3f4c:	01 00 00 00 	nop 

00003f50 <SW_trap_0xf5>:
    3f50:	91 d0 20 00 	ta  0
    3f54:	01 00 00 00 	nop 
    3f58:	01 00 00 00 	nop 
    3f5c:	01 00 00 00 	nop 

00003f60 <SW_trap_0xf6>:
    3f60:	91 d0 20 00 	ta  0
    3f64:	01 00 00 00 	nop 
    3f68:	01 00 00 00 	nop 
    3f6c:	01 00 00 00 	nop 

00003f70 <SW_trap_0xf7>:
    3f70:	91 d0 20 00 	ta  0
    3f74:	01 00 00 00 	nop 
    3f78:	01 00 00 00 	nop 
    3f7c:	01 00 00 00 	nop 

00003f80 <SW_trap_0xf8>:
    3f80:	91 d0 20 00 	ta  0
    3f84:	01 00 00 00 	nop 
    3f88:	01 00 00 00 	nop 
    3f8c:	01 00 00 00 	nop 

00003f90 <SW_trap_0xf9>:
    3f90:	91 d0 20 00 	ta  0
    3f94:	01 00 00 00 	nop 
    3f98:	01 00 00 00 	nop 
    3f9c:	01 00 00 00 	nop 

00003fa0 <SW_trap_0xfa>:
    3fa0:	91 d0 20 00 	ta  0
    3fa4:	01 00 00 00 	nop 
    3fa8:	01 00 00 00 	nop 
    3fac:	01 00 00 00 	nop 

00003fb0 <SW_trap_0xfb>:
    3fb0:	91 d0 20 00 	ta  0
    3fb4:	01 00 00 00 	nop 
    3fb8:	01 00 00 00 	nop 
    3fbc:	01 00 00 00 	nop 

00003fc0 <SW_trap_0xfc>:
    3fc0:	91 d0 20 00 	ta  0
    3fc4:	01 00 00 00 	nop 
    3fc8:	01 00 00 00 	nop 
    3fcc:	01 00 00 00 	nop 

00003fd0 <SW_trap_0xfd>:
    3fd0:	91 d0 20 00 	ta  0
    3fd4:	01 00 00 00 	nop 
    3fd8:	01 00 00 00 	nop 
    3fdc:	01 00 00 00 	nop 

00003fe0 <SW_trap_0xfe>:
    3fe0:	91 d0 20 00 	ta  0
    3fe4:	01 00 00 00 	nop 
    3fe8:	01 00 00 00 	nop 
    3fec:	01 00 00 00 	nop 
    3ff0:	01 00 00 00 	nop 
    3ff4:	01 00 00 00 	nop 
    3ff8:	00 00 49 c0 	unimp  0x49c0
    3ffc:	00 00 48 10 	unimp  0x4810
    4000:	00 00 48 10 	unimp  0x4810
    4004:	00 00 48 10 	unimp  0x4810
    4008:	00 00 48 10 	unimp  0x4810
    400c:	00 00 48 10 	unimp  0x4810
    4010:	00 00 48 10 	unimp  0x4810
    4014:	00 00 48 10 	unimp  0x4810
    4018:	00 00 48 10 	unimp  0x4810
    401c:	00 00 48 10 	unimp  0x4810
    4020:	00 00 48 10 	unimp  0x4810
    4024:	00 00 48 10 	unimp  0x4810
    4028:	00 00 48 10 	unimp  0x4810
    402c:	00 00 48 10 	unimp  0x4810
    4030:	00 00 48 10 	unimp  0x4810
    4034:	00 00 48 10 	unimp  0x4810
    4038:	00 00 48 10 	unimp  0x4810
    403c:	00 00 48 10 	unimp  0x4810
    4040:	00 00 48 10 	unimp  0x4810
    4044:	00 00 48 10 	unimp  0x4810
    4048:	00 00 48 10 	unimp  0x4810
    404c:	00 00 48 10 	unimp  0x4810
    4050:	00 00 48 10 	unimp  0x4810
    4054:	00 00 4e 6c 	unimp  0x4e6c
    4058:	00 00 48 10 	unimp  0x4810
    405c:	00 00 48 10 	unimp  0x4810
    4060:	00 00 48 10 	unimp  0x4810
    4064:	00 00 48 10 	unimp  0x4810
    4068:	00 00 48 10 	unimp  0x4810
    406c:	00 00 48 10 	unimp  0x4810
    4070:	00 00 48 10 	unimp  0x4810
    4074:	00 00 48 10 	unimp  0x4810
    4078:	00 00 49 c4 	unimp  0x49c4
    407c:	00 00 48 10 	unimp  0x4810
    4080:	00 00 56 c4 	unimp  0x56c4
    4084:	00 00 56 b8 	unimp  0x56b8
    4088:	00 00 48 10 	unimp  0x4810
    408c:	00 00 51 8c 	unimp  0x518c
    4090:	00 00 48 10 	unimp  0x4810
    4094:	00 00 48 10 	unimp  0x4810
    4098:	00 00 56 b8 	unimp  0x56b8
    409c:	00 00 48 10 	unimp  0x4810
    40a0:	00 00 48 10 	unimp  0x4810
    40a4:	00 00 48 10 	unimp  0x4810
    40a8:	00 00 48 10 	unimp  0x4810
    40ac:	00 00 48 10 	unimp  0x4810
    40b0:	00 00 51 84 	unimp  0x5184
    40b4:	00 00 51 50 	unimp  0x5150
    40b8:	00 00 48 10 	unimp  0x4810
    40bc:	00 00 48 10 	unimp  0x4810
    40c0:	00 00 4e 98 	unimp  0x4e98
    40c4:	00 00 48 10 	unimp  0x4810
    40c8:	00 00 56 b0 	unimp  0x56b0
    40cc:	00 00 48 10 	unimp  0x4810
    40d0:	00 00 48 10 	unimp  0x4810
    40d4:	00 00 56 a8 	unimp  0x56a8
    40d8:	00 00 49 08 	unimp  0x4908
    40dc:	00 00 47 70 	unimp  0x4770
    40e0:	00 00 47 70 	unimp  0x4770
    40e4:	00 00 48 fc 	unimp  0x48fc
    40e8:	00 00 47 70 	unimp  0x4770
    40ec:	00 00 47 70 	unimp  0x4770
    40f0:	00 00 47 70 	unimp  0x4770
    40f4:	00 00 47 70 	unimp  0x4770
    40f8:	00 00 47 70 	unimp  0x4770
    40fc:	00 00 47 70 	unimp  0x4770
    4100:	00 00 47 70 	unimp  0x4770
    4104:	00 00 48 f0 	unimp  0x48f0
    4108:	00 00 47 70 	unimp  0x4770
    410c:	00 00 48 e4 	unimp  0x48e4
    4110:	00 00 47 70 	unimp  0x4770
    4114:	00 00 47 70 	unimp  0x4770
    4118:	00 00 48 d8 	unimp  0x48d8

0000411c <number>:
    411c:	9d e3 bf 58 	save  %sp, -168, %sp
    4120:	80 8f 60 40 	btst  0x40, %i5
    4124:	02 80 01 28 	be  45c4 <number+0x4a8>
    4128:	1f 10 00 00 	sethi  %hi(0x40000000), %o7
    412c:	1f 10 00 00 	sethi  %hi(0x40000000), %o7
    4130:	9e 13 e0 28 	or  %o7, 0x28, %o7	! 40000028 <__sparc_get_pc_thunk.l7+0x3fff73d4>
    4134:	80 8f 60 10 	btst  0x10, %i5
    4138:	32 80 00 02 	bne,a   4140 <number+0x24>
    413c:	ba 0f 7f fe 	and  %i5, -2, %i5
    4140:	82 06 bf fe 	add  %i2, -2, %g1
    4144:	80 a0 60 22 	cmp  %g1, 0x22
    4148:	18 80 01 32 	bgu  4610 <number+0x4f4>
    414c:	82 0f 60 01 	and  %i5, 1, %g1
    4150:	80 a0 00 01 	cmp  %g0, %g1
    4154:	94 10 20 00 	clr  %o2
    4158:	9a 40 3f ff 	addx  %g0, -1, %o5
    415c:	80 8f 60 02 	btst  2, %i5
    4160:	9a 0b 60 f0 	and  %o5, 0xf0, %o5
    4164:	02 80 00 0c 	be  4194 <number+0x78>
    4168:	9a 03 60 30 	add  %o5, 0x30, %o5
    416c:	80 a6 60 00 	cmp  %i1, 0
    4170:	06 80 01 39 	bl  4654 <number+0x538>
    4174:	80 8f 60 04 	btst  4, %i5
    4178:	32 80 01 29 	bne,a   461c <number+0x500>
    417c:	b6 06 ff ff 	add  %i3, -1, %i3
    4180:	80 8f 60 08 	btst  8, %i5
    4184:	02 80 00 05 	be  4198 <number+0x7c>
    4188:	92 8f 60 20 	andcc  %i5, 0x20, %o1
    418c:	b6 06 ff ff 	add  %i3, -1, %i3
    4190:	94 10 20 20 	mov  0x20, %o2
    4194:	92 8f 60 20 	andcc  %i5, 0x20, %o1
    4198:	02 80 00 08 	be  41b8 <number+0x9c>
    419c:	80 a6 60 00 	cmp  %i1, 0
    41a0:	80 a6 a0 10 	cmp  %i2, 0x10
    41a4:	02 80 01 27 	be  4640 <number+0x524>
    41a8:	82 1e a0 08 	xor  %i2, 8, %g1
    41ac:	80 a0 00 01 	cmp  %g0, %g1
    41b0:	b6 46 ff ff 	addx  %i3, -1, %i3
    41b4:	80 a6 60 00 	cmp  %i1, 0
    41b8:	12 80 01 06 	bne  45d0 <number+0x4b4>
    41bc:	82 10 20 00 	clr  %g1
    41c0:	82 10 20 30 	mov  0x30, %g1
    41c4:	88 07 bf b8 	add  %fp, -72, %g4
    41c8:	c2 2f bf b8 	stb  %g1, [ %fp + -72 ]
    41cc:	82 10 20 01 	mov  1, %g1
    41d0:	80 a0 40 1c 	cmp  %g1, %i4
    41d4:	16 80 00 03 	bge  41e0 <number+0xc4>
    41d8:	98 10 00 01 	mov  %g1, %o4
    41dc:	98 10 00 1c 	mov  %i4, %o4
    41e0:	80 8f 60 11 	btst  0x11, %i5
    41e4:	12 80 00 39 	bne  42c8 <number+0x1ac>
    41e8:	b6 26 c0 0c 	sub  %i3, %o4, %i3
    41ec:	80 a6 e0 00 	cmp  %i3, 0
    41f0:	04 80 01 25 	ble  4684 <number+0x568>
    41f4:	9e 06 ff ff 	add  %i3, -1, %o7
    41f8:	84 20 00 18 	neg  %i0, %g2
    41fc:	a2 10 00 1b 	mov  %i3, %l1
    4200:	84 08 a0 03 	and  %g2, 3, %g2
    4204:	80 a6 c0 02 	cmp  %i3, %g2
    4208:	08 80 00 03 	bleu  4214 <number+0xf8>
    420c:	b8 10 00 1b 	mov  %i3, %i4
    4210:	b8 10 00 02 	mov  %g2, %i4
    4214:	80 a6 e0 03 	cmp  %i3, 3
    4218:	28 80 00 02 	bleu,a   4220 <number+0x104>
    421c:	b8 10 00 1b 	mov  %i3, %i4
    4220:	80 a7 20 00 	cmp  %i4, 0
    4224:	02 80 00 0c 	be  4254 <number+0x138>
    4228:	84 10 00 18 	mov  %i0, %g2
    422c:	96 10 20 20 	mov  0x20, %o3
    4230:	d6 28 80 00 	stb  %o3, [ %g2 ]
    4234:	84 00 a0 01 	inc  %g2
    4238:	86 20 80 18 	sub  %g2, %i0, %g3
    423c:	80 a7 00 03 	cmp  %i4, %g3
    4240:	18 bf ff fc 	bgu  4230 <number+0x114>
    4244:	9e 03 ff ff 	add  %o7, -1, %o7
    4248:	80 a6 c0 1c 	cmp  %i3, %i4
    424c:	22 80 00 1e 	be,a   42c4 <number+0x1a8>
    4250:	b6 10 3f ff 	mov  -1, %i3
    4254:	b6 26 c0 1c 	sub  %i3, %i4, %i3
    4258:	97 36 e0 02 	srl  %i3, 2, %o3
    425c:	a1 2a e0 02 	sll  %o3, 2, %l0
    4260:	80 a4 20 00 	cmp  %l0, 0
    4264:	02 80 00 0e 	be  429c <number+0x180>
    4268:	b8 06 00 1c 	add  %i0, %i4, %i4
    426c:	11 08 08 08 	sethi  %hi(0x20202000), %o0
    4270:	86 10 20 00 	clr  %g3
    4274:	90 12 20 20 	or  %o0, 0x20, %o0
    4278:	d0 27 00 00 	st  %o0, [ %i4 ]
    427c:	86 00 e0 01 	inc  %g3
    4280:	80 a0 c0 0b 	cmp  %g3, %o3
    4284:	0a bf ff fd 	bcs  4278 <number+0x15c>
    4288:	b8 07 20 04 	add  %i4, 4, %i4
    428c:	84 00 80 10 	add  %g2, %l0, %g2
    4290:	80 a6 c0 10 	cmp  %i3, %l0
    4294:	02 80 00 0b 	be  42c0 <number+0x1a4>
    4298:	9e 23 c0 10 	sub  %o7, %l0, %o7
    429c:	86 10 20 00 	clr  %g3
    42a0:	9e 03 e0 01 	inc  %o7
    42a4:	b6 10 20 20 	mov  0x20, %i3
    42a8:	f6 28 80 03 	stb  %i3, [ %g2 + %g3 ]
    42ac:	86 00 e0 01 	inc  %g3
    42b0:	b8 23 c0 03 	sub  %o7, %g3, %i4
    42b4:	80 a7 20 00 	cmp  %i4, 0
    42b8:	34 bf ff fd 	bg,a   42ac <number+0x190>
    42bc:	f6 28 80 03 	stb  %i3, [ %g2 + %g3 ]
    42c0:	b6 10 3f ff 	mov  -1, %i3
    42c4:	b0 06 00 11 	add  %i0, %l1, %i0
    42c8:	80 8a a0 ff 	btst  0xff, %o2
    42cc:	02 80 00 04 	be  42dc <number+0x1c0>
    42d0:	80 a2 60 00 	cmp  %o1, 0
    42d4:	d4 2e 00 00 	stb  %o2, [ %i0 ]
    42d8:	b0 06 20 01 	inc  %i0
    42dc:	02 80 00 08 	be  42fc <number+0x1e0>
    42e0:	80 8f 60 10 	btst  0x10, %i5
    42e4:	80 a6 a0 08 	cmp  %i2, 8
    42e8:	02 80 00 d2 	be  4630 <number+0x514>
    42ec:	80 a6 a0 10 	cmp  %i2, 0x10
    42f0:	22 80 00 e0 	be,a   4670 <number+0x554>
    42f4:	84 10 20 30 	mov  0x30, %g2
    42f8:	80 8f 60 10 	btst  0x10, %i5
    42fc:	12 80 00 3b 	bne  43e8 <number+0x2cc>
    4300:	80 a3 00 01 	cmp  %o4, %g1
    4304:	80 a6 e0 00 	cmp  %i3, 0
    4308:	04 80 00 e1 	ble  468c <number+0x570>
    430c:	b8 06 ff ff 	add  %i3, -1, %i4
    4310:	ba 20 00 18 	neg  %i0, %i5
    4314:	ba 0f 60 03 	and  %i5, 3, %i5
    4318:	80 a7 40 1b 	cmp  %i5, %i3
    431c:	38 80 00 02 	bgu,a   4324 <number+0x208>
    4320:	ba 10 00 1b 	mov  %i3, %i5
    4324:	80 a6 e0 03 	cmp  %i3, 3
    4328:	28 80 00 02 	bleu,a   4330 <number+0x214>
    432c:	ba 10 00 1b 	mov  %i3, %i5
    4330:	80 a7 60 00 	cmp  %i5, 0
    4334:	02 80 00 0b 	be  4360 <number+0x244>
    4338:	84 10 00 18 	mov  %i0, %g2
    433c:	da 28 80 00 	stb  %o5, [ %g2 ]
    4340:	84 00 a0 01 	inc  %g2
    4344:	86 20 80 18 	sub  %g2, %i0, %g3
    4348:	80 a7 40 03 	cmp  %i5, %g3
    434c:	18 bf ff fc 	bgu  433c <number+0x220>
    4350:	b8 07 3f ff 	add  %i4, -1, %i4
    4354:	80 a6 c0 1d 	cmp  %i3, %i5
    4358:	22 80 00 22 	be,a   43e0 <number+0x2c4>
    435c:	b0 06 00 1b 	add  %i0, %i3, %i0
    4360:	94 26 c0 1d 	sub  %i3, %i5, %o2
    4364:	b5 32 a0 02 	srl  %o2, 2, %i2
    4368:	97 2e a0 02 	sll  %i2, 2, %o3
    436c:	80 a2 e0 00 	cmp  %o3, 0
    4370:	02 80 00 13 	be  43bc <number+0x2a0>
    4374:	ba 06 00 1d 	add  %i0, %i5, %i5
    4378:	9e 0b 60 ff 	and  %o5, 0xff, %o7
    437c:	87 2b e0 10 	sll  %o7, 0x10, %g3
    4380:	91 2b e0 18 	sll  %o7, 0x18, %o0
    4384:	93 2b e0 08 	sll  %o7, 8, %o1
    4388:	90 12 00 03 	or  %o0, %g3, %o0
    438c:	92 12 00 09 	or  %o0, %o1, %o1
    4390:	86 10 20 00 	clr  %g3
    4394:	9e 12 40 0f 	or  %o1, %o7, %o7
    4398:	de 27 40 00 	st  %o7, [ %i5 ]
    439c:	86 00 e0 01 	inc  %g3
    43a0:	80 a0 c0 1a 	cmp  %g3, %i2
    43a4:	0a bf ff fd 	bcs  4398 <number+0x27c>
    43a8:	ba 07 60 04 	add  %i5, 4, %i5
    43ac:	84 00 80 0b 	add  %g2, %o3, %g2
    43b0:	80 a2 80 0b 	cmp  %o2, %o3
    43b4:	02 80 00 0a 	be  43dc <number+0x2c0>
    43b8:	b8 27 00 0b 	sub  %i4, %o3, %i4
    43bc:	86 10 20 00 	clr  %g3
    43c0:	b8 07 20 01 	inc  %i4
    43c4:	da 28 80 03 	stb  %o5, [ %g2 + %g3 ]
    43c8:	86 00 e0 01 	inc  %g3
    43cc:	ba 27 00 03 	sub  %i4, %g3, %i5
    43d0:	80 a7 60 00 	cmp  %i5, 0
    43d4:	34 bf ff fd 	bg,a   43c8 <number+0x2ac>
    43d8:	da 28 80 03 	stb  %o5, [ %g2 + %g3 ]
    43dc:	b0 06 00 1b 	add  %i0, %i3, %i0
    43e0:	b6 10 3f ff 	mov  -1, %i3
    43e4:	80 a3 00 01 	cmp  %o4, %g1
    43e8:	04 80 00 34 	ble  44b8 <number+0x39c>
    43ec:	b8 03 3f ff 	add  %o4, -1, %i4
    43f0:	9a 23 00 01 	sub  %o4, %g1, %o5
    43f4:	ba 20 00 18 	neg  %i0, %i5
    43f8:	ba 0f 60 03 	and  %i5, 3, %i5
    43fc:	80 a7 40 0d 	cmp  %i5, %o5
    4400:	38 80 00 02 	bgu,a   4408 <number+0x2ec>
    4404:	ba 10 00 0d 	mov  %o5, %i5
    4408:	80 a3 60 03 	cmp  %o5, 3
    440c:	28 80 00 02 	bleu,a   4414 <number+0x2f8>
    4410:	ba 10 00 0d 	mov  %o5, %i5
    4414:	80 a7 60 00 	cmp  %i5, 0
    4418:	02 80 00 0c 	be  4448 <number+0x32c>
    441c:	84 10 00 18 	mov  %i0, %g2
    4420:	b4 10 20 30 	mov  0x30, %i2
    4424:	f4 28 80 00 	stb  %i2, [ %g2 ]
    4428:	84 00 a0 01 	inc  %g2
    442c:	86 20 80 18 	sub  %g2, %i0, %g3
    4430:	80 a7 40 03 	cmp  %i5, %g3
    4434:	18 bf ff fc 	bgu  4424 <number+0x308>
    4438:	b8 07 3f ff 	add  %i4, -1, %i4
    443c:	80 a3 40 1d 	cmp  %o5, %i5
    4440:	22 80 00 1e 	be,a   44b8 <number+0x39c>
    4444:	b0 06 00 0d 	add  %i0, %o5, %i0
    4448:	96 23 40 1d 	sub  %o5, %i5, %o3
    444c:	b5 32 e0 02 	srl  %o3, 2, %i2
    4450:	99 2e a0 02 	sll  %i2, 2, %o4
    4454:	80 a3 20 00 	cmp  %o4, 0
    4458:	02 80 00 0e 	be  4490 <number+0x374>
    445c:	ba 06 00 1d 	add  %i0, %i5, %i5
    4460:	1f 0c 0c 0c 	sethi  %hi(0x30303000), %o7
    4464:	86 10 20 00 	clr  %g3
    4468:	9e 13 e0 30 	or  %o7, 0x30, %o7
    446c:	de 27 40 00 	st  %o7, [ %i5 ]
    4470:	86 00 e0 01 	inc  %g3
    4474:	80 a6 80 03 	cmp  %i2, %g3
    4478:	18 bf ff fd 	bgu  446c <number+0x350>
    447c:	ba 07 60 04 	add  %i5, 4, %i5
    4480:	84 00 80 0c 	add  %g2, %o4, %g2
    4484:	80 a2 c0 0c 	cmp  %o3, %o4
    4488:	02 80 00 0b 	be  44b4 <number+0x398>
    448c:	b8 27 00 0c 	sub  %i4, %o4, %i4
    4490:	86 10 20 00 	clr  %g3
    4494:	b8 07 20 01 	inc  %i4
    4498:	b4 10 20 30 	mov  0x30, %i2
    449c:	f4 28 80 03 	stb  %i2, [ %g2 + %g3 ]
    44a0:	86 00 e0 01 	inc  %g3
    44a4:	ba 27 00 03 	sub  %i4, %g3, %i5
    44a8:	80 a0 40 1d 	cmp  %g1, %i5
    44ac:	26 bf ff fd 	bl,a   44a0 <number+0x384>
    44b0:	f4 28 80 03 	stb  %i2, [ %g2 + %g3 ]
    44b4:	b0 06 00 0d 	add  %i0, %o5, %i0
    44b8:	82 10 00 19 	mov  %i1, %g1
    44bc:	84 10 00 18 	mov  %i0, %g2
    44c0:	c6 09 00 01 	ldub  [ %g4 + %g1 ], %g3
    44c4:	c6 28 80 00 	stb  %g3, [ %g2 ]
    44c8:	82 00 7f ff 	add  %g1, -1, %g1
    44cc:	86 00 60 01 	add  %g1, 1, %g3
    44d0:	80 a0 e0 00 	cmp  %g3, 0
    44d4:	14 bf ff fb 	bg  44c0 <number+0x3a4>
    44d8:	84 00 a0 01 	inc  %g2
    44dc:	82 38 00 19 	xnor  %g0, %i1, %g1
    44e0:	88 06 ff ff 	add  %i3, -1, %g4
    44e4:	83 38 60 1f 	sra  %g1, 0x1f, %g1
    44e8:	80 a6 e0 00 	cmp  %i3, 0
    44ec:	82 0e 40 01 	and  %i1, %g1, %g1
    44f0:	82 00 60 01 	inc  %g1
    44f4:	04 80 00 48 	ble  4614 <number+0x4f8>
    44f8:	b0 06 00 01 	add  %i0, %g1, %i0
    44fc:	86 20 00 18 	neg  %i0, %g3
    4500:	86 08 e0 03 	and  %g3, 3, %g3
    4504:	80 a0 c0 1b 	cmp  %g3, %i3
    4508:	38 80 00 02 	bgu,a   4510 <number+0x3f4>
    450c:	86 10 00 1b 	mov  %i3, %g3
    4510:	80 a6 e0 03 	cmp  %i3, 3
    4514:	28 80 00 02 	bleu,a   451c <number+0x400>
    4518:	86 10 00 1b 	mov  %i3, %g3
    451c:	80 a0 e0 00 	cmp  %g3, 0
    4520:	02 80 00 0c 	be  4550 <number+0x434>
    4524:	82 10 00 18 	mov  %i0, %g1
    4528:	ba 10 20 20 	mov  0x20, %i5
    452c:	fa 28 40 00 	stb  %i5, [ %g1 ]
    4530:	82 00 60 01 	inc  %g1
    4534:	84 20 40 18 	sub  %g1, %i0, %g2
    4538:	80 a0 c0 02 	cmp  %g3, %g2
    453c:	18 bf ff fc 	bgu  452c <number+0x410>
    4540:	88 01 3f ff 	add  %g4, -1, %g4
    4544:	80 a6 c0 03 	cmp  %i3, %g3
    4548:	02 80 00 1d 	be  45bc <number+0x4a0>
    454c:	01 00 00 00 	nop 
    4550:	b2 26 c0 03 	sub  %i3, %g3, %i1
    4554:	bb 36 60 02 	srl  %i1, 2, %i5
    4558:	b5 2f 60 02 	sll  %i5, 2, %i2
    455c:	80 a6 a0 00 	cmp  %i2, 0
    4560:	02 80 00 0e 	be  4598 <number+0x47c>
    4564:	86 06 00 03 	add  %i0, %g3, %g3
    4568:	39 08 08 08 	sethi  %hi(0x20202000), %i4
    456c:	84 10 20 00 	clr  %g2
    4570:	b8 17 20 20 	or  %i4, 0x20, %i4
    4574:	f8 20 c0 00 	st  %i4, [ %g3 ]
    4578:	84 00 a0 01 	inc  %g2
    457c:	80 a0 80 1d 	cmp  %g2, %i5
    4580:	0a bf ff fd 	bcs  4574 <number+0x458>
    4584:	86 00 e0 04 	add  %g3, 4, %g3
    4588:	82 00 40 1a 	add  %g1, %i2, %g1
    458c:	80 a6 40 1a 	cmp  %i1, %i2
    4590:	02 80 00 0b 	be  45bc <number+0x4a0>
    4594:	88 21 00 1a 	sub  %g4, %i2, %g4
    4598:	84 10 20 00 	clr  %g2
    459c:	88 01 20 01 	inc  %g4
    45a0:	ba 10 20 20 	mov  0x20, %i5
    45a4:	fa 28 40 02 	stb  %i5, [ %g1 + %g2 ]
    45a8:	84 00 a0 01 	inc  %g2
    45ac:	86 21 00 02 	sub  %g4, %g2, %g3
    45b0:	80 a0 e0 00 	cmp  %g3, 0
    45b4:	34 bf ff fd 	bg,a   45a8 <number+0x48c>
    45b8:	fa 28 40 02 	stb  %i5, [ %g1 + %g2 ]
    45bc:	81 c7 e0 08 	ret 
    45c0:	91 ee 00 1b 	restore  %i0, %i3, %o0
    45c4:	10 bf fe dc 	b  4134 <number+0x18>
    45c8:	9e 13 e0 00 	mov  %o7, %o7
    45cc:	82 10 20 00 	clr  %g1
    45d0:	88 07 bf b8 	add  %fp, -72, %g4
    45d4:	81 80 20 00 	mov  %g0, %y
    45d8:	01 00 00 00 	nop 
    45dc:	01 00 00 00 	nop 
    45e0:	01 00 00 00 	nop 
    45e4:	84 76 40 1a 	udiv  %i1, %i2, %g2
    45e8:	86 58 80 1a 	smul  %g2, %i2, %g3
    45ec:	b2 26 40 03 	sub  %i1, %g3, %i1
    45f0:	c6 0b c0 19 	ldub  [ %o7 + %i1 ], %g3
    45f4:	c6 29 00 01 	stb  %g3, [ %g4 + %g1 ]
    45f8:	b2 10 00 02 	mov  %g2, %i1
    45fc:	80 a0 a0 00 	cmp  %g2, 0
    4600:	12 bf ff f5 	bne  45d4 <number+0x4b8>
    4604:	82 00 60 01 	inc  %g1
    4608:	10 bf fe f2 	b  41d0 <number+0xb4>
    460c:	b2 00 7f ff 	add  %g1, -1, %i1
    4610:	b0 10 20 00 	clr  %i0
    4614:	81 c7 e0 08 	ret 
    4618:	81 e8 00 00 	restore 
    461c:	92 8f 60 20 	andcc  %i5, 0x20, %o1
    4620:	02 bf fe e5 	be  41b4 <number+0x98>
    4624:	94 10 20 2b 	mov  0x2b, %o2
    4628:	10 bf fe df 	b  41a4 <number+0x88>
    462c:	80 a6 a0 10 	cmp  %i2, 0x10
    4630:	84 10 20 30 	mov  0x30, %g2
    4634:	c4 2e 00 00 	stb  %g2, [ %i0 ]
    4638:	10 bf ff 30 	b  42f8 <number+0x1dc>
    463c:	b0 06 20 01 	inc  %i0
    4640:	80 a6 60 00 	cmp  %i1, 0
    4644:	12 bf ff e2 	bne  45cc <number+0x4b0>
    4648:	b6 06 ff fe 	add  %i3, -2, %i3
    464c:	10 bf fe de 	b  41c4 <number+0xa8>
    4650:	82 10 20 30 	mov  0x30, %g1
    4654:	b2 20 00 19 	neg  %i1
    4658:	b6 06 ff ff 	add  %i3, -1, %i3
    465c:	92 8f 60 20 	andcc  %i5, 0x20, %o1
    4660:	02 bf fe d5 	be  41b4 <number+0x98>
    4664:	94 10 20 2d 	mov  0x2d, %o2
    4668:	10 bf fe cf 	b  41a4 <number+0x88>
    466c:	80 a6 a0 10 	cmp  %i2, 0x10
    4670:	c4 2e 00 00 	stb  %g2, [ %i0 ]
    4674:	84 10 20 78 	mov  0x78, %g2
    4678:	c4 2e 20 01 	stb  %g2, [ %i0 + 1 ]
    467c:	10 bf ff 1f 	b  42f8 <number+0x1dc>
    4680:	b0 06 20 02 	add  %i0, 2, %i0
    4684:	10 bf ff 11 	b  42c8 <number+0x1ac>
    4688:	b6 10 00 0f 	mov  %o7, %i3
    468c:	10 bf ff 56 	b  43e4 <number+0x2c8>
    4690:	b6 10 00 1c 	mov  %i4, %i3

00004694 <uart_send_char>:
    4694:	9d e3 bf a0 	save  %sp, -96, %sp
    4698:	40 00 09 98 	call  6cf8 <__ajit_serial_putchar__>
    469c:	90 10 00 18 	mov  %i0, %o0
    46a0:	80 a2 20 00 	cmp  %o0, 0
    46a4:	02 bf ff fd 	be  4698 <uart_send_char+0x4>
    46a8:	05 3f ff cc 	sethi  %hi(0xffff3000), %g2
    46ac:	84 10 a2 00 	or  %g2, 0x200, %g2	! ffff3200 <_GLOBAL_OFFSET_TABLE_+0xbfff30f8>
    46b0:	c2 80 84 00 	lda  [ %g2 ] #ASI_SCRATCHPAD, %g1
    46b4:	82 08 60 09 	and  %g1, 9, %g1
    46b8:	80 a0 60 09 	cmp  %g1, 9
    46bc:	02 bf ff fd 	be  46b0 <uart_send_char+0x1c>
    46c0:	01 00 00 00 	nop 
    46c4:	81 c7 e0 08 	ret 
    46c8:	81 e8 00 00 	restore 

000046cc <ee_printf>:
    46cc:	9d e3 ba d8 	save  %sp, -1320, %sp
    46d0:	f6 27 a0 50 	st  %i3, [ %fp + 0x50 ]
    46d4:	fa 27 a0 58 	st  %i5, [ %fp + 0x58 ]
    46d8:	a4 07 a0 48 	add  %fp, 0x48, %l2
    46dc:	f2 27 a0 48 	st  %i1, [ %fp + 0x48 ]
    46e0:	f4 27 a0 4c 	st  %i2, [ %fp + 0x4c ]
    46e4:	f8 27 a0 54 	st  %i4, [ %fp + 0x54 ]
    46e8:	e4 27 bb 4c 	st  %l2, [ %fp + -1204 ]
    46ec:	c4 0e 00 00 	ldub  [ %i0 ], %g2
    46f0:	b6 07 bc 00 	add  %fp, -1024, %i3
    46f4:	83 28 a0 18 	sll  %g2, 0x18, %g1
    46f8:	80 a0 60 00 	cmp  %g1, 0
    46fc:	02 80 00 58 	be  485c <ee_printf+0x190>
    4700:	ba 10 00 1b 	mov  %i3, %i5
    4704:	23 08 08 08 	sethi  %hi(0x20202000), %l1
    4708:	21 3f c0 3f 	sethi  %hi(0xff00fc00), %l0
    470c:	33 3f ff c0 	sethi  %hi(0xffff0000), %i1
    4710:	35 0c 0c 0c 	sethi  %hi(0x30303000), %i2
    4714:	a2 14 60 20 	or  %l1, 0x20, %l1
    4718:	a0 14 23 ff 	or  %l0, 0x3ff, %l0
    471c:	b2 16 60 ff 	or  %i1, 0xff, %i1
    4720:	10 80 00 08 	b  4740 <ee_printf+0x74>
    4724:	b4 16 a0 30 	or  %i2, 0x30, %i2
    4728:	ba 07 60 01 	inc  %i5
    472c:	c4 0e 20 01 	ldub  [ %i0 + 1 ], %g2
    4730:	83 28 a0 18 	sll  %g2, 0x18, %g1
    4734:	80 a0 60 00 	cmp  %g1, 0
    4738:	02 80 00 49 	be  485c <ee_printf+0x190>
    473c:	b0 06 20 01 	inc  %i0
    4740:	83 38 60 18 	sra  %g1, 0x18, %g1
    4744:	80 a0 60 25 	cmp  %g1, 0x25
    4748:	32 bf ff f8 	bne,a   4728 <ee_printf+0x5c>
    474c:	c4 2f 40 00 	stb  %g2, [ %i5 ]
    4750:	9a 10 20 00 	clr  %o5
    4754:	39 00 00 10 	sethi  %hi(0x4000), %i4
    4758:	c2 0e 20 01 	ldub  [ %i0 + 1 ], %g1
    475c:	86 00 7f e0 	add  %g1, -32, %g3
    4760:	86 08 e0 ff 	and  %g3, 0xff, %g3
    4764:	80 a0 e0 10 	cmp  %g3, 0x10
    4768:	08 80 00 57 	bleu  48c4 <ee_printf+0x1f8>
    476c:	84 06 20 01 	add  %i0, 1, %g2
    4770:	86 00 7f d0 	add  %g1, -48, %g3
    4774:	86 08 e0 ff 	and  %g3, 0xff, %g3
    4778:	80 a0 e0 09 	cmp  %g3, 9
    477c:	18 80 00 66 	bgu  4914 <ee_printf+0x248>
    4780:	87 28 60 18 	sll  %g1, 0x18, %g3
    4784:	b8 10 20 00 	clr  %i4
    4788:	86 07 00 1c 	add  %i4, %i4, %g3
    478c:	83 28 60 18 	sll  %g1, 0x18, %g1
    4790:	83 38 60 18 	sra  %g1, 0x18, %g1
    4794:	b9 2f 20 03 	sll  %i4, 3, %i4
    4798:	84 00 a0 01 	inc  %g2
    479c:	b8 00 c0 1c 	add  %g3, %i4, %i4
    47a0:	b8 07 00 01 	add  %i4, %g1, %i4
    47a4:	c2 08 80 00 	ldub  [ %g2 ], %g1
    47a8:	86 00 7f d0 	add  %g1, -48, %g3
    47ac:	86 08 e0 ff 	and  %g3, 0xff, %g3
    47b0:	80 a0 e0 09 	cmp  %g3, 9
    47b4:	08 bf ff f5 	bleu  4788 <ee_printf+0xbc>
    47b8:	b8 07 3f d0 	add  %i4, -48, %i4
    47bc:	87 28 60 18 	sll  %g1, 0x18, %g3
    47c0:	b0 10 00 02 	mov  %g2, %i0
    47c4:	87 38 e0 18 	sra  %g3, 0x18, %g3
    47c8:	80 a0 e0 2e 	cmp  %g3, 0x2e
    47cc:	02 80 00 5b 	be  4938 <ee_printf+0x26c>
    47d0:	a6 10 3f ff 	mov  -1, %l3
    47d4:	84 08 7f df 	and  %g1, -33, %g2
    47d8:	85 28 a0 18 	sll  %g2, 0x18, %g2
    47dc:	85 38 a0 18 	sra  %g2, 0x18, %g2
    47e0:	80 a0 a0 4c 	cmp  %g2, 0x4c
    47e4:	12 80 00 06 	bne  47fc <ee_printf+0x130>
    47e8:	86 10 3f ff 	mov  -1, %g3
    47ec:	87 28 60 18 	sll  %g1, 0x18, %g3
    47f0:	c2 0e 20 01 	ldub  [ %i0 + 1 ], %g1
    47f4:	87 38 e0 18 	sra  %g3, 0x18, %g3
    47f8:	b0 06 20 01 	inc  %i0
    47fc:	84 00 7f bf 	add  %g1, -65, %g2
    4800:	84 08 a0 ff 	and  %g2, 0xff, %g2
    4804:	80 a0 a0 37 	cmp  %g2, 0x37
    4808:	08 80 00 62 	bleu  4990 <ee_printf+0x2c4>
    480c:	85 28 a0 02 	sll  %g2, 2, %g2
    4810:	85 28 60 18 	sll  %g1, 0x18, %g2
    4814:	85 38 a0 18 	sra  %g2, 0x18, %g2
    4818:	80 a0 a0 25 	cmp  %g2, 0x25
    481c:	22 80 00 0a 	be,a   4844 <ee_printf+0x178>
    4820:	c2 2f 40 00 	stb  %g1, [ %i5 ]
    4824:	82 10 20 25 	mov  0x25, %g1
    4828:	c2 2f 40 00 	stb  %g1, [ %i5 ]
    482c:	ba 07 60 01 	inc  %i5
    4830:	c4 4e 00 00 	ldsb  [ %i0 ], %g2
    4834:	80 a0 a0 00 	cmp  %g2, 0
    4838:	02 80 00 09 	be  485c <ee_printf+0x190>
    483c:	c2 0e 00 00 	ldub  [ %i0 ], %g1
    4840:	c2 2f 40 00 	stb  %g1, [ %i5 ]
    4844:	ba 07 60 01 	inc  %i5
    4848:	c4 0e 20 01 	ldub  [ %i0 + 1 ], %g2
    484c:	83 28 a0 18 	sll  %g2, 0x18, %g1
    4850:	80 a0 60 00 	cmp  %g1, 0
    4854:	12 bf ff bb 	bne  4740 <ee_printf+0x74>
    4858:	b0 06 20 01 	inc  %i0
    485c:	c0 2f 40 00 	clrb  [ %i5 ]
    4860:	fa 0f bc 00 	ldub  [ %fp + -1024 ], %i5
    4864:	bb 2f 60 18 	sll  %i5, 0x18, %i5
    4868:	80 a7 60 00 	cmp  %i5, 0
    486c:	02 80 00 14 	be  48bc <ee_printf+0x1f0>
    4870:	b0 10 20 00 	clr  %i0
    4874:	39 3f ff cc 	sethi  %hi(0xffff3000), %i4
    4878:	b8 17 22 00 	or  %i4, 0x200, %i4	! ffff3200 <_GLOBAL_OFFSET_TABLE_+0xbfff30f8>
    487c:	40 00 09 1f 	call  6cf8 <__ajit_serial_putchar__>
    4880:	91 3f 60 18 	sra  %i5, 0x18, %o0
    4884:	80 a2 20 00 	cmp  %o0, 0
    4888:	02 bf ff fd 	be  487c <ee_printf+0x1b0>
    488c:	01 00 00 00 	nop 
    4890:	c2 87 04 00 	lda  [ %i4 ] #ASI_SCRATCHPAD, %g1
    4894:	82 08 60 09 	and  %g1, 9, %g1
    4898:	80 a0 60 09 	cmp  %g1, 9
    489c:	02 bf ff fd 	be  4890 <ee_printf+0x1c4>
    48a0:	01 00 00 00 	nop 
    48a4:	b0 06 20 01 	inc  %i0
    48a8:	fa 0e c0 18 	ldub  [ %i3 + %i0 ], %i5
    48ac:	bb 2f 60 18 	sll  %i5, 0x18, %i5
    48b0:	80 a7 60 00 	cmp  %i5, 0
    48b4:	12 bf ff f2 	bne  487c <ee_printf+0x1b0>
    48b8:	01 00 00 00 	nop 
    48bc:	81 c7 e0 08 	ret 
    48c0:	81 e8 00 00 	restore 
    48c4:	88 17 20 d8 	or  %i4, 0xd8, %g4
    48c8:	87 28 e0 02 	sll  %g3, 2, %g3
    48cc:	c6 01 00 03 	ld  [ %g4 + %g3 ], %g3
    48d0:	81 c0 c0 00 	jmp  %g3
    48d4:	01 00 00 00 	nop 
    48d8:	9a 13 60 01 	or  %o5, 1, %o5
    48dc:	10 bf ff 9f 	b  4758 <ee_printf+0x8c>
    48e0:	b0 10 00 02 	mov  %g2, %i0
    48e4:	9a 13 60 10 	or  %o5, 0x10, %o5
    48e8:	10 bf ff 9c 	b  4758 <ee_printf+0x8c>
    48ec:	b0 10 00 02 	mov  %g2, %i0
    48f0:	9a 13 60 04 	or  %o5, 4, %o5
    48f4:	10 bf ff 99 	b  4758 <ee_printf+0x8c>
    48f8:	b0 10 00 02 	mov  %g2, %i0
    48fc:	9a 13 60 20 	or  %o5, 0x20, %o5
    4900:	10 bf ff 96 	b  4758 <ee_printf+0x8c>
    4904:	b0 10 00 02 	mov  %g2, %i0
    4908:	9a 13 60 08 	or  %o5, 8, %o5
    490c:	10 bf ff 93 	b  4758 <ee_printf+0x8c>
    4910:	b0 10 00 02 	mov  %g2, %i0
    4914:	89 38 e0 18 	sra  %g3, 0x18, %g4
    4918:	80 a1 20 2a 	cmp  %g4, 0x2a
    491c:	02 80 03 a3 	be  57a8 <ee_printf+0x10dc>
    4920:	87 38 e0 18 	sra  %g3, 0x18, %g3
    4924:	b0 10 00 02 	mov  %g2, %i0
    4928:	b8 10 3f ff 	mov  -1, %i4
    492c:	80 a0 e0 2e 	cmp  %g3, 0x2e
    4930:	12 bf ff a9 	bne  47d4 <ee_printf+0x108>
    4934:	a6 10 3f ff 	mov  -1, %l3
    4938:	c2 0e 20 01 	ldub  [ %i0 + 1 ], %g1
    493c:	86 00 7f d0 	add  %g1, -48, %g3
    4940:	86 08 e0 ff 	and  %g3, 0xff, %g3
    4944:	80 a0 e0 09 	cmp  %g3, 9
    4948:	18 80 00 17 	bgu  49a4 <ee_printf+0x2d8>
    494c:	84 06 20 01 	add  %i0, 1, %g2
    4950:	a6 10 20 00 	clr  %l3
    4954:	86 04 c0 13 	add  %l3, %l3, %g3
    4958:	83 28 60 18 	sll  %g1, 0x18, %g1
    495c:	83 38 60 18 	sra  %g1, 0x18, %g1
    4960:	a7 2c e0 03 	sll  %l3, 3, %l3
    4964:	84 00 a0 01 	inc  %g2
    4968:	a6 00 c0 13 	add  %g3, %l3, %l3
    496c:	a6 04 c0 01 	add  %l3, %g1, %l3
    4970:	c2 08 80 00 	ldub  [ %g2 ], %g1
    4974:	86 00 7f d0 	add  %g1, -48, %g3
    4978:	86 08 e0 ff 	and  %g3, 0xff, %g3
    497c:	80 a0 e0 09 	cmp  %g3, 9
    4980:	08 bf ff f5 	bleu  4954 <ee_printf+0x288>
    4984:	a6 04 ff d0 	add  %l3, -48, %l3
    4988:	10 bf ff 93 	b  47d4 <ee_printf+0x108>
    498c:	b0 10 00 02 	mov  %g2, %i0
    4990:	09 00 00 0f 	sethi  %hi(0x3c00), %g4
    4994:	88 11 23 f8 	or  %g4, 0x3f8, %g4	! 3ff8 <SW_trap_0xfe+0x18>
    4998:	c4 01 00 02 	ld  [ %g4 + %g2 ], %g2
    499c:	81 c0 80 00 	jmp  %g2
    49a0:	01 00 00 00 	nop 
    49a4:	87 28 60 18 	sll  %g1, 0x18, %g3
    49a8:	87 38 e0 18 	sra  %g3, 0x18, %g3
    49ac:	80 a0 e0 2a 	cmp  %g3, 0x2a
    49b0:	02 80 04 a8 	be  5c50 <ee_printf+0x1584>
    49b4:	a6 10 20 00 	clr  %l3
    49b8:	10 bf ff 87 	b  47d4 <ee_printf+0x108>
    49bc:	b0 10 00 02 	mov  %g2, %i0
    49c0:	9a 13 60 40 	or  %o5, 0x40, %o5
    49c4:	80 a0 e0 6c 	cmp  %g3, 0x6c
    49c8:	02 80 03 e1 	be  594c <ee_printf+0x1280>
    49cc:	c4 04 80 00 	ld  [ %l2 ], %g2
    49d0:	c6 08 80 00 	ldub  [ %g2 ], %g3
    49d4:	80 a0 e0 00 	cmp  %g3, 0
    49d8:	02 80 03 7d 	be  57cc <ee_printf+0x1100>
    49dc:	a4 04 a0 04 	add  %l2, 4, %l2
    49e0:	80 a0 e0 63 	cmp  %g3, 0x63
    49e4:	04 80 04 b3 	ble  5cb0 <ee_printf+0x15e4>
    49e8:	80 a0 e0 09 	cmp  %g3, 9
    49ec:	97 38 e0 1f 	sra  %g3, 0x1f, %o3
    49f0:	81 82 e0 00 	mov  %o3, %y
    49f4:	01 00 00 00 	nop 
    49f8:	01 00 00 00 	nop 
    49fc:	01 00 00 00 	nop 
    4a00:	88 78 e0 64 	sdiv  %g3, 0x64, %g4
    4a04:	9e 59 20 64 	smul  %g4, 0x64, %o7
    4a08:	03 10 00 00 	sethi  %hi(0x40000000), %g1
    4a0c:	86 20 c0 0f 	sub  %g3, %o7, %g3
    4a10:	82 10 60 00 	mov  %g1, %g1
    4a14:	de 08 40 04 	ldub  [ %g1 + %g4 ], %o7
    4a18:	99 38 e0 1f 	sra  %g3, 0x1f, %o4
    4a1c:	81 83 20 00 	mov  %o4, %y
    4a20:	01 00 00 00 	nop 
    4a24:	01 00 00 00 	nop 
    4a28:	01 00 00 00 	nop 
    4a2c:	88 78 e0 0a 	sdiv  %g3, 0xa, %g4
    4a30:	de 2f bb b0 	stb  %o7, [ %fp + -1104 ]
    4a34:	d8 08 40 04 	ldub  [ %g1 + %g4 ], %o4
    4a38:	9e 01 00 04 	add  %g4, %g4, %o7
    4a3c:	89 29 20 03 	sll  %g4, 3, %g4
    4a40:	9e 03 c0 04 	add  %o7, %g4, %o7
    4a44:	d8 2f bb b1 	stb  %o4, [ %fp + -1103 ]
    4a48:	86 20 c0 0f 	sub  %g3, %o7, %g3
    4a4c:	88 10 20 04 	mov  4, %g4
    4a50:	9e 10 20 03 	mov  3, %o7
    4a54:	98 10 20 02 	mov  2, %o4
    4a58:	c2 08 40 03 	ldub  [ %g1 + %g3 ], %g1
    4a5c:	98 07 80 0c 	add  %fp, %o4, %o4
    4a60:	c2 2b 3b b0 	stb  %g1, [ %o4 + -1104 ]
    4a64:	98 07 80 0f 	add  %fp, %o7, %o4
    4a68:	82 10 20 2e 	mov  0x2e, %g1
    4a6c:	c2 2b 3b b0 	stb  %g1, [ %o4 + -1104 ]
    4a70:	c6 08 a0 01 	ldub  [ %g2 + 1 ], %g3
    4a74:	80 a0 e0 00 	cmp  %g3, 0
    4a78:	02 80 03 60 	be  57f8 <ee_printf+0x112c>
    4a7c:	82 07 80 04 	add  %fp, %g4, %g1
    4a80:	80 a0 e0 63 	cmp  %g3, 0x63
    4a84:	04 80 04 81 	ble  5c88 <ee_printf+0x15bc>
    4a88:	80 a0 e0 09 	cmp  %g3, 9
    4a8c:	83 38 e0 1f 	sra  %g3, 0x1f, %g1
    4a90:	81 80 60 00 	mov  %g1, %y
    4a94:	01 00 00 00 	nop 
    4a98:	01 00 00 00 	nop 
    4a9c:	01 00 00 00 	nop 
    4aa0:	96 78 e0 64 	sdiv  %g3, 0x64, %o3
    4aa4:	88 07 80 04 	add  %fp, %g4, %g4
    4aa8:	03 10 00 00 	sethi  %hi(0x40000000), %g1
    4aac:	82 10 60 00 	mov  %g1, %g1	! 40000000 <__sparc_get_pc_thunk.l7+0x3fff73ac>
    4ab0:	d4 08 40 0b 	ldub  [ %g1 + %o3 ], %o2
    4ab4:	96 5a e0 64 	smul  %o3, 0x64, %o3
    4ab8:	d4 29 3b b0 	stb  %o2, [ %g4 + -1104 ]
    4abc:	86 20 c0 0b 	sub  %g3, %o3, %g3
    4ac0:	88 03 e0 03 	add  %o7, 3, %g4
    4ac4:	97 38 e0 1f 	sra  %g3, 0x1f, %o3
    4ac8:	81 82 e0 00 	mov  %o3, %y
    4acc:	01 00 00 00 	nop 
    4ad0:	01 00 00 00 	nop 
    4ad4:	01 00 00 00 	nop 
    4ad8:	9e 78 e0 0a 	sdiv  %g3, 0xa, %o7
    4adc:	d4 08 40 0f 	ldub  [ %g1 + %o7 ], %o2
    4ae0:	96 03 c0 0f 	add  %o7, %o7, %o3
    4ae4:	d4 2b 3b b2 	stb  %o2, [ %o4 + -1102 ]
    4ae8:	9f 2b e0 03 	sll  %o7, 3, %o7
    4aec:	9e 02 c0 0f 	add  %o3, %o7, %o7
    4af0:	86 20 c0 0f 	sub  %g3, %o7, %g3
    4af4:	9e 07 80 04 	add  %fp, %g4, %o7
    4af8:	c2 08 40 03 	ldub  [ %g1 + %g3 ], %g1
    4afc:	c2 2b fb b0 	stb  %g1, [ %o7 + -1104 ]
    4b00:	88 01 20 01 	inc  %g4
    4b04:	82 10 20 2e 	mov  0x2e, %g1
    4b08:	98 07 80 04 	add  %fp, %g4, %o4
    4b0c:	c2 2b 3b b0 	stb  %g1, [ %o4 + -1104 ]
    4b10:	c6 08 a0 02 	ldub  [ %g2 + 2 ], %g3
    4b14:	80 a0 e0 00 	cmp  %g3, 0
    4b18:	02 80 03 42 	be  5820 <ee_printf+0x1154>
    4b1c:	9e 01 20 01 	add  %g4, 1, %o7
    4b20:	80 a0 e0 63 	cmp  %g3, 0x63
    4b24:	04 80 04 54 	ble  5c74 <ee_printf+0x15a8>
    4b28:	80 a0 e0 09 	cmp  %g3, 9
    4b2c:	83 38 e0 1f 	sra  %g3, 0x1f, %g1
    4b30:	81 80 60 00 	mov  %g1, %y
    4b34:	01 00 00 00 	nop 
    4b38:	01 00 00 00 	nop 
    4b3c:	01 00 00 00 	nop 
    4b40:	96 78 e0 64 	sdiv  %g3, 0x64, %o3
    4b44:	9e 07 80 0f 	add  %fp, %o7, %o7
    4b48:	03 10 00 00 	sethi  %hi(0x40000000), %g1
    4b4c:	82 10 60 00 	mov  %g1, %g1	! 40000000 <__sparc_get_pc_thunk.l7+0x3fff73ac>
    4b50:	d4 08 40 0b 	ldub  [ %g1 + %o3 ], %o2
    4b54:	96 5a e0 64 	smul  %o3, 0x64, %o3
    4b58:	d4 2b fb b0 	stb  %o2, [ %o7 + -1104 ]
    4b5c:	86 20 c0 0b 	sub  %g3, %o3, %g3
    4b60:	9e 01 20 03 	add  %g4, 3, %o7
    4b64:	97 38 e0 1f 	sra  %g3, 0x1f, %o3
    4b68:	81 82 e0 00 	mov  %o3, %y
    4b6c:	01 00 00 00 	nop 
    4b70:	01 00 00 00 	nop 
    4b74:	01 00 00 00 	nop 
    4b78:	88 78 e0 0a 	sdiv  %g3, 0xa, %g4
    4b7c:	d4 08 40 04 	ldub  [ %g1 + %g4 ], %o2
    4b80:	96 01 00 04 	add  %g4, %g4, %o3
    4b84:	d4 2b 3b b2 	stb  %o2, [ %o4 + -1102 ]
    4b88:	89 29 20 03 	sll  %g4, 3, %g4
    4b8c:	88 02 c0 04 	add  %o3, %g4, %g4
    4b90:	86 20 c0 04 	sub  %g3, %g4, %g3
    4b94:	c2 08 40 03 	ldub  [ %g1 + %g3 ], %g1
    4b98:	88 07 80 0f 	add  %fp, %o7, %g4
    4b9c:	c2 29 3b b0 	stb  %g1, [ %g4 + -1104 ]
    4ba0:	86 03 e0 01 	add  %o7, 1, %g3
    4ba4:	82 10 20 2e 	mov  0x2e, %g1
    4ba8:	88 07 80 03 	add  %fp, %g3, %g4
    4bac:	c2 29 3b b0 	stb  %g1, [ %g4 + -1104 ]
    4bb0:	c4 08 a0 03 	ldub  [ %g2 + 3 ], %g2
    4bb4:	80 a0 a0 00 	cmp  %g2, 0
    4bb8:	02 80 03 25 	be  584c <ee_printf+0x1180>
    4bbc:	98 00 e0 01 	add  %g3, 1, %o4
    4bc0:	80 a0 a0 63 	cmp  %g2, 0x63
    4bc4:	04 80 04 36 	ble  5c9c <ee_printf+0x15d0>
    4bc8:	80 a0 a0 09 	cmp  %g2, 9
    4bcc:	83 38 a0 1f 	sra  %g2, 0x1f, %g1
    4bd0:	81 80 60 00 	mov  %g1, %y
    4bd4:	01 00 00 00 	nop 
    4bd8:	01 00 00 00 	nop 
    4bdc:	01 00 00 00 	nop 
    4be0:	9e 78 a0 64 	sdiv  %g2, 0x64, %o7
    4be4:	98 07 80 0c 	add  %fp, %o4, %o4
    4be8:	03 10 00 00 	sethi  %hi(0x40000000), %g1
    4bec:	82 10 60 00 	mov  %g1, %g1	! 40000000 <__sparc_get_pc_thunk.l7+0x3fff73ac>
    4bf0:	d6 08 40 0f 	ldub  [ %g1 + %o7 ], %o3
    4bf4:	9e 5b e0 64 	smul  %o7, 0x64, %o7
    4bf8:	d6 2b 3b b0 	stb  %o3, [ %o4 + -1104 ]
    4bfc:	84 20 80 0f 	sub  %g2, %o7, %g2
    4c00:	98 00 e0 03 	add  %g3, 3, %o4
    4c04:	97 38 a0 1f 	sra  %g2, 0x1f, %o3
    4c08:	81 82 e0 00 	mov  %o3, %y
    4c0c:	01 00 00 00 	nop 
    4c10:	01 00 00 00 	nop 
    4c14:	01 00 00 00 	nop 
    4c18:	86 78 a0 0a 	sdiv  %g2, 0xa, %g3
    4c1c:	d6 08 40 03 	ldub  [ %g1 + %g3 ], %o3
    4c20:	9e 00 c0 03 	add  %g3, %g3, %o7
    4c24:	d6 29 3b b2 	stb  %o3, [ %g4 + -1102 ]
    4c28:	87 28 e0 03 	sll  %g3, 3, %g3
    4c2c:	86 03 c0 03 	add  %o7, %g3, %g3
    4c30:	84 20 80 03 	sub  %g2, %g3, %g2
    4c34:	86 07 80 0c 	add  %fp, %o4, %g3
    4c38:	c2 08 40 02 	ldub  [ %g1 + %g2 ], %g1
    4c3c:	98 03 20 01 	inc  %o4
    4c40:	c2 28 fb b0 	stb  %g1, [ %g3 + -1104 ]
    4c44:	80 8b 60 10 	btst  0x10, %o5
    4c48:	12 80 00 38 	bne  4d28 <ee_printf+0x65c>
    4c4c:	96 93 20 00 	orcc  %o4, 0, %o3
    4c50:	80 a7 00 0c 	cmp  %i4, %o4
    4c54:	04 80 04 e6 	ble  5fec <ee_printf+0x1920>
    4c58:	88 07 3f ff 	add  %i4, -1, %g4
    4c5c:	b8 27 00 0c 	sub  %i4, %o4, %i4
    4c60:	82 20 00 1d 	neg  %i5, %g1
    4c64:	82 08 60 03 	and  %g1, 3, %g1
    4c68:	80 a7 00 01 	cmp  %i4, %g1
    4c6c:	08 80 00 03 	bleu  4c78 <ee_printf+0x5ac>
    4c70:	86 10 00 1c 	mov  %i4, %g3
    4c74:	86 10 00 01 	mov  %g1, %g3
    4c78:	80 a7 20 03 	cmp  %i4, 3
    4c7c:	28 80 00 02 	bleu,a   4c84 <ee_printf+0x5b8>
    4c80:	86 10 00 1c 	mov  %i4, %g3
    4c84:	80 a0 e0 00 	cmp  %g3, 0
    4c88:	02 80 00 0c 	be  4cb8 <ee_printf+0x5ec>
    4c8c:	82 10 00 1d 	mov  %i5, %g1
    4c90:	9e 10 20 20 	mov  0x20, %o7
    4c94:	de 28 40 00 	stb  %o7, [ %g1 ]
    4c98:	82 00 60 01 	inc  %g1
    4c9c:	84 20 40 1d 	sub  %g1, %i5, %g2
    4ca0:	80 a0 c0 02 	cmp  %g3, %g2
    4ca4:	18 bf ff fc 	bgu  4c94 <ee_printf+0x5c8>
    4ca8:	88 01 3f ff 	add  %g4, -1, %g4
    4cac:	80 a7 00 03 	cmp  %i4, %g3
    4cb0:	22 80 00 1c 	be,a   4d20 <ee_printf+0x654>
    4cb4:	ba 07 40 1c 	add  %i5, %i4, %i5
    4cb8:	96 27 00 03 	sub  %i4, %g3, %o3
    4cbc:	9f 32 e0 02 	srl  %o3, 2, %o7
    4cc0:	9b 2b e0 02 	sll  %o7, 2, %o5
    4cc4:	80 a3 60 00 	cmp  %o5, 0
    4cc8:	02 80 00 0c 	be  4cf8 <ee_printf+0x62c>
    4ccc:	86 07 40 03 	add  %i5, %g3, %g3
    4cd0:	84 10 20 00 	clr  %g2
    4cd4:	e2 20 c0 00 	st  %l1, [ %g3 ]
    4cd8:	84 00 a0 01 	inc  %g2
    4cdc:	80 a0 80 0f 	cmp  %g2, %o7
    4ce0:	0a bf ff fd 	bcs  4cd4 <ee_printf+0x608>
    4ce4:	86 00 e0 04 	add  %g3, 4, %g3
    4ce8:	82 00 40 0d 	add  %g1, %o5, %g1
    4cec:	80 a2 c0 0d 	cmp  %o3, %o5
    4cf0:	02 80 00 0b 	be  4d1c <ee_printf+0x650>
    4cf4:	88 21 00 0d 	sub  %g4, %o5, %g4
    4cf8:	84 10 20 00 	clr  %g2
    4cfc:	88 01 20 01 	inc  %g4
    4d00:	9e 10 20 20 	mov  0x20, %o7
    4d04:	de 28 40 02 	stb  %o7, [ %g1 + %g2 ]
    4d08:	84 00 a0 01 	inc  %g2
    4d0c:	86 21 00 02 	sub  %g4, %g2, %g3
    4d10:	80 a0 c0 0c 	cmp  %g3, %o4
    4d14:	34 bf ff fd 	bg,a   4d08 <ee_printf+0x63c>
    4d18:	de 28 40 02 	stb  %o7, [ %g1 + %g2 ]
    4d1c:	ba 07 40 1c 	add  %i5, %i4, %i5
    4d20:	b8 03 3f ff 	add  %o4, -1, %i4
    4d24:	96 93 20 00 	orcc  %o4, 0, %o3
    4d28:	24 80 00 02 	ble,a   4d30 <ee_printf+0x664>
    4d2c:	96 10 20 01 	mov  1, %o3
    4d30:	9b 32 e0 02 	srl  %o3, 2, %o5
    4d34:	80 8f 60 03 	btst  3, %i5
    4d38:	12 80 04 d2 	bne  6080 <ee_printf+0x19b4>
    4d3c:	83 2b 60 02 	sll  %o5, 2, %g1
    4d40:	80 a0 60 00 	cmp  %g1, 0
    4d44:	02 80 04 cf 	be  6080 <ee_printf+0x19b4>
    4d48:	84 10 20 00 	clr  %g2
    4d4c:	86 10 20 00 	clr  %g3
    4d50:	88 07 bb b0 	add  %fp, -1104, %g4
    4d54:	de 01 00 02 	ld  [ %g4 + %g2 ], %o7
    4d58:	de 27 40 02 	st  %o7, [ %i5 + %g2 ]
    4d5c:	86 00 e0 01 	inc  %g3
    4d60:	80 a3 40 03 	cmp  %o5, %g3
    4d64:	18 bf ff fc 	bgu  4d54 <ee_printf+0x688>
    4d68:	84 00 a0 04 	add  %g2, 4, %g2
    4d6c:	80 a2 c0 01 	cmp  %o3, %g1
    4d70:	02 80 00 09 	be  4d94 <ee_printf+0x6c8>
    4d74:	86 07 40 01 	add  %i5, %g1, %g3
    4d78:	86 20 c0 01 	sub  %g3, %g1, %g3
    4d7c:	c4 09 00 01 	ldub  [ %g4 + %g1 ], %g2
    4d80:	c4 28 c0 01 	stb  %g2, [ %g3 + %g1 ]
    4d84:	82 00 60 01 	inc  %g1
    4d88:	80 a3 00 01 	cmp  %o4, %g1
    4d8c:	34 bf ff fd 	bg,a   4d80 <ee_printf+0x6b4>
    4d90:	c4 09 00 01 	ldub  [ %g4 + %g1 ], %g2
    4d94:	ba 07 40 0b 	add  %i5, %o3, %i5
    4d98:	80 a7 00 0c 	cmp  %i4, %o4
    4d9c:	04 80 00 32 	ble  4e64 <ee_printf+0x798>
    4da0:	88 07 3f ff 	add  %i4, -1, %g4
    4da4:	b8 27 00 0c 	sub  %i4, %o4, %i4
    4da8:	86 20 00 1d 	neg  %i5, %g3
    4dac:	86 08 e0 03 	and  %g3, 3, %g3
    4db0:	80 a0 c0 1c 	cmp  %g3, %i4
    4db4:	38 80 00 02 	bgu,a   4dbc <ee_printf+0x6f0>
    4db8:	86 10 00 1c 	mov  %i4, %g3
    4dbc:	80 a7 20 03 	cmp  %i4, 3
    4dc0:	28 80 00 02 	bleu,a   4dc8 <ee_printf+0x6fc>
    4dc4:	86 10 00 1c 	mov  %i4, %g3
    4dc8:	80 a0 e0 00 	cmp  %g3, 0
    4dcc:	02 80 00 0c 	be  4dfc <ee_printf+0x730>
    4dd0:	82 10 00 1d 	mov  %i5, %g1
    4dd4:	9e 10 20 20 	mov  0x20, %o7
    4dd8:	de 28 40 00 	stb  %o7, [ %g1 ]
    4ddc:	82 00 60 01 	inc  %g1
    4de0:	84 20 40 1d 	sub  %g1, %i5, %g2
    4de4:	80 a0 c0 02 	cmp  %g3, %g2
    4de8:	18 bf ff fc 	bgu  4dd8 <ee_printf+0x70c>
    4dec:	88 01 3f ff 	add  %g4, -1, %g4
    4df0:	80 a7 00 03 	cmp  %i4, %g3
    4df4:	22 80 00 1c 	be,a   4e64 <ee_printf+0x798>
    4df8:	ba 07 40 1c 	add  %i5, %i4, %i5
    4dfc:	96 27 00 03 	sub  %i4, %g3, %o3
    4e00:	9f 32 e0 02 	srl  %o3, 2, %o7
    4e04:	9b 2b e0 02 	sll  %o7, 2, %o5
    4e08:	80 a3 60 00 	cmp  %o5, 0
    4e0c:	02 80 00 0c 	be  4e3c <ee_printf+0x770>
    4e10:	86 07 40 03 	add  %i5, %g3, %g3
    4e14:	84 10 20 00 	clr  %g2
    4e18:	e2 20 c0 00 	st  %l1, [ %g3 ]
    4e1c:	84 00 a0 01 	inc  %g2
    4e20:	80 a0 80 0f 	cmp  %g2, %o7
    4e24:	0a bf ff fd 	bcs  4e18 <ee_printf+0x74c>
    4e28:	86 00 e0 04 	add  %g3, 4, %g3
    4e2c:	82 00 40 0d 	add  %g1, %o5, %g1
    4e30:	80 a2 c0 0d 	cmp  %o3, %o5
    4e34:	02 80 00 0b 	be  4e60 <ee_printf+0x794>
    4e38:	88 21 00 0d 	sub  %g4, %o5, %g4
    4e3c:	84 10 20 00 	clr  %g2
    4e40:	88 01 20 01 	inc  %g4
    4e44:	9e 10 20 20 	mov  0x20, %o7
    4e48:	de 28 40 02 	stb  %o7, [ %g1 + %g2 ]
    4e4c:	84 00 a0 01 	inc  %g2
    4e50:	86 21 00 02 	sub  %g4, %g2, %g3
    4e54:	80 a3 00 03 	cmp  %o4, %g3
    4e58:	26 bf ff fd 	bl,a   4e4c <ee_printf+0x780>
    4e5c:	de 28 40 02 	stb  %o7, [ %g1 + %g2 ]
    4e60:	ba 07 40 1c 	add  %i5, %i4, %i5
    4e64:	10 bf fe 33 	b  4730 <ee_printf+0x64>
    4e68:	c4 0e 20 01 	ldub  [ %i0 + 1 ], %g2
    4e6c:	9a 13 60 40 	or  %o5, 0x40, %o5
    4e70:	94 10 20 10 	mov  0x10, %o2
    4e74:	d2 04 80 00 	ld  [ %l2 ], %o1
    4e78:	90 10 00 1d 	mov  %i5, %o0
    4e7c:	96 10 00 1c 	mov  %i4, %o3
    4e80:	7f ff fc a7 	call  411c <number>
    4e84:	98 10 00 13 	mov  %l3, %o4
    4e88:	a4 04 a0 04 	add  %l2, 4, %l2
    4e8c:	ba 10 00 08 	mov  %o0, %i5
    4e90:	10 bf fe 28 	b  4730 <ee_printf+0x64>
    4e94:	c4 0e 20 01 	ldub  [ %i0 + 1 ], %g2
    4e98:	c8 04 80 00 	ld  [ %l2 ], %g4
    4e9c:	80 a1 20 00 	cmp  %g4, 0
    4ea0:	02 80 04 50 	be  5fe0 <ee_printf+0x1914>
    4ea4:	a4 04 a0 04 	add  %l2, 4, %l2
    4ea8:	c2 49 00 00 	ldsb  [ %g4 ], %g1
    4eac:	80 a0 60 00 	cmp  %g1, 0
    4eb0:	02 80 04 51 	be  5ff4 <ee_printf+0x1928>
    4eb4:	80 a4 e0 00 	cmp  %l3, 0
    4eb8:	22 80 00 0c 	be,a   4ee8 <ee_printf+0x81c>
    4ebc:	86 10 20 00 	clr  %g3
    4ec0:	10 80 00 04 	b  4ed0 <ee_printf+0x804>
    4ec4:	86 10 00 04 	mov  %g4, %g3
    4ec8:	22 80 00 08 	be,a   4ee8 <ee_printf+0x81c>
    4ecc:	86 20 c0 04 	sub  %g3, %g4, %g3
    4ed0:	86 00 e0 01 	inc  %g3
    4ed4:	c2 48 c0 00 	ldsb  [ %g3 ], %g1
    4ed8:	80 a0 60 00 	cmp  %g1, 0
    4edc:	32 bf ff fb 	bne,a   4ec8 <ee_printf+0x7fc>
    4ee0:	a6 84 ff ff 	addcc  %l3, -1, %l3
    4ee4:	86 20 c0 04 	sub  %g3, %g4, %g3
    4ee8:	80 8b 60 10 	btst  0x10, %o5
    4eec:	12 80 00 38 	bne  4fcc <ee_printf+0x900>
    4ef0:	80 a0 e0 00 	cmp  %g3, 0
    4ef4:	80 a7 00 03 	cmp  %i4, %g3
    4ef8:	04 80 04 43 	ble  6004 <ee_printf+0x1938>
    4efc:	9a 07 3f ff 	add  %i4, -1, %o5
    4f00:	b8 27 00 03 	sub  %i4, %g3, %i4
    4f04:	82 20 00 1d 	neg  %i5, %g1
    4f08:	82 08 60 03 	and  %g1, 3, %g1
    4f0c:	80 a7 00 01 	cmp  %i4, %g1
    4f10:	08 80 00 03 	bleu  4f1c <ee_printf+0x850>
    4f14:	9e 10 00 1c 	mov  %i4, %o7
    4f18:	9e 10 00 01 	mov  %g1, %o7
    4f1c:	80 a7 20 03 	cmp  %i4, 3
    4f20:	28 80 00 02 	bleu,a   4f28 <ee_printf+0x85c>
    4f24:	9e 10 00 1c 	mov  %i4, %o7
    4f28:	80 a3 e0 00 	cmp  %o7, 0
    4f2c:	02 80 00 0c 	be  4f5c <ee_printf+0x890>
    4f30:	82 10 00 1d 	mov  %i5, %g1
    4f34:	98 10 20 20 	mov  0x20, %o4
    4f38:	d8 28 40 00 	stb  %o4, [ %g1 ]
    4f3c:	82 00 60 01 	inc  %g1
    4f40:	84 20 40 1d 	sub  %g1, %i5, %g2
    4f44:	80 a3 c0 02 	cmp  %o7, %g2
    4f48:	18 bf ff fc 	bgu  4f38 <ee_printf+0x86c>
    4f4c:	9a 03 7f ff 	add  %o5, -1, %o5
    4f50:	80 a7 00 0f 	cmp  %i4, %o7
    4f54:	22 80 00 1c 	be,a   4fc4 <ee_printf+0x8f8>
    4f58:	ba 07 40 1c 	add  %i5, %i4, %i5
    4f5c:	94 27 00 0f 	sub  %i4, %o7, %o2
    4f60:	99 32 a0 02 	srl  %o2, 2, %o4
    4f64:	97 2b 20 02 	sll  %o4, 2, %o3
    4f68:	80 a2 e0 00 	cmp  %o3, 0
    4f6c:	02 80 00 0c 	be  4f9c <ee_printf+0x8d0>
    4f70:	9e 07 40 0f 	add  %i5, %o7, %o7
    4f74:	84 10 20 00 	clr  %g2
    4f78:	e2 23 c0 00 	st  %l1, [ %o7 ]
    4f7c:	84 00 a0 01 	inc  %g2
    4f80:	80 a0 80 0c 	cmp  %g2, %o4
    4f84:	0a bf ff fd 	bcs  4f78 <ee_printf+0x8ac>
    4f88:	9e 03 e0 04 	add  %o7, 4, %o7
    4f8c:	82 00 40 0b 	add  %g1, %o3, %g1
    4f90:	80 a2 80 0b 	cmp  %o2, %o3
    4f94:	02 80 00 0b 	be  4fc0 <ee_printf+0x8f4>
    4f98:	9a 23 40 0b 	sub  %o5, %o3, %o5
    4f9c:	84 10 20 00 	clr  %g2
    4fa0:	9a 03 60 01 	inc  %o5
    4fa4:	98 10 20 20 	mov  0x20, %o4
    4fa8:	d8 28 40 02 	stb  %o4, [ %g1 + %g2 ]
    4fac:	84 00 a0 01 	inc  %g2
    4fb0:	9e 23 40 02 	sub  %o5, %g2, %o7
    4fb4:	80 a0 c0 0f 	cmp  %g3, %o7
    4fb8:	26 bf ff fd 	bl,a   4fac <ee_printf+0x8e0>
    4fbc:	d8 28 40 02 	stb  %o4, [ %g1 + %g2 ]
    4fc0:	ba 07 40 1c 	add  %i5, %i4, %i5
    4fc4:	b8 00 ff ff 	add  %g3, -1, %i4
    4fc8:	80 a0 e0 00 	cmp  %g3, 0
    4fcc:	04 80 00 2d 	ble  5080 <ee_printf+0x9b4>
    4fd0:	9b 30 e0 02 	srl  %g3, 2, %o5
    4fd4:	82 07 60 04 	add  %i5, 4, %g1
    4fd8:	80 a1 00 01 	cmp  %g4, %g1
    4fdc:	82 01 20 04 	add  %g4, 4, %g1
    4fe0:	84 60 3f ff 	subx  %g0, -1, %g2
    4fe4:	80 a7 40 01 	cmp  %i5, %g1
    4fe8:	82 60 3f ff 	subx  %g0, -1, %g1
    4fec:	84 10 80 01 	or  %g2, %g1, %g2
    4ff0:	99 2b 60 02 	sll  %o5, 2, %o4
    4ff4:	80 a0 e0 03 	cmp  %g3, 3
    4ff8:	08 80 02 51 	bleu  593c <ee_printf+0x1270>
    4ffc:	82 10 20 01 	mov  1, %g1
    5000:	9e 17 40 04 	or  %i5, %g4, %o7
    5004:	9e 0b e0 03 	and  %o7, 3, %o7
    5008:	80 a0 00 0f 	cmp  %g0, %o7
    500c:	82 08 80 01 	and  %g2, %g1, %g1
    5010:	84 60 3f ff 	subx  %g0, -1, %g2
    5014:	80 88 40 02 	btst  %g1, %g2
    5018:	02 80 04 29 	be  60bc <ee_printf+0x19f0>
    501c:	80 a3 20 00 	cmp  %o4, 0
    5020:	02 80 04 27 	be  60bc <ee_printf+0x19f0>
    5024:	84 10 20 00 	clr  %g2
    5028:	82 10 20 00 	clr  %g1
    502c:	de 01 00 01 	ld  [ %g4 + %g1 ], %o7
    5030:	de 27 40 01 	st  %o7, [ %i5 + %g1 ]
    5034:	84 00 a0 01 	inc  %g2
    5038:	80 a3 40 02 	cmp  %o5, %g2
    503c:	18 bf ff fc 	bgu  502c <ee_printf+0x960>
    5040:	82 00 60 04 	add  %g1, 4, %g1
    5044:	82 10 00 0c 	mov  %o4, %g1
    5048:	88 01 00 0c 	add  %g4, %o4, %g4
    504c:	80 a0 c0 01 	cmp  %g3, %g1
    5050:	02 80 00 0b 	be  507c <ee_printf+0x9b0>
    5054:	98 07 40 0c 	add  %i5, %o4, %o4
    5058:	84 20 00 01 	neg  %g1, %g2
    505c:	9a 01 00 02 	add  %g4, %g2, %o5
    5060:	9e 03 00 02 	add  %o4, %g2, %o7
    5064:	da 0b 40 01 	ldub  [ %o5 + %g1 ], %o5
    5068:	da 2b c0 01 	stb  %o5, [ %o7 + %g1 ]
    506c:	82 00 60 01 	inc  %g1
    5070:	80 a0 c0 01 	cmp  %g3, %g1
    5074:	14 bf ff fc 	bg  5064 <ee_printf+0x998>
    5078:	9a 01 00 02 	add  %g4, %g2, %o5
    507c:	ba 07 40 03 	add  %i5, %g3, %i5
    5080:	80 a7 00 03 	cmp  %i4, %g3
    5084:	04 bf ff 78 	ble  4e64 <ee_printf+0x798>
    5088:	9e 07 3f ff 	add  %i4, -1, %o7
    508c:	b8 27 00 03 	sub  %i4, %g3, %i4
    5090:	88 20 00 1d 	neg  %i5, %g4
    5094:	88 09 20 03 	and  %g4, 3, %g4
    5098:	80 a1 00 1c 	cmp  %g4, %i4
    509c:	38 80 00 02 	bgu,a   50a4 <ee_printf+0x9d8>
    50a0:	88 10 00 1c 	mov  %i4, %g4
    50a4:	80 a7 20 03 	cmp  %i4, 3
    50a8:	28 80 00 02 	bleu,a   50b0 <ee_printf+0x9e4>
    50ac:	88 10 00 1c 	mov  %i4, %g4
    50b0:	80 a1 20 00 	cmp  %g4, 0
    50b4:	02 80 00 0c 	be  50e4 <ee_printf+0xa18>
    50b8:	82 10 00 1d 	mov  %i5, %g1
    50bc:	9a 10 20 20 	mov  0x20, %o5
    50c0:	da 28 40 00 	stb  %o5, [ %g1 ]
    50c4:	82 00 60 01 	inc  %g1
    50c8:	84 20 40 1d 	sub  %g1, %i5, %g2
    50cc:	80 a1 00 02 	cmp  %g4, %g2
    50d0:	18 bf ff fc 	bgu  50c0 <ee_printf+0x9f4>
    50d4:	9e 03 ff ff 	add  %o7, -1, %o7
    50d8:	80 a7 00 04 	cmp  %i4, %g4
    50dc:	22 bf ff 62 	be,a   4e64 <ee_printf+0x798>
    50e0:	ba 07 40 1c 	add  %i5, %i4, %i5
    50e4:	96 27 00 04 	sub  %i4, %g4, %o3
    50e8:	9b 32 e0 02 	srl  %o3, 2, %o5
    50ec:	99 2b 60 02 	sll  %o5, 2, %o4
    50f0:	80 a3 20 00 	cmp  %o4, 0
    50f4:	02 80 00 0c 	be  5124 <ee_printf+0xa58>
    50f8:	88 07 40 04 	add  %i5, %g4, %g4
    50fc:	84 10 20 00 	clr  %g2
    5100:	e2 21 00 00 	st  %l1, [ %g4 ]
    5104:	84 00 a0 01 	inc  %g2
    5108:	80 a0 80 0d 	cmp  %g2, %o5
    510c:	0a bf ff fd 	bcs  5100 <ee_printf+0xa34>
    5110:	88 01 20 04 	add  %g4, 4, %g4
    5114:	82 00 40 0c 	add  %g1, %o4, %g1
    5118:	80 a2 c0 0c 	cmp  %o3, %o4
    511c:	02 bf ff 51 	be  4e60 <ee_printf+0x794>
    5120:	9e 23 c0 0c 	sub  %o7, %o4, %o7
    5124:	84 10 20 00 	clr  %g2
    5128:	9e 03 e0 01 	inc  %o7
    512c:	9a 10 20 20 	mov  0x20, %o5
    5130:	da 28 40 02 	stb  %o5, [ %g1 + %g2 ]
    5134:	84 00 a0 01 	inc  %g2
    5138:	88 23 c0 02 	sub  %o7, %g2, %g4
    513c:	80 a0 c0 04 	cmp  %g3, %g4
    5140:	26 bf ff fd 	bl,a   5134 <ee_printf+0xa68>
    5144:	da 28 40 02 	stb  %o5, [ %g1 + %g2 ]
    5148:	10 bf ff 47 	b  4e64 <ee_printf+0x798>
    514c:	ba 07 40 1c 	add  %i5, %i4, %i5
    5150:	80 a7 3f ff 	cmp  %i4, -1
    5154:	22 80 01 fc 	be,a   5944 <ee_printf+0x1278>
    5158:	9a 13 60 01 	or  %o5, 1, %o5
    515c:	d2 04 80 00 	ld  [ %l2 ], %o1
    5160:	90 10 00 1d 	mov  %i5, %o0
    5164:	94 10 20 10 	mov  0x10, %o2
    5168:	96 10 00 1c 	mov  %i4, %o3
    516c:	7f ff fb ec 	call  411c <number>
    5170:	98 10 00 13 	mov  %l3, %o4
    5174:	a4 04 a0 04 	add  %l2, 4, %l2
    5178:	ba 10 00 08 	mov  %o0, %i5
    517c:	10 bf fd 6d 	b  4730 <ee_printf+0x64>
    5180:	c4 0e 20 01 	ldub  [ %i0 + 1 ], %g2
    5184:	10 bf ff 3c 	b  4e74 <ee_printf+0x7a8>
    5188:	94 10 20 08 	mov  8, %o2
    518c:	92 10 00 12 	mov  %l2, %o1
    5190:	da 27 bb 44 	st  %o5, [ %fp + -1212 ]
    5194:	90 07 bb 58 	add  %fp, -1192, %o0
    5198:	40 00 0a 58 	call  7af8 <__GI_memcpy>
    519c:	94 10 20 08 	mov  8, %o2
    51a0:	da 07 bb 44 	ld  [ %fp + -1212 ], %o5
    51a4:	a4 04 a0 08 	add  %l2, 8, %l2
    51a8:	80 8b 60 10 	btst  0x10, %o5
    51ac:	02 80 00 03 	be  51b8 <ee_printf+0xaec>
    51b0:	d1 1f bb 58 	ldd  [ %fp + -1192 ], %f8
    51b4:	9a 0b 7f fe 	and  %o5, -2, %o5
    51b8:	aa 13 60 02 	or  %o5, 2, %l5
    51bc:	82 0d 60 01 	and  %l5, 1, %g1
    51c0:	80 a0 00 01 	cmp  %g0, %g1
    51c4:	03 10 00 00 	sethi  %hi(0x40000000), %g1
    51c8:	a8 40 3f ff 	addx  %g0, -1, %l4
    51cc:	d5 18 60 58 	ldd  [ %g1 + 0x58 ], %f10
    51d0:	a8 0d 20 f0 	and  %l4, 0xf0, %l4
    51d4:	81 aa 0a ca 	fcmped  %f8, %f10
    51d8:	01 00 00 00 	nop 
    51dc:	09 80 03 06 	fbl  5df4 <ee_printf+0x1728>
    51e0:	a8 05 20 30 	add  %l4, 0x30, %l4
    51e4:	80 8d 60 04 	btst  4, %l5
    51e8:	02 80 02 c9 	be  5d0c <ee_printf+0x1640>
    51ec:	80 8d 60 08 	btst  8, %l5
    51f0:	b8 07 3f ff 	add  %i4, -1, %i4
    51f4:	ac 10 20 2b 	mov  0x2b, %l6
    51f8:	80 a4 ff ff 	cmp  %l3, -1
    51fc:	22 80 00 02 	be,a   5204 <ee_printf+0xb38>
    5200:	a6 10 20 06 	mov  6, %l3
    5204:	d1 3f bb 38 	std  %f8, [ %fp + -1224 ]
    5208:	94 10 00 13 	mov  %l3, %o2
    520c:	d0 1f bb 38 	ldd  [ %fp + -1224 ], %o0
    5210:	96 07 bb 50 	add  %fp, -1200, %o3
    5214:	98 07 bb 54 	add  %fp, -1196, %o4
    5218:	40 00 04 ce 	call  6550 <fcvtbuf>
    521c:	9a 07 bb b0 	add  %fp, -1104, %o5
    5220:	c4 07 bb 54 	ld  [ %fp + -1196 ], %g2
    5224:	80 a0 a0 00 	cmp  %g2, 0
    5228:	02 80 00 05 	be  523c <ee_printf+0xb70>
    522c:	82 07 bb 60 	add  %fp, -1184, %g1
    5230:	84 10 20 2d 	mov  0x2d, %g2
    5234:	82 07 bb 61 	add  %fp, -1183, %g1
    5238:	c4 2f bb 60 	stb  %g2, [ %fp + -1184 ]
    523c:	c4 4a 00 00 	ldsb  [ %o0 ], %g2
    5240:	80 a0 a0 00 	cmp  %g2, 0
    5244:	12 80 02 f2 	bne  5e0c <ee_printf+0x1740>
    5248:	da 0a 00 00 	ldub  [ %o0 ], %o5
    524c:	84 10 20 30 	mov  0x30, %g2
    5250:	80 a4 e0 00 	cmp  %l3, 0
    5254:	02 80 03 9f 	be  60d0 <ee_printf+0x1a04>
    5258:	c4 28 40 00 	stb  %g2, [ %g1 ]
    525c:	84 10 20 2e 	mov  0x2e, %g2
    5260:	c4 28 60 01 	stb  %g2, [ %g1 + 1 ]
    5264:	88 94 e0 00 	orcc  %l3, 0, %g4
    5268:	04 80 03 98 	ble  60c8 <ee_printf+0x19fc>
    526c:	82 00 60 02 	add  %g1, 2, %g1
    5270:	84 20 00 01 	neg  %g1, %g2
    5274:	84 08 a0 03 	and  %g2, 3, %g2
    5278:	80 a1 00 02 	cmp  %g4, %g2
    527c:	08 80 00 03 	bleu  5288 <ee_printf+0xbbc>
    5280:	9e 10 00 04 	mov  %g4, %o7
    5284:	9e 10 00 02 	mov  %g2, %o7
    5288:	80 a1 20 03 	cmp  %g4, 3
    528c:	28 80 00 02 	bleu,a   5294 <ee_printf+0xbc8>
    5290:	9e 10 00 04 	mov  %g4, %o7
    5294:	84 10 00 01 	mov  %g1, %g2
    5298:	80 a3 e0 00 	cmp  %o7, 0
    529c:	02 80 00 0b 	be  52c8 <ee_printf+0xbfc>
    52a0:	86 10 20 00 	clr  %g3
    52a4:	9a 10 20 30 	mov  0x30, %o5
    52a8:	da 28 80 00 	stb  %o5, [ %g2 ]
    52ac:	86 00 e0 01 	inc  %g3
    52b0:	80 a3 c0 03 	cmp  %o7, %g3
    52b4:	18 bf ff fd 	bgu  52a8 <ee_printf+0xbdc>
    52b8:	84 00 a0 01 	inc  %g2
    52bc:	80 a1 00 0f 	cmp  %g4, %o7
    52c0:	22 80 00 1a 	be,a   5328 <ee_printf+0xc5c>
    52c4:	c0 28 40 04 	clrb  [ %g1 + %g4 ]
    52c8:	94 21 00 0f 	sub  %g4, %o7, %o2
    52cc:	97 32 a0 02 	srl  %o2, 2, %o3
    52d0:	99 2a e0 02 	sll  %o3, 2, %o4
    52d4:	80 a3 20 00 	cmp  %o4, 0
    52d8:	02 80 00 0c 	be  5308 <ee_printf+0xc3c>
    52dc:	9e 00 40 0f 	add  %g1, %o7, %o7
    52e0:	9a 10 20 00 	clr  %o5
    52e4:	f4 23 c0 00 	st  %i2, [ %o7 ]
    52e8:	9a 03 60 01 	inc  %o5
    52ec:	80 a3 40 0b 	cmp  %o5, %o3
    52f0:	0a bf ff fd 	bcs  52e4 <ee_printf+0xc18>
    52f4:	9e 03 e0 04 	add  %o7, 4, %o7
    52f8:	84 00 80 0c 	add  %g2, %o4, %g2
    52fc:	80 a2 80 0c 	cmp  %o2, %o4
    5300:	02 80 00 09 	be  5324 <ee_printf+0xc58>
    5304:	86 00 c0 0c 	add  %g3, %o4, %g3
    5308:	9e 10 20 30 	mov  0x30, %o7
    530c:	84 20 80 03 	sub  %g2, %g3, %g2
    5310:	de 28 80 03 	stb  %o7, [ %g2 + %g3 ]
    5314:	86 00 e0 01 	inc  %g3
    5318:	80 a4 c0 03 	cmp  %l3, %g3
    531c:	34 bf ff fe 	bg,a   5314 <ee_printf+0xc48>
    5320:	de 28 80 03 	stb  %o7, [ %g2 + %g3 ]
    5324:	c0 28 40 04 	clrb  [ %g1 + %g4 ]
    5328:	c2 0f bb 60 	ldub  [ %fp + -1184 ], %g1
    532c:	83 28 60 18 	sll  %g1, 0x18, %g1
    5330:	80 a0 60 00 	cmp  %g1, 0
    5334:	22 80 00 0e 	be,a   536c <ee_printf+0xca0>
    5338:	98 10 20 00 	clr  %o4
    533c:	88 07 bb 60 	add  %fp, -1184, %g4
    5340:	84 07 bc 60 	add  %fp, -928, %g2
    5344:	10 80 00 04 	b  5354 <ee_printf+0xc88>
    5348:	98 10 00 04 	mov  %g4, %o4
    534c:	22 80 00 08 	be,a   536c <ee_printf+0xca0>
    5350:	98 23 00 04 	sub  %o4, %g4, %o4
    5354:	98 03 20 01 	inc  %o4
    5358:	c2 4b 00 00 	ldsb  [ %o4 ], %g1
    535c:	80 a0 60 00 	cmp  %g1, 0
    5360:	12 bf ff fb 	bne  534c <ee_printf+0xc80>
    5364:	80 a3 00 02 	cmp  %o4, %g2
    5368:	98 23 00 04 	sub  %o4, %g4, %o4
    536c:	80 8d 60 11 	btst  0x11, %l5
    5370:	12 80 00 36 	bne  5448 <ee_printf+0xd7c>
    5374:	b8 27 00 0c 	sub  %i4, %o4, %i4
    5378:	80 a7 20 00 	cmp  %i4, 0
    537c:	04 80 03 20 	ble  5ffc <ee_printf+0x1930>
    5380:	88 07 3f ff 	add  %i4, -1, %g4
    5384:	82 20 00 1d 	neg  %i5, %g1
    5388:	82 08 60 03 	and  %g1, 3, %g1
    538c:	80 a7 00 01 	cmp  %i4, %g1
    5390:	08 80 00 03 	bleu  539c <ee_printf+0xcd0>
    5394:	86 10 00 1c 	mov  %i4, %g3
    5398:	86 10 00 01 	mov  %g1, %g3
    539c:	80 a7 20 03 	cmp  %i4, 3
    53a0:	28 80 00 02 	bleu,a   53a8 <ee_printf+0xcdc>
    53a4:	86 10 00 1c 	mov  %i4, %g3
    53a8:	80 a0 e0 00 	cmp  %g3, 0
    53ac:	02 80 00 0c 	be  53dc <ee_printf+0xd10>
    53b0:	82 10 00 1d 	mov  %i5, %g1
    53b4:	9e 10 20 20 	mov  0x20, %o7
    53b8:	de 28 40 00 	stb  %o7, [ %g1 ]
    53bc:	82 00 60 01 	inc  %g1
    53c0:	84 20 40 1d 	sub  %g1, %i5, %g2
    53c4:	80 a0 c0 02 	cmp  %g3, %g2
    53c8:	18 bf ff fc 	bgu  53b8 <ee_printf+0xcec>
    53cc:	88 01 3f ff 	add  %g4, -1, %g4
    53d0:	80 a7 00 03 	cmp  %i4, %g3
    53d4:	22 80 00 1c 	be,a   5444 <ee_printf+0xd78>
    53d8:	ba 07 40 1c 	add  %i5, %i4, %i5
    53dc:	96 27 00 03 	sub  %i4, %g3, %o3
    53e0:	9f 32 e0 02 	srl  %o3, 2, %o7
    53e4:	9b 2b e0 02 	sll  %o7, 2, %o5
    53e8:	80 a3 60 00 	cmp  %o5, 0
    53ec:	02 80 00 0c 	be  541c <ee_printf+0xd50>
    53f0:	86 07 40 03 	add  %i5, %g3, %g3
    53f4:	84 10 20 00 	clr  %g2
    53f8:	e2 20 c0 00 	st  %l1, [ %g3 ]
    53fc:	84 00 a0 01 	inc  %g2
    5400:	80 a0 80 0f 	cmp  %g2, %o7
    5404:	0a bf ff fd 	bcs  53f8 <ee_printf+0xd2c>
    5408:	86 00 e0 04 	add  %g3, 4, %g3
    540c:	82 00 40 0d 	add  %g1, %o5, %g1
    5410:	80 a2 c0 0d 	cmp  %o3, %o5
    5414:	02 80 00 0b 	be  5440 <ee_printf+0xd74>
    5418:	88 21 00 0d 	sub  %g4, %o5, %g4
    541c:	84 10 20 00 	clr  %g2
    5420:	88 01 20 01 	inc  %g4
    5424:	9e 10 20 20 	mov  0x20, %o7
    5428:	de 28 40 02 	stb  %o7, [ %g1 + %g2 ]
    542c:	84 00 a0 01 	inc  %g2
    5430:	86 21 00 02 	sub  %g4, %g2, %g3
    5434:	80 a0 e0 00 	cmp  %g3, 0
    5438:	34 bf ff fd 	bg,a   542c <ee_printf+0xd60>
    543c:	de 28 40 02 	stb  %o7, [ %g1 + %g2 ]
    5440:	ba 07 40 1c 	add  %i5, %i4, %i5
    5444:	b8 10 3f ff 	mov  -1, %i4
    5448:	80 8d a0 ff 	btst  0xff, %l6
    544c:	02 80 00 04 	be  545c <ee_printf+0xd90>
    5450:	80 8d 60 10 	btst  0x10, %l5
    5454:	ec 2f 40 00 	stb  %l6, [ %i5 ]
    5458:	ba 07 60 01 	inc  %i5
    545c:	12 80 00 3d 	bne  5550 <ee_printf+0xe84>
    5460:	80 a3 20 00 	cmp  %o4, 0
    5464:	80 a7 20 00 	cmp  %i4, 0
    5468:	04 80 02 ec 	ble  6018 <ee_printf+0x194c>
    546c:	88 07 3f ff 	add  %i4, -1, %g4
    5470:	86 20 00 1d 	neg  %i5, %g3
    5474:	86 08 e0 03 	and  %g3, 3, %g3
    5478:	80 a0 c0 1c 	cmp  %g3, %i4
    547c:	38 80 00 02 	bgu,a   5484 <ee_printf+0xdb8>
    5480:	86 10 00 1c 	mov  %i4, %g3
    5484:	80 a7 20 03 	cmp  %i4, 3
    5488:	28 80 00 02 	bleu,a   5490 <ee_printf+0xdc4>
    548c:	86 10 00 1c 	mov  %i4, %g3
    5490:	80 a0 e0 00 	cmp  %g3, 0
    5494:	02 80 00 0b 	be  54c0 <ee_printf+0xdf4>
    5498:	82 10 00 1d 	mov  %i5, %g1
    549c:	e8 28 40 00 	stb  %l4, [ %g1 ]
    54a0:	82 00 60 01 	inc  %g1
    54a4:	84 20 40 1d 	sub  %g1, %i5, %g2
    54a8:	80 a0 c0 02 	cmp  %g3, %g2
    54ac:	18 bf ff fc 	bgu  549c <ee_printf+0xdd0>
    54b0:	88 01 3f ff 	add  %g4, -1, %g4
    54b4:	80 a7 00 03 	cmp  %i4, %g3
    54b8:	22 80 00 24 	be,a   5548 <ee_printf+0xe7c>
    54bc:	ba 07 40 1c 	add  %i5, %i4, %i5
    54c0:	94 27 00 03 	sub  %i4, %g3, %o2
    54c4:	9f 32 a0 02 	srl  %o2, 2, %o7
    54c8:	97 2b e0 02 	sll  %o7, 2, %o3
    54cc:	80 a2 e0 00 	cmp  %o3, 0
    54d0:	02 80 00 15 	be  5524 <ee_printf+0xe58>
    54d4:	86 07 40 03 	add  %i5, %g3, %g3
    54d8:	9a 0d 20 ff 	and  %l4, 0xff, %o5
    54dc:	85 2b 60 10 	sll  %o5, 0x10, %g2
    54e0:	91 2b 60 18 	sll  %o5, 0x18, %o0
    54e4:	93 2b 60 08 	sll  %o5, 8, %o1
    54e8:	90 0a 00 10 	and  %o0, %l0, %o0
    54ec:	90 12 00 02 	or  %o0, %g2, %o0
    54f0:	84 10 20 00 	clr  %g2
    54f4:	90 0a 00 19 	and  %o0, %i1, %o0
    54f8:	92 12 00 09 	or  %o0, %o1, %o1
    54fc:	9a 12 40 0d 	or  %o1, %o5, %o5
    5500:	da 20 c0 00 	st  %o5, [ %g3 ]
    5504:	84 00 a0 01 	inc  %g2
    5508:	80 a0 80 0f 	cmp  %g2, %o7
    550c:	0a bf ff fd 	bcs  5500 <ee_printf+0xe34>
    5510:	86 00 e0 04 	add  %g3, 4, %g3
    5514:	82 00 40 0b 	add  %g1, %o3, %g1
    5518:	80 a2 80 0b 	cmp  %o2, %o3
    551c:	02 80 00 0a 	be  5544 <ee_printf+0xe78>
    5520:	88 21 00 0b 	sub  %g4, %o3, %g4
    5524:	84 10 20 00 	clr  %g2
    5528:	88 01 20 01 	inc  %g4
    552c:	e8 28 40 02 	stb  %l4, [ %g1 + %g2 ]
    5530:	84 00 a0 01 	inc  %g2
    5534:	86 21 00 02 	sub  %g4, %g2, %g3
    5538:	80 a0 e0 00 	cmp  %g3, 0
    553c:	34 bf ff fd 	bg,a   5530 <ee_printf+0xe64>
    5540:	e8 28 40 02 	stb  %l4, [ %g1 + %g2 ]
    5544:	ba 07 40 1c 	add  %i5, %i4, %i5
    5548:	b8 10 3f ff 	mov  -1, %i4
    554c:	80 a3 20 00 	cmp  %o4, 0
    5550:	04 80 00 24 	ble  55e0 <ee_printf+0xf14>
    5554:	80 a7 20 00 	cmp  %i4, 0
    5558:	82 0f 60 03 	and  %i5, 3, %g1
    555c:	80 a0 00 01 	cmp  %g0, %g1
    5560:	9b 33 20 02 	srl  %o4, 2, %o5
    5564:	86 60 3f ff 	subx  %g0, -1, %g3
    5568:	83 2b 60 02 	sll  %o5, 2, %g1
    556c:	80 a3 20 03 	cmp  %o4, 3
    5570:	18 80 00 03 	bgu  557c <ee_printf+0xeb0>
    5574:	84 10 20 01 	mov  1, %g2
    5578:	84 10 20 00 	clr  %g2
    557c:	80 88 c0 02 	btst  %g3, %g2
    5580:	02 80 02 cb 	be  60ac <ee_printf+0x19e0>
    5584:	80 a0 60 00 	cmp  %g1, 0
    5588:	02 80 02 c9 	be  60ac <ee_printf+0x19e0>
    558c:	84 10 20 00 	clr  %g2
    5590:	86 10 20 00 	clr  %g3
    5594:	88 07 bb 60 	add  %fp, -1184, %g4
    5598:	de 01 00 02 	ld  [ %g4 + %g2 ], %o7
    559c:	de 27 40 02 	st  %o7, [ %i5 + %g2 ]
    55a0:	86 00 e0 01 	inc  %g3
    55a4:	80 a3 40 03 	cmp  %o5, %g3
    55a8:	18 bf ff fc 	bgu  5598 <ee_printf+0xecc>
    55ac:	84 00 a0 04 	add  %g2, 4, %g2
    55b0:	80 a3 00 01 	cmp  %o4, %g1
    55b4:	02 80 00 09 	be  55d8 <ee_printf+0xf0c>
    55b8:	86 07 40 01 	add  %i5, %g1, %g3
    55bc:	86 20 c0 01 	sub  %g3, %g1, %g3
    55c0:	c4 09 00 01 	ldub  [ %g4 + %g1 ], %g2
    55c4:	c4 28 c0 01 	stb  %g2, [ %g3 + %g1 ]
    55c8:	82 00 60 01 	inc  %g1
    55cc:	80 a3 00 01 	cmp  %o4, %g1
    55d0:	34 bf ff fd 	bg,a   55c4 <ee_printf+0xef8>
    55d4:	c4 09 00 01 	ldub  [ %g4 + %g1 ], %g2
    55d8:	ba 07 40 0c 	add  %i5, %o4, %i5
    55dc:	80 a7 20 00 	cmp  %i4, 0
    55e0:	04 bf fe 21 	ble  4e64 <ee_printf+0x798>
    55e4:	88 07 3f ff 	add  %i4, -1, %g4
    55e8:	86 20 00 1d 	neg  %i5, %g3
    55ec:	86 08 e0 03 	and  %g3, 3, %g3
    55f0:	80 a0 c0 1c 	cmp  %g3, %i4
    55f4:	38 80 00 02 	bgu,a   55fc <ee_printf+0xf30>
    55f8:	86 10 00 1c 	mov  %i4, %g3
    55fc:	80 a7 20 03 	cmp  %i4, 3
    5600:	28 80 00 02 	bleu,a   5608 <ee_printf+0xf3c>
    5604:	86 10 00 1c 	mov  %i4, %g3
    5608:	80 a0 e0 00 	cmp  %g3, 0
    560c:	02 80 00 0c 	be  563c <ee_printf+0xf70>
    5610:	82 10 00 1d 	mov  %i5, %g1
    5614:	9e 10 20 20 	mov  0x20, %o7
    5618:	de 28 40 00 	stb  %o7, [ %g1 ]
    561c:	82 00 60 01 	inc  %g1
    5620:	84 20 40 1d 	sub  %g1, %i5, %g2
    5624:	80 a0 c0 02 	cmp  %g3, %g2
    5628:	18 bf ff fc 	bgu  5618 <ee_printf+0xf4c>
    562c:	88 01 3f ff 	add  %g4, -1, %g4
    5630:	80 a7 00 03 	cmp  %i4, %g3
    5634:	22 bf fe 0c 	be,a   4e64 <ee_printf+0x798>
    5638:	ba 07 40 1c 	add  %i5, %i4, %i5
    563c:	98 27 00 03 	sub  %i4, %g3, %o4
    5640:	9f 33 20 02 	srl  %o4, 2, %o7
    5644:	9b 2b e0 02 	sll  %o7, 2, %o5
    5648:	80 a3 60 00 	cmp  %o5, 0
    564c:	02 80 00 0c 	be  567c <ee_printf+0xfb0>
    5650:	86 07 40 03 	add  %i5, %g3, %g3
    5654:	84 10 20 00 	clr  %g2
    5658:	e2 20 c0 00 	st  %l1, [ %g3 ]
    565c:	84 00 a0 01 	inc  %g2
    5660:	80 a0 80 0f 	cmp  %g2, %o7
    5664:	0a bf ff fd 	bcs  5658 <ee_printf+0xf8c>
    5668:	86 00 e0 04 	add  %g3, 4, %g3
    566c:	82 00 40 0d 	add  %g1, %o5, %g1
    5670:	80 a3 00 0d 	cmp  %o4, %o5
    5674:	02 bf fd fb 	be  4e60 <ee_printf+0x794>
    5678:	88 21 00 0d 	sub  %g4, %o5, %g4
    567c:	84 10 20 00 	clr  %g2
    5680:	88 01 20 01 	inc  %g4
    5684:	9e 10 20 20 	mov  0x20, %o7
    5688:	de 28 40 02 	stb  %o7, [ %g1 + %g2 ]
    568c:	84 00 a0 01 	inc  %g2
    5690:	86 21 00 02 	sub  %g4, %g2, %g3
    5694:	80 a0 e0 00 	cmp  %g3, 0
    5698:	34 bf ff fd 	bg,a   568c <ee_printf+0xfc0>
    569c:	de 28 40 02 	stb  %o7, [ %g1 + %g2 ]
    56a0:	10 bf fd f1 	b  4e64 <ee_printf+0x798>
    56a4:	ba 07 40 1c 	add  %i5, %i4, %i5
    56a8:	10 bf fd f3 	b  4e74 <ee_printf+0x7a8>
    56ac:	94 10 20 10 	mov  0x10, %o2
    56b0:	10 bf fd f1 	b  4e74 <ee_printf+0x7a8>
    56b4:	94 10 20 0a 	mov  0xa, %o2
    56b8:	9a 13 60 02 	or  %o5, 2, %o5
    56bc:	10 bf fd ee 	b  4e74 <ee_printf+0x7a8>
    56c0:	94 10 20 0a 	mov  0xa, %o2
    56c4:	80 8b 60 10 	btst  0x10, %o5
    56c8:	32 80 00 67 	bne,a   5864 <ee_printf+0x1198>
    56cc:	c2 04 80 00 	ld  [ %l2 ], %g1
    56d0:	b8 07 3f ff 	add  %i4, -1, %i4
    56d4:	84 97 20 00 	orcc  %i4, 0, %g2
    56d8:	04 80 00 62 	ble  5860 <ee_printf+0x1194>
    56dc:	82 20 00 1d 	neg  %i5, %g1
    56e0:	82 08 60 03 	and  %g1, 3, %g1
    56e4:	80 a7 00 01 	cmp  %i4, %g1
    56e8:	08 80 00 03 	bleu  56f4 <ee_printf+0x1028>
    56ec:	88 10 00 1c 	mov  %i4, %g4
    56f0:	88 10 00 01 	mov  %g1, %g4
    56f4:	80 a7 20 03 	cmp  %i4, 3
    56f8:	28 80 00 02 	bleu,a   5700 <ee_printf+0x1034>
    56fc:	88 10 00 1c 	mov  %i4, %g4
    5700:	80 a1 20 00 	cmp  %g4, 0
    5704:	02 80 00 0c 	be  5734 <ee_printf+0x1068>
    5708:	82 10 00 1d 	mov  %i5, %g1
    570c:	9e 10 20 20 	mov  0x20, %o7
    5710:	de 28 40 00 	stb  %o7, [ %g1 ]
    5714:	82 00 60 01 	inc  %g1
    5718:	86 20 40 1d 	sub  %g1, %i5, %g3
    571c:	80 a1 00 03 	cmp  %g4, %g3
    5720:	18 bf ff fc 	bgu  5710 <ee_printf+0x1044>
    5724:	84 00 bf ff 	add  %g2, -1, %g2
    5728:	80 a7 00 04 	cmp  %i4, %g4
    572c:	22 80 00 19 	be,a   5790 <ee_printf+0x10c4>
    5730:	c4 04 80 00 	ld  [ %l2 ], %g2
    5734:	98 27 00 04 	sub  %i4, %g4, %o4
    5738:	9f 33 20 02 	srl  %o4, 2, %o7
    573c:	9b 2b e0 02 	sll  %o7, 2, %o5
    5740:	80 a3 60 00 	cmp  %o5, 0
    5744:	02 80 00 0c 	be  5774 <ee_printf+0x10a8>
    5748:	86 10 20 00 	clr  %g3
    574c:	88 07 40 04 	add  %i5, %g4, %g4
    5750:	e2 21 00 00 	st  %l1, [ %g4 ]
    5754:	86 00 e0 01 	inc  %g3
    5758:	80 a0 c0 0f 	cmp  %g3, %o7
    575c:	0a bf ff fd 	bcs  5750 <ee_printf+0x1084>
    5760:	88 01 20 04 	add  %g4, 4, %g4
    5764:	82 00 40 0d 	add  %g1, %o5, %g1
    5768:	80 a3 00 0d 	cmp  %o4, %o5
    576c:	02 80 00 08 	be  578c <ee_printf+0x10c0>
    5770:	84 20 80 0d 	sub  %g2, %o5, %g2
    5774:	86 10 20 20 	mov  0x20, %g3
    5778:	c6 28 40 00 	stb  %g3, [ %g1 ]
    577c:	84 00 bf ff 	add  %g2, -1, %g2
    5780:	80 a0 a0 00 	cmp  %g2, 0
    5784:	14 bf ff fd 	bg  5778 <ee_printf+0x10ac>
    5788:	82 00 60 01 	inc  %g1
    578c:	c4 04 80 00 	ld  [ %l2 ], %g2
    5790:	82 07 40 1c 	add  %i5, %i4, %g1
    5794:	c4 2f 40 1c 	stb  %g2, [ %i5 + %i4 ]
    5798:	a4 04 a0 04 	add  %l2, 4, %l2
    579c:	ba 00 60 01 	add  %g1, 1, %i5
    57a0:	10 bf fb e4 	b  4730 <ee_printf+0x64>
    57a4:	c4 0e 20 01 	ldub  [ %i0 + 1 ], %g2
    57a8:	f8 04 80 00 	ld  [ %l2 ], %i4
    57ac:	84 06 20 02 	add  %i0, 2, %g2
    57b0:	a4 04 a0 04 	add  %l2, 4, %l2
    57b4:	80 a7 20 00 	cmp  %i4, 0
    57b8:	16 bf fc 01 	bge  47bc <ee_printf+0xf0>
    57bc:	c2 0e 20 02 	ldub  [ %i0 + 2 ], %g1
    57c0:	b8 20 00 1c 	neg  %i4
    57c4:	10 bf fb fe 	b  47bc <ee_printf+0xf0>
    57c8:	9a 13 60 10 	or  %o5, 0x10, %o5
    57cc:	82 10 20 30 	mov  0x30, %g1
    57d0:	c2 2f bb b0 	stb  %g1, [ %fp + -1104 ]
    57d4:	9e 10 20 01 	mov  1, %o7
    57d8:	82 10 20 2e 	mov  0x2e, %g1
    57dc:	98 07 80 0f 	add  %fp, %o7, %o4
    57e0:	c2 2b 3b b0 	stb  %g1, [ %o4 + -1104 ]
    57e4:	c6 08 a0 01 	ldub  [ %g2 + 1 ], %g3
    57e8:	80 a0 e0 00 	cmp  %g3, 0
    57ec:	12 bf fc a5 	bne  4a80 <ee_printf+0x3b4>
    57f0:	88 10 20 02 	mov  2, %g4
    57f4:	82 07 80 04 	add  %fp, %g4, %g1
    57f8:	86 10 20 30 	mov  0x30, %g3
    57fc:	c6 28 7b b0 	stb  %g3, [ %g1 + -1104 ]
    5800:	88 03 e0 02 	add  %o7, 2, %g4
    5804:	82 10 20 2e 	mov  0x2e, %g1
    5808:	98 07 80 04 	add  %fp, %g4, %o4
    580c:	c2 2b 3b b0 	stb  %g1, [ %o4 + -1104 ]
    5810:	c6 08 a0 02 	ldub  [ %g2 + 2 ], %g3
    5814:	80 a0 e0 00 	cmp  %g3, 0
    5818:	12 bf fc c2 	bne  4b20 <ee_printf+0x454>
    581c:	9e 01 20 01 	add  %g4, 1, %o7
    5820:	82 10 20 30 	mov  0x30, %g1
    5824:	9e 07 80 0f 	add  %fp, %o7, %o7
    5828:	c2 2b fb b0 	stb  %g1, [ %o7 + -1104 ]
    582c:	86 01 20 02 	add  %g4, 2, %g3
    5830:	82 10 20 2e 	mov  0x2e, %g1
    5834:	88 07 80 03 	add  %fp, %g3, %g4
    5838:	c2 29 3b b0 	stb  %g1, [ %g4 + -1104 ]
    583c:	c4 08 a0 03 	ldub  [ %g2 + 3 ], %g2
    5840:	80 a0 a0 00 	cmp  %g2, 0
    5844:	12 bf fc df 	bne  4bc0 <ee_printf+0x4f4>
    5848:	98 00 e0 01 	add  %g3, 1, %o4
    584c:	82 07 80 0c 	add  %fp, %o4, %g1
    5850:	84 10 20 30 	mov  0x30, %g2
    5854:	98 00 e0 02 	add  %g3, 2, %o4
    5858:	10 bf fc fb 	b  4c44 <ee_printf+0x578>
    585c:	c4 28 7b b0 	stb  %g2, [ %g1 + -1104 ]
    5860:	c2 04 80 00 	ld  [ %l2 ], %g1
    5864:	c2 2f 40 00 	stb  %g1, [ %i5 ]
    5868:	b8 07 3f ff 	add  %i4, -1, %i4
    586c:	98 07 60 01 	add  %i5, 1, %o4
    5870:	84 97 20 00 	orcc  %i4, 0, %g2
    5874:	04 80 01 e6 	ble  600c <ee_printf+0x1940>
    5878:	a4 04 a0 04 	add  %l2, 4, %l2
    587c:	88 20 00 0c 	neg  %o4, %g4
    5880:	88 09 20 03 	and  %g4, 3, %g4
    5884:	80 a1 00 1c 	cmp  %g4, %i4
    5888:	38 80 00 02 	bgu,a   5890 <ee_printf+0x11c4>
    588c:	88 10 00 1c 	mov  %i4, %g4
    5890:	80 a7 20 03 	cmp  %i4, 3
    5894:	28 80 00 02 	bleu,a   589c <ee_printf+0x11d0>
    5898:	88 10 00 1c 	mov  %i4, %g4
    589c:	80 a1 20 00 	cmp  %g4, 0
    58a0:	02 80 00 0d 	be  58d4 <ee_printf+0x1208>
    58a4:	82 10 00 0c 	mov  %o4, %g1
    58a8:	9a 38 00 1d 	xnor  %g0, %i5, %o5
    58ac:	9e 10 20 20 	mov  0x20, %o7
    58b0:	de 28 40 00 	stb  %o7, [ %g1 ]
    58b4:	82 00 60 01 	inc  %g1
    58b8:	86 00 40 0d 	add  %g1, %o5, %g3
    58bc:	80 a1 00 03 	cmp  %g4, %g3
    58c0:	18 bf ff fc 	bgu  58b0 <ee_printf+0x11e4>
    58c4:	84 00 bf ff 	add  %g2, -1, %g2
    58c8:	80 a7 00 04 	cmp  %i4, %g4
    58cc:	22 80 00 1a 	be,a   5934 <ee_printf+0x1268>
    58d0:	ba 03 00 1c 	add  %o4, %i4, %i5
    58d4:	96 27 00 04 	sub  %i4, %g4, %o3
    58d8:	9f 32 e0 02 	srl  %o3, 2, %o7
    58dc:	9b 2b e0 02 	sll  %o7, 2, %o5
    58e0:	80 a3 60 00 	cmp  %o5, 0
    58e4:	02 80 00 0d 	be  5918 <ee_printf+0x124c>
    58e8:	88 01 20 01 	inc  %g4
    58ec:	86 10 20 00 	clr  %g3
    58f0:	ba 07 40 04 	add  %i5, %g4, %i5
    58f4:	e2 27 40 00 	st  %l1, [ %i5 ]
    58f8:	86 00 e0 01 	inc  %g3
    58fc:	80 a0 c0 0f 	cmp  %g3, %o7
    5900:	0a bf ff fd 	bcs  58f4 <ee_printf+0x1228>
    5904:	ba 07 60 04 	add  %i5, 4, %i5
    5908:	82 00 40 0d 	add  %g1, %o5, %g1
    590c:	80 a2 c0 0d 	cmp  %o3, %o5
    5910:	02 80 00 08 	be  5930 <ee_printf+0x1264>
    5914:	84 20 80 0d 	sub  %g2, %o5, %g2
    5918:	86 10 20 20 	mov  0x20, %g3
    591c:	c6 28 40 00 	stb  %g3, [ %g1 ]
    5920:	84 00 bf ff 	add  %g2, -1, %g2
    5924:	80 a0 a0 00 	cmp  %g2, 0
    5928:	14 bf ff fd 	bg  591c <ee_printf+0x1250>
    592c:	82 00 60 01 	inc  %g1
    5930:	ba 03 00 1c 	add  %o4, %i4, %i5
    5934:	10 bf fb 7f 	b  4730 <ee_printf+0x64>
    5938:	c4 0e 20 01 	ldub  [ %i0 + 1 ], %g2
    593c:	10 bf fd b1 	b  5000 <ee_printf+0x934>
    5940:	82 10 20 00 	clr  %g1
    5944:	10 bf fe 06 	b  515c <ee_printf+0xa90>
    5948:	b8 10 20 08 	mov  8, %i4
    594c:	80 8b 60 40 	btst  0x40, %o5
    5950:	02 80 00 ec 	be  5d00 <ee_printf+0x1634>
    5954:	a4 04 a0 04 	add  %l2, 4, %l2
    5958:	03 10 00 00 	sethi  %hi(0x40000000), %g1
    595c:	82 10 60 28 	or  %g1, 0x28, %g1	! 40000028 <__sparc_get_pc_thunk.l7+0x3fff73d4>
    5960:	c8 08 80 00 	ldub  [ %g2 ], %g4
    5964:	9e 09 20 ff 	and  %g4, 0xff, %o7
    5968:	88 09 20 0f 	and  %g4, 0xf, %g4
    596c:	c8 08 40 04 	ldub  [ %g1 + %g4 ], %g4
    5970:	86 10 20 3a 	mov  0x3a, %g3
    5974:	c8 2f bb b1 	stb  %g4, [ %fp + -1103 ]
    5978:	c6 2f bb b2 	stb  %g3, [ %fp + -1102 ]
    597c:	9f 33 e0 04 	srl  %o7, 4, %o7
    5980:	de 08 40 0f 	ldub  [ %g1 + %o7 ], %o7
    5984:	de 2f bb b0 	stb  %o7, [ %fp + -1104 ]
    5988:	c8 08 a0 01 	ldub  [ %g2 + 1 ], %g4
    598c:	98 09 20 ff 	and  %g4, 0xff, %o4
    5990:	88 09 20 0f 	and  %g4, 0xf, %g4
    5994:	99 33 20 04 	srl  %o4, 4, %o4
    5998:	de 08 40 04 	ldub  [ %g1 + %g4 ], %o7
    599c:	c8 08 40 0c 	ldub  [ %g1 + %o4 ], %g4
    59a0:	c6 2f bb b5 	stb  %g3, [ %fp + -1099 ]
    59a4:	de 2f bb b4 	stb  %o7, [ %fp + -1100 ]
    59a8:	c8 2f bb b3 	stb  %g4, [ %fp + -1101 ]
    59ac:	c8 08 a0 02 	ldub  [ %g2 + 2 ], %g4
    59b0:	98 09 20 ff 	and  %g4, 0xff, %o4
    59b4:	88 09 20 0f 	and  %g4, 0xf, %g4
    59b8:	99 33 20 04 	srl  %o4, 4, %o4
    59bc:	de 08 40 04 	ldub  [ %g1 + %g4 ], %o7
    59c0:	c8 08 40 0c 	ldub  [ %g1 + %o4 ], %g4
    59c4:	c6 2f bb b8 	stb  %g3, [ %fp + -1096 ]
    59c8:	de 2f bb b7 	stb  %o7, [ %fp + -1097 ]
    59cc:	c8 2f bb b6 	stb  %g4, [ %fp + -1098 ]
    59d0:	c8 08 a0 03 	ldub  [ %g2 + 3 ], %g4
    59d4:	98 09 20 ff 	and  %g4, 0xff, %o4
    59d8:	88 09 20 0f 	and  %g4, 0xf, %g4
    59dc:	99 33 20 04 	srl  %o4, 4, %o4
    59e0:	de 08 40 04 	ldub  [ %g1 + %g4 ], %o7
    59e4:	c8 08 40 0c 	ldub  [ %g1 + %o4 ], %g4
    59e8:	c6 2f bb bb 	stb  %g3, [ %fp + -1093 ]
    59ec:	de 2f bb ba 	stb  %o7, [ %fp + -1094 ]
    59f0:	c8 2f bb b9 	stb  %g4, [ %fp + -1095 ]
    59f4:	c8 08 a0 04 	ldub  [ %g2 + 4 ], %g4
    59f8:	c6 2f bb be 	stb  %g3, [ %fp + -1090 ]
    59fc:	86 09 20 ff 	and  %g4, 0xff, %g3
    5a00:	87 30 e0 04 	srl  %g3, 4, %g3
    5a04:	c6 08 40 03 	ldub  [ %g1 + %g3 ], %g3
    5a08:	88 09 20 0f 	and  %g4, 0xf, %g4
    5a0c:	c6 2f bb bc 	stb  %g3, [ %fp + -1092 ]
    5a10:	c8 08 40 04 	ldub  [ %g1 + %g4 ], %g4
    5a14:	c8 2f bb bd 	stb  %g4, [ %fp + -1091 ]
    5a18:	c4 08 a0 05 	ldub  [ %g2 + 5 ], %g2
    5a1c:	86 08 a0 ff 	and  %g2, 0xff, %g3
    5a20:	87 30 e0 04 	srl  %g3, 4, %g3
    5a24:	c6 08 40 03 	ldub  [ %g1 + %g3 ], %g3
    5a28:	c6 2f bb bf 	stb  %g3, [ %fp + -1089 ]
    5a2c:	84 08 a0 0f 	and  %g2, 0xf, %g2
    5a30:	80 8b 60 10 	btst  0x10, %o5
    5a34:	c2 08 40 02 	ldub  [ %g1 + %g2 ], %g1
    5a38:	12 80 00 36 	bne  5b10 <ee_printf+0x1444>
    5a3c:	c2 2f bb c0 	stb  %g1, [ %fp + -1088 ]
    5a40:	80 a7 20 11 	cmp  %i4, 0x11
    5a44:	04 80 01 77 	ble  6020 <ee_printf+0x1954>
    5a48:	88 07 3f ff 	add  %i4, -1, %g4
    5a4c:	b8 07 3f ef 	add  %i4, -17, %i4
    5a50:	82 20 00 1d 	neg  %i5, %g1
    5a54:	82 08 60 03 	and  %g1, 3, %g1
    5a58:	80 a7 00 01 	cmp  %i4, %g1
    5a5c:	18 80 00 ea 	bgu  5e04 <ee_printf+0x1738>
    5a60:	86 10 00 1c 	mov  %i4, %g3
    5a64:	80 a7 20 03 	cmp  %i4, 3
    5a68:	28 80 00 02 	bleu,a   5a70 <ee_printf+0x13a4>
    5a6c:	86 10 00 1c 	mov  %i4, %g3
    5a70:	80 a0 e0 00 	cmp  %g3, 0
    5a74:	02 80 00 0c 	be  5aa4 <ee_printf+0x13d8>
    5a78:	82 10 00 1d 	mov  %i5, %g1
    5a7c:	9e 10 20 20 	mov  0x20, %o7
    5a80:	de 28 40 00 	stb  %o7, [ %g1 ]
    5a84:	82 00 60 01 	inc  %g1
    5a88:	84 20 40 1d 	sub  %g1, %i5, %g2
    5a8c:	80 a0 c0 02 	cmp  %g3, %g2
    5a90:	18 bf ff fc 	bgu  5a80 <ee_printf+0x13b4>
    5a94:	88 01 3f ff 	add  %g4, -1, %g4
    5a98:	80 a7 00 03 	cmp  %i4, %g3
    5a9c:	22 80 00 1c 	be,a   5b0c <ee_printf+0x1440>
    5aa0:	ba 07 40 1c 	add  %i5, %i4, %i5
    5aa4:	98 27 00 03 	sub  %i4, %g3, %o4
    5aa8:	9f 33 20 02 	srl  %o4, 2, %o7
    5aac:	9b 2b e0 02 	sll  %o7, 2, %o5
    5ab0:	80 a3 60 00 	cmp  %o5, 0
    5ab4:	02 80 00 0c 	be  5ae4 <ee_printf+0x1418>
    5ab8:	86 07 40 03 	add  %i5, %g3, %g3
    5abc:	84 10 20 00 	clr  %g2
    5ac0:	e2 20 c0 00 	st  %l1, [ %g3 ]
    5ac4:	84 00 a0 01 	inc  %g2
    5ac8:	80 a0 80 0f 	cmp  %g2, %o7
    5acc:	0a bf ff fd 	bcs  5ac0 <ee_printf+0x13f4>
    5ad0:	86 00 e0 04 	add  %g3, 4, %g3
    5ad4:	82 00 40 0d 	add  %g1, %o5, %g1
    5ad8:	80 a3 00 0d 	cmp  %o4, %o5
    5adc:	02 80 00 0b 	be  5b08 <ee_printf+0x143c>
    5ae0:	88 21 00 0d 	sub  %g4, %o5, %g4
    5ae4:	84 10 20 00 	clr  %g2
    5ae8:	88 01 20 01 	inc  %g4
    5aec:	9e 10 20 20 	mov  0x20, %o7
    5af0:	de 28 40 02 	stb  %o7, [ %g1 + %g2 ]
    5af4:	84 00 a0 01 	inc  %g2
    5af8:	86 21 00 02 	sub  %g4, %g2, %g3
    5afc:	80 a0 e0 11 	cmp  %g3, 0x11
    5b00:	34 bf ff fd 	bg,a   5af4 <ee_printf+0x1428>
    5b04:	de 28 40 02 	stb  %o7, [ %g1 + %g2 ]
    5b08:	ba 07 40 1c 	add  %i5, %i4, %i5
    5b0c:	b8 10 20 10 	mov  0x10, %i4
    5b10:	80 8f 60 03 	btst  3, %i5
    5b14:	12 80 01 5f 	bne  6090 <ee_printf+0x19c4>
    5b18:	c2 07 bb b0 	ld  [ %fp + -1104 ], %g1
    5b1c:	c2 27 40 00 	st  %g1, [ %i5 ]
    5b20:	c2 07 bb b4 	ld  [ %fp + -1100 ], %g1
    5b24:	c2 27 60 04 	st  %g1, [ %i5 + 4 ]
    5b28:	c2 07 bb b8 	ld  [ %fp + -1096 ], %g1
    5b2c:	86 07 60 10 	add  %i5, 0x10, %g3
    5b30:	c2 27 60 08 	st  %g1, [ %i5 + 8 ]
    5b34:	9e 10 20 01 	mov  1, %o7
    5b38:	c2 07 bb bc 	ld  [ %fp + -1092 ], %g1
    5b3c:	84 10 20 10 	mov  0x10, %g2
    5b40:	c2 27 60 0c 	st  %g1, [ %i5 + 0xc ]
    5b44:	82 10 00 02 	mov  %g2, %g1
    5b48:	9e 00 80 0f 	add  %g2, %o7, %o7
    5b4c:	86 20 c0 02 	sub  %g3, %g2, %g3
    5b50:	88 07 bb b0 	add  %fp, -1104, %g4
    5b54:	c4 09 00 01 	ldub  [ %g4 + %g1 ], %g2
    5b58:	c4 28 c0 01 	stb  %g2, [ %g3 + %g1 ]
    5b5c:	82 00 60 01 	inc  %g1
    5b60:	80 a0 40 0f 	cmp  %g1, %o7
    5b64:	32 bf ff fd 	bne,a   5b58 <ee_printf+0x148c>
    5b68:	c4 09 00 01 	ldub  [ %g4 + %g1 ], %g2
    5b6c:	98 07 60 11 	add  %i5, 0x11, %o4
    5b70:	80 a7 20 11 	cmp  %i4, 0x11
    5b74:	04 80 01 26 	ble  600c <ee_printf+0x1940>
    5b78:	86 07 3f ff 	add  %i4, -1, %g3
    5b7c:	b8 07 3f ef 	add  %i4, -17, %i4
    5b80:	88 20 00 0c 	neg  %o4, %g4
    5b84:	88 09 20 03 	and  %g4, 3, %g4
    5b88:	80 a1 00 1c 	cmp  %g4, %i4
    5b8c:	38 80 00 02 	bgu,a   5b94 <ee_printf+0x14c8>
    5b90:	88 10 00 1c 	mov  %i4, %g4
    5b94:	80 a7 20 03 	cmp  %i4, 3
    5b98:	28 80 00 02 	bleu,a   5ba0 <ee_printf+0x14d4>
    5b9c:	88 10 00 1c 	mov  %i4, %g4
    5ba0:	80 a1 20 00 	cmp  %g4, 0
    5ba4:	02 80 00 0e 	be  5bdc <ee_printf+0x1510>
    5ba8:	82 10 00 0c 	mov  %o4, %g1
    5bac:	9e 10 3f ef 	mov  -17, %o7
    5bb0:	9a 10 20 20 	mov  0x20, %o5
    5bb4:	9e 23 c0 1d 	sub  %o7, %i5, %o7
    5bb8:	da 28 40 00 	stb  %o5, [ %g1 ]
    5bbc:	82 00 60 01 	inc  %g1
    5bc0:	84 00 40 0f 	add  %g1, %o7, %g2
    5bc4:	80 a1 00 02 	cmp  %g4, %g2
    5bc8:	18 bf ff fc 	bgu  5bb8 <ee_printf+0x14ec>
    5bcc:	86 00 ff ff 	add  %g3, -1, %g3
    5bd0:	80 a7 00 04 	cmp  %i4, %g4
    5bd4:	22 80 00 1d 	be,a   5c48 <ee_printf+0x157c>
    5bd8:	ba 03 00 1c 	add  %o4, %i4, %i5
    5bdc:	96 27 00 04 	sub  %i4, %g4, %o3
    5be0:	9f 32 e0 02 	srl  %o3, 2, %o7
    5be4:	9b 2b e0 02 	sll  %o7, 2, %o5
    5be8:	80 a3 60 00 	cmp  %o5, 0
    5bec:	02 80 00 0d 	be  5c20 <ee_printf+0x1554>
    5bf0:	88 01 20 11 	add  %g4, 0x11, %g4
    5bf4:	84 10 20 00 	clr  %g2
    5bf8:	ba 07 40 04 	add  %i5, %g4, %i5
    5bfc:	e2 27 40 00 	st  %l1, [ %i5 ]
    5c00:	84 00 a0 01 	inc  %g2
    5c04:	80 a0 80 0f 	cmp  %g2, %o7
    5c08:	0a bf ff fd 	bcs  5bfc <ee_printf+0x1530>
    5c0c:	ba 07 60 04 	add  %i5, 4, %i5
    5c10:	82 00 40 0d 	add  %g1, %o5, %g1
    5c14:	80 a2 c0 0d 	cmp  %o3, %o5
    5c18:	02 80 00 0b 	be  5c44 <ee_printf+0x1578>
    5c1c:	86 20 c0 0d 	sub  %g3, %o5, %g3
    5c20:	84 10 20 00 	clr  %g2
    5c24:	86 00 e0 01 	inc  %g3
    5c28:	ba 10 20 20 	mov  0x20, %i5
    5c2c:	fa 28 40 02 	stb  %i5, [ %g1 + %g2 ]
    5c30:	84 00 a0 01 	inc  %g2
    5c34:	88 20 c0 02 	sub  %g3, %g2, %g4
    5c38:	80 a1 20 11 	cmp  %g4, 0x11
    5c3c:	34 bf ff fd 	bg,a   5c30 <ee_printf+0x1564>
    5c40:	fa 28 40 02 	stb  %i5, [ %g1 + %g2 ]
    5c44:	ba 03 00 1c 	add  %o4, %i4, %i5
    5c48:	10 bf fa ba 	b  4730 <ee_printf+0x64>
    5c4c:	c4 0e 20 01 	ldub  [ %i0 + 1 ], %g2
    5c50:	e6 04 80 00 	ld  [ %l2 ], %l3
    5c54:	84 06 20 02 	add  %i0, 2, %g2
    5c58:	a4 04 a0 04 	add  %l2, 4, %l2
    5c5c:	80 a4 e0 00 	cmp  %l3, 0
    5c60:	16 bf fb 4a 	bge  4988 <ee_printf+0x2bc>
    5c64:	c2 0e 20 02 	ldub  [ %i0 + 2 ], %g1
    5c68:	a6 10 20 00 	clr  %l3
    5c6c:	10 bf fa da 	b  47d4 <ee_printf+0x108>
    5c70:	b0 10 00 02 	mov  %g2, %i0
    5c74:	34 80 00 3b 	bg,a   5d60 <ee_printf+0x1694>
    5c78:	9e 07 80 0f 	add  %fp, %o7, %o7
    5c7c:	03 10 00 00 	sethi  %hi(0x40000000), %g1
    5c80:	10 bf fb c5 	b  4b94 <ee_printf+0x4c8>
    5c84:	82 10 60 00 	mov  %g1, %g1	! 40000000 <__sparc_get_pc_thunk.l7+0x3fff73ac>
    5c88:	34 80 00 26 	bg,a   5d20 <ee_printf+0x1654>
    5c8c:	88 07 80 04 	add  %fp, %g4, %g4
    5c90:	03 10 00 00 	sethi  %hi(0x40000000), %g1
    5c94:	10 bf fb 98 	b  4af4 <ee_printf+0x428>
    5c98:	82 10 60 00 	mov  %g1, %g1	! 40000000 <__sparc_get_pc_thunk.l7+0x3fff73ac>
    5c9c:	34 80 00 41 	bg,a   5da0 <ee_printf+0x16d4>
    5ca0:	98 07 80 0c 	add  %fp, %o4, %o4
    5ca4:	03 10 00 00 	sethi  %hi(0x40000000), %g1
    5ca8:	10 bf fb e3 	b  4c34 <ee_printf+0x568>
    5cac:	82 10 60 00 	mov  %g1, %g1	! 40000000 <__sparc_get_pc_thunk.l7+0x3fff73ac>
    5cb0:	24 80 00 4c 	ble,a   5de0 <ee_printf+0x1714>
    5cb4:	03 10 00 00 	sethi  %hi(0x40000000), %g1
    5cb8:	83 38 e0 1f 	sra  %g3, 0x1f, %g1
    5cbc:	81 80 60 00 	mov  %g1, %y
    5cc0:	01 00 00 00 	nop 
    5cc4:	01 00 00 00 	nop 
    5cc8:	01 00 00 00 	nop 
    5ccc:	88 78 e0 0a 	sdiv  %g3, 0xa, %g4
    5cd0:	03 10 00 00 	sethi  %hi(0x40000000), %g1
    5cd4:	99 29 20 03 	sll  %g4, 3, %o4
    5cd8:	96 01 00 04 	add  %g4, %g4, %o3
    5cdc:	82 10 60 00 	mov  %g1, %g1
    5ce0:	de 08 40 04 	ldub  [ %g1 + %g4 ], %o7
    5ce4:	88 02 c0 0c 	add  %o3, %o4, %g4
    5ce8:	de 2f bb b0 	stb  %o7, [ %fp + -1104 ]
    5cec:	86 20 c0 04 	sub  %g3, %g4, %g3
    5cf0:	9e 10 20 02 	mov  2, %o7
    5cf4:	88 10 20 03 	mov  3, %g4
    5cf8:	10 bf fb 58 	b  4a58 <ee_printf+0x38c>
    5cfc:	98 10 20 01 	mov  1, %o4
    5d00:	03 10 00 00 	sethi  %hi(0x40000000), %g1
    5d04:	10 bf ff 17 	b  5960 <ee_printf+0x1294>
    5d08:	82 10 60 00 	mov  %g1, %g1	! 40000000 <__sparc_get_pc_thunk.l7+0x3fff73ac>
    5d0c:	02 bf fd 3b 	be  51f8 <ee_printf+0xb2c>
    5d10:	ac 10 20 00 	clr  %l6
    5d14:	b8 07 3f ff 	add  %i4, -1, %i4
    5d18:	10 bf fd 38 	b  51f8 <ee_printf+0xb2c>
    5d1c:	ac 10 20 20 	mov  0x20, %l6
    5d20:	83 38 e0 1f 	sra  %g3, 0x1f, %g1
    5d24:	81 80 60 00 	mov  %g1, %y
    5d28:	01 00 00 00 	nop 
    5d2c:	01 00 00 00 	nop 
    5d30:	01 00 00 00 	nop 
    5d34:	98 78 e0 0a 	sdiv  %g3, 0xa, %o4
    5d38:	03 10 00 00 	sethi  %hi(0x40000000), %g1
    5d3c:	92 03 00 0c 	add  %o4, %o4, %o1
    5d40:	82 10 60 00 	mov  %g1, %g1
    5d44:	95 2b 20 03 	sll  %o4, 3, %o2
    5d48:	d6 08 40 0c 	ldub  [ %g1 + %o4 ], %o3
    5d4c:	98 02 40 0a 	add  %o1, %o2, %o4
    5d50:	d6 29 3b b0 	stb  %o3, [ %g4 + -1104 ]
    5d54:	86 20 c0 0c 	sub  %g3, %o4, %g3
    5d58:	10 bf fb 67 	b  4af4 <ee_printf+0x428>
    5d5c:	88 03 e0 02 	add  %o7, 2, %g4
    5d60:	83 38 e0 1f 	sra  %g3, 0x1f, %g1
    5d64:	81 80 60 00 	mov  %g1, %y
    5d68:	01 00 00 00 	nop 
    5d6c:	01 00 00 00 	nop 
    5d70:	01 00 00 00 	nop 
    5d74:	98 78 e0 0a 	sdiv  %g3, 0xa, %o4
    5d78:	03 10 00 00 	sethi  %hi(0x40000000), %g1
    5d7c:	92 03 00 0c 	add  %o4, %o4, %o1
    5d80:	82 10 60 00 	mov  %g1, %g1
    5d84:	95 2b 20 03 	sll  %o4, 3, %o2
    5d88:	d6 08 40 0c 	ldub  [ %g1 + %o4 ], %o3
    5d8c:	98 02 40 0a 	add  %o1, %o2, %o4
    5d90:	d6 2b fb b0 	stb  %o3, [ %o7 + -1104 ]
    5d94:	86 20 c0 0c 	sub  %g3, %o4, %g3
    5d98:	10 bf fb 7f 	b  4b94 <ee_printf+0x4c8>
    5d9c:	9e 01 20 02 	add  %g4, 2, %o7
    5da0:	9f 38 a0 1f 	sra  %g2, 0x1f, %o7
    5da4:	81 83 e0 00 	mov  %o7, %y
    5da8:	01 00 00 00 	nop 
    5dac:	01 00 00 00 	nop 
    5db0:	01 00 00 00 	nop 
    5db4:	88 78 a0 0a 	sdiv  %g2, 0xa, %g4
    5db8:	03 10 00 00 	sethi  %hi(0x40000000), %g1
    5dbc:	94 01 00 04 	add  %g4, %g4, %o2
    5dc0:	82 10 60 00 	mov  %g1, %g1
    5dc4:	97 29 20 03 	sll  %g4, 3, %o3
    5dc8:	de 08 40 04 	ldub  [ %g1 + %g4 ], %o7
    5dcc:	88 02 80 0b 	add  %o2, %o3, %g4
    5dd0:	de 2b 3b b0 	stb  %o7, [ %o4 + -1104 ]
    5dd4:	84 20 80 04 	sub  %g2, %g4, %g2
    5dd8:	10 bf fb 97 	b  4c34 <ee_printf+0x568>
    5ddc:	98 00 e0 02 	add  %g3, 2, %o4
    5de0:	88 10 20 02 	mov  2, %g4
    5de4:	9e 10 20 01 	mov  1, %o7
    5de8:	98 10 20 00 	clr  %o4
    5dec:	10 bf fb 1b 	b  4a58 <ee_printf+0x38c>
    5df0:	82 10 60 00 	mov  %g1, %g1
    5df4:	91 a0 00 a8 	fnegs  %f8, %f8
    5df8:	b8 07 3f ff 	add  %i4, -1, %i4
    5dfc:	10 bf fc ff 	b  51f8 <ee_printf+0xb2c>
    5e00:	ac 10 20 2d 	mov  0x2d, %l6
    5e04:	10 bf ff 18 	b  5a64 <ee_printf+0x1398>
    5e08:	86 10 00 01 	mov  %g1, %g3
    5e0c:	c6 07 bb 50 	ld  [ %fp + -1200 ], %g3
    5e10:	84 10 00 08 	mov  %o0, %g2
    5e14:	80 a0 e0 00 	cmp  %g3, 0
    5e18:	14 80 00 0b 	bg  5e44 <ee_printf+0x1778>
    5e1c:	9e 10 20 2e 	mov  0x2e, %o7
    5e20:	10 80 00 10 	b  5e60 <ee_printf+0x1794>
    5e24:	84 10 20 30 	mov  0x30, %g2
    5e28:	da 28 40 00 	stb  %o5, [ %g1 ]
    5e2c:	84 00 a0 01 	inc  %g2
    5e30:	82 00 60 01 	inc  %g1
    5e34:	c8 48 80 00 	ldsb  [ %g2 ], %g4
    5e38:	80 a1 20 00 	cmp  %g4, 0
    5e3c:	02 80 00 43 	be  5f48 <ee_printf+0x187c>
    5e40:	da 08 80 00 	ldub  [ %g2 ], %o5
    5e44:	88 20 80 08 	sub  %g2, %o0, %g4
    5e48:	80 a0 c0 04 	cmp  %g3, %g4
    5e4c:	32 bf ff f8 	bne,a   5e2c <ee_printf+0x1760>
    5e50:	da 28 40 00 	stb  %o5, [ %g1 ]
    5e54:	de 28 40 00 	stb  %o7, [ %g1 ]
    5e58:	10 bf ff f4 	b  5e28 <ee_printf+0x175c>
    5e5c:	82 00 60 01 	inc  %g1
    5e60:	c4 28 40 00 	stb  %g2, [ %g1 ]
    5e64:	84 10 20 2e 	mov  0x2e, %g2
    5e68:	c4 28 60 01 	stb  %g2, [ %g1 + 1 ]
    5e6c:	84 a0 00 03 	subcc  %g0, %g3, %g2
    5e70:	02 80 00 2f 	be  5f2c <ee_printf+0x1860>
    5e74:	82 00 60 02 	add  %g1, 2, %g1
    5e78:	86 20 00 01 	neg  %g1, %g3
    5e7c:	86 08 e0 03 	and  %g3, 3, %g3
    5e80:	80 a0 c0 02 	cmp  %g3, %g2
    5e84:	38 80 00 02 	bgu,a   5e8c <ee_printf+0x17c0>
    5e88:	86 10 00 02 	mov  %g2, %g3
    5e8c:	80 a0 a0 03 	cmp  %g2, 3
    5e90:	28 80 00 02 	bleu,a   5e98 <ee_printf+0x17cc>
    5e94:	86 10 00 02 	mov  %g2, %g3
    5e98:	88 10 00 01 	mov  %g1, %g4
    5e9c:	80 a0 e0 00 	cmp  %g3, 0
    5ea0:	02 80 00 0b 	be  5ecc <ee_printf+0x1800>
    5ea4:	9e 10 20 00 	clr  %o7
    5ea8:	98 10 20 30 	mov  0x30, %o4
    5eac:	d8 29 00 00 	stb  %o4, [ %g4 ]
    5eb0:	9e 03 e0 01 	inc  %o7
    5eb4:	80 a0 c0 0f 	cmp  %g3, %o7
    5eb8:	18 bf ff fd 	bgu  5eac <ee_printf+0x17e0>
    5ebc:	88 01 20 01 	inc  %g4
    5ec0:	80 a0 80 03 	cmp  %g2, %g3
    5ec4:	22 80 00 1a 	be,a   5f2c <ee_printf+0x1860>
    5ec8:	82 00 40 02 	add  %g1, %g2, %g1
    5ecc:	94 20 80 03 	sub  %g2, %g3, %o2
    5ed0:	93 32 a0 02 	srl  %o2, 2, %o1
    5ed4:	99 2a 60 02 	sll  %o1, 2, %o4
    5ed8:	80 a3 20 00 	cmp  %o4, 0
    5edc:	02 80 00 0c 	be  5f0c <ee_printf+0x1840>
    5ee0:	86 00 40 03 	add  %g1, %g3, %g3
    5ee4:	96 10 20 00 	clr  %o3
    5ee8:	f4 20 c0 00 	st  %i2, [ %g3 ]
    5eec:	96 02 e0 01 	inc  %o3
    5ef0:	80 a2 c0 09 	cmp  %o3, %o1
    5ef4:	0a bf ff fd 	bcs  5ee8 <ee_printf+0x181c>
    5ef8:	86 00 e0 04 	add  %g3, 4, %g3
    5efc:	88 01 00 0c 	add  %g4, %o4, %g4
    5f00:	80 a2 80 0c 	cmp  %o2, %o4
    5f04:	02 80 00 09 	be  5f28 <ee_printf+0x185c>
    5f08:	9e 03 c0 0c 	add  %o7, %o4, %o7
    5f0c:	86 10 20 30 	mov  0x30, %g3
    5f10:	88 21 00 0f 	sub  %g4, %o7, %g4
    5f14:	c6 29 00 0f 	stb  %g3, [ %g4 + %o7 ]
    5f18:	9e 03 e0 01 	inc  %o7
    5f1c:	80 a0 80 0f 	cmp  %g2, %o7
    5f20:	34 bf ff fe 	bg,a   5f18 <ee_printf+0x184c>
    5f24:	c6 29 00 0f 	stb  %g3, [ %g4 + %o7 ]
    5f28:	82 00 40 02 	add  %g1, %g2, %g1
    5f2c:	da 28 40 00 	stb  %o5, [ %g1 ]
    5f30:	90 02 20 01 	inc  %o0
    5f34:	82 00 60 01 	inc  %g1
    5f38:	c4 4a 00 00 	ldsb  [ %o0 ], %g2
    5f3c:	80 a0 a0 00 	cmp  %g2, 0
    5f40:	12 bf ff fb 	bne  5f2c <ee_printf+0x1860>
    5f44:	da 0a 00 00 	ldub  [ %o0 ], %o5
    5f48:	80 8d 60 20 	btst  0x20, %l5
    5f4c:	02 bf fc f7 	be  5328 <ee_printf+0xc5c>
    5f50:	c0 28 40 00 	clrb  [ %g1 ]
    5f54:	80 a4 e0 00 	cmp  %l3, 0
    5f58:	12 bf fc f5 	bne  532c <ee_printf+0xc60>
    5f5c:	c2 0f bb 60 	ldub  [ %fp + -1184 ], %g1
    5f60:	c2 4f bb 60 	ldsb  [ %fp + -1184 ], %g1
    5f64:	80 a0 60 00 	cmp  %g1, 0
    5f68:	02 80 00 4e 	be  60a0 <ee_printf+0x19d4>
    5f6c:	c4 0f bb 60 	ldub  [ %fp + -1184 ], %g2
    5f70:	80 a0 60 2e 	cmp  %g1, 0x2e
    5f74:	02 bf fc f2 	be  533c <ee_printf+0xc70>
    5f78:	82 08 bf df 	and  %g2, -33, %g1
    5f7c:	83 28 60 18 	sll  %g1, 0x18, %g1
    5f80:	83 38 60 18 	sra  %g1, 0x18, %g1
    5f84:	80 a0 60 45 	cmp  %g1, 0x45
    5f88:	02 80 00 28 	be  6028 <ee_printf+0x195c>
    5f8c:	84 07 bb 60 	add  %fp, -1184, %g2
    5f90:	10 80 00 0b 	b  5fbc <ee_printf+0x18f0>
    5f94:	82 07 bb 61 	add  %fp, -1183, %g1
    5f98:	80 a0 e0 2e 	cmp  %g3, 0x2e
    5f9c:	22 bf fc e9 	be,a   5340 <ee_printf+0xc74>
    5fa0:	88 07 bb 60 	add  %fp, -1184, %g4
    5fa4:	86 09 3f df 	and  %g4, -33, %g3
    5fa8:	87 28 e0 18 	sll  %g3, 0x18, %g3
    5fac:	87 38 e0 18 	sra  %g3, 0x18, %g3
    5fb0:	80 a0 e0 45 	cmp  %g3, 0x45
    5fb4:	02 80 00 1d 	be  6028 <ee_printf+0x195c>
    5fb8:	82 00 60 01 	inc  %g1
    5fbc:	c6 48 40 00 	ldsb  [ %g1 ], %g3
    5fc0:	84 10 00 01 	mov  %g1, %g2
    5fc4:	80 a0 e0 00 	cmp  %g3, 0
    5fc8:	12 bf ff f4 	bne  5f98 <ee_printf+0x18cc>
    5fcc:	c8 08 40 00 	ldub  [ %g1 ], %g4
    5fd0:	c0 28 a0 01 	clrb  [ %g2 + 1 ]
    5fd4:	82 10 20 2e 	mov  0x2e, %g1
    5fd8:	10 bf fc d4 	b  5328 <ee_printf+0xc5c>
    5fdc:	c2 28 80 00 	stb  %g1, [ %g2 ]
    5fe0:	09 10 00 00 	sethi  %hi(0x40000000), %g4
    5fe4:	10 bf fb b1 	b  4ea8 <ee_printf+0x7dc>
    5fe8:	88 11 20 50 	or  %g4, 0x50, %g4	! 40000050 <__sparc_get_pc_thunk.l7+0x3fff73fc>
    5fec:	10 bf fb 4e 	b  4d24 <ee_printf+0x658>
    5ff0:	b8 10 00 04 	mov  %g4, %i4
    5ff4:	10 bf fb bd 	b  4ee8 <ee_printf+0x81c>
    5ff8:	86 10 20 00 	clr  %g3
    5ffc:	10 bf fd 13 	b  5448 <ee_printf+0xd7c>
    6000:	b8 10 00 04 	mov  %g4, %i4
    6004:	10 bf fb f1 	b  4fc8 <ee_printf+0x8fc>
    6008:	b8 10 00 0d 	mov  %o5, %i4
    600c:	ba 10 00 0c 	mov  %o4, %i5
    6010:	10 bf f9 c8 	b  4730 <ee_printf+0x64>
    6014:	c4 0e 20 01 	ldub  [ %i0 + 1 ], %g2
    6018:	10 bf fd 4d 	b  554c <ee_printf+0xe80>
    601c:	b8 10 00 04 	mov  %g4, %i4
    6020:	10 bf fe bc 	b  5b10 <ee_printf+0x1444>
    6024:	b8 10 00 04 	mov  %g4, %i4
    6028:	88 00 a1 00 	add  %g2, 0x100, %g4
    602c:	10 80 00 04 	b  603c <ee_printf+0x1970>
    6030:	82 10 00 02 	mov  %g2, %g1
    6034:	22 80 00 08 	be,a   6054 <ee_printf+0x1988>
    6038:	82 20 40 02 	sub  %g1, %g2, %g1
    603c:	82 00 60 01 	inc  %g1
    6040:	c6 48 40 00 	ldsb  [ %g1 ], %g3
    6044:	80 a0 e0 00 	cmp  %g3, 0
    6048:	12 bf ff fb 	bne  6034 <ee_printf+0x1968>
    604c:	80 a0 40 04 	cmp  %g1, %g4
    6050:	82 20 40 02 	sub  %g1, %g2, %g1
    6054:	80 a0 60 00 	cmp  %g1, 0
    6058:	24 bf ff e0 	ble,a   5fd8 <ee_printf+0x190c>
    605c:	82 10 20 2e 	mov  0x2e, %g1
    6060:	c8 08 80 01 	ldub  [ %g2 + %g1 ], %g4
    6064:	86 00 80 01 	add  %g2, %g1, %g3
    6068:	82 80 7f ff 	addcc  %g1, -1, %g1
    606c:	12 bf ff fd 	bne  6060 <ee_printf+0x1994>
    6070:	c8 28 e0 01 	stb  %g4, [ %g3 + 1 ]
    6074:	82 10 20 2e 	mov  0x2e, %g1
    6078:	10 bf fc ac 	b  5328 <ee_printf+0xc5c>
    607c:	c2 28 80 00 	stb  %g1, [ %g2 ]
    6080:	86 10 00 1d 	mov  %i5, %g3
    6084:	82 10 20 00 	clr  %g1
    6088:	10 bf fb 3c 	b  4d78 <ee_printf+0x6ac>
    608c:	88 07 bb b0 	add  %fp, -1104, %g4
    6090:	86 10 00 1d 	mov  %i5, %g3
    6094:	9e 10 20 11 	mov  0x11, %o7
    6098:	10 bf fe ab 	b  5b44 <ee_printf+0x1478>
    609c:	84 10 20 00 	clr  %g2
    60a0:	84 07 bb 60 	add  %fp, -1184, %g2
    60a4:	10 bf ff cc 	b  5fd4 <ee_printf+0x1908>
    60a8:	c0 28 a0 01 	clrb  [ %g2 + 1 ]
    60ac:	86 10 00 1d 	mov  %i5, %g3
    60b0:	82 10 20 00 	clr  %g1
    60b4:	10 bf fd 42 	b  55bc <ee_printf+0xef0>
    60b8:	88 07 bb 60 	add  %fp, -1184, %g4
    60bc:	98 10 00 1d 	mov  %i5, %o4
    60c0:	10 bf fb e6 	b  5058 <ee_printf+0x98c>
    60c4:	82 10 20 00 	clr  %g1
    60c8:	10 bf fc 6a 	b  5270 <ee_printf+0xba4>
    60cc:	88 10 20 01 	mov  1, %g4
    60d0:	80 8d 60 20 	btst  0x20, %l5
    60d4:	12 bf ff a3 	bne  5f60 <ee_printf+0x1894>
    60d8:	c0 28 60 01 	clrb  [ %g1 + 1 ]
    60dc:	10 bf fc 94 	b  532c <ee_printf+0xc60>
    60e0:	c2 0f bb 60 	ldub  [ %fp + -1184 ], %g1

000060e4 <cvt>:
    60e4:	9d e3 bf 90 	save  %sp, -112, %sp
    60e8:	f0 3f bf f8 	std  %i0, [ %fp + -8 ]
    60ec:	da 07 a0 5c 	ld  [ %fp + 0x5c ], %o5
    60f0:	d5 1f bf f8 	ldd  [ %fp + -8 ], %f10
    60f4:	80 a6 a0 00 	cmp  %i2, 0
    60f8:	06 80 00 05 	bl  610c <cvt+0x28>
    60fc:	9e 10 20 00 	clr  %o7
    6100:	80 a6 a0 4e 	cmp  %i2, 0x4e
    6104:	04 80 00 de 	ble  647c <cvt+0x398>
    6108:	9e 10 20 4e 	mov  0x4e, %o7
    610c:	05 10 00 00 	sethi  %hi(0x40000000), %g2
    6110:	d1 18 a0 58 	ldd  [ %g2 + 0x58 ], %f8	! 40000058 <__sparc_get_pc_thunk.l7+0x3fff7404>
    6114:	81 aa 8a c8 	fcmped  %f10, %f8
    6118:	01 00 00 00 	nop 
    611c:	09 80 00 d2 	fbl  6464 <cvt+0x380>
    6120:	82 10 20 01 	mov  1, %g1	! 1 <_start+0x1>
    6124:	c0 27 00 00 	clr  [ %i4 ]
    6128:	91 a0 1a 4a 	fdtoi  %f10, %f8
    612c:	d9 18 a0 58 	ldd  [ %g2 + 0x58 ], %f12
    6130:	91 a0 19 08 	fitod  %f8, %f8
    6134:	81 aa 0a 4c 	fcmpd  %f8, %f12
    6138:	01 00 00 00 	nop 
    613c:	13 80 00 8a 	fbe  6364 <cvt+0x280>
    6140:	95 a2 88 c8 	fsubd  %f10, %f8, %f10
    6144:	05 10 00 00 	sethi  %hi(0x40000000), %g2
    6148:	b2 07 60 50 	add  %i5, 0x50, %i1
    614c:	07 10 00 00 	sethi  %hi(0x40000000), %g3
    6150:	e5 18 a0 68 	ldd  [ %g2 + 0x68 ], %f18
    6154:	82 10 00 19 	mov  %i1, %g1
    6158:	05 10 00 00 	sethi  %hi(0x40000000), %g2
    615c:	88 10 20 00 	clr  %g4
    6160:	dd 18 e0 60 	ldd  [ %g3 + 0x60 ], %f14
    6164:	e1 18 a0 58 	ldd  [ %g2 + 0x58 ], %f16
    6168:	99 a2 09 ce 	fdivd  %f8, %f14, %f12
    616c:	91 a0 1a 4c 	fdtoi  %f12, %f8
    6170:	91 a0 19 08 	fitod  %f8, %f8
    6174:	99 a3 08 c8 	fsubd  %f12, %f8, %f12
    6178:	99 a3 08 52 	faddd  %f12, %f18, %f12
    617c:	99 a3 09 4e 	fmuld  %f12, %f14, %f12
    6180:	99 a0 1a 4c 	fdtoi  %f12, %f12
    6184:	d9 27 bf f4 	st  %f12, [ %fp + -12 ]
    6188:	82 00 7f ff 	add  %g1, -1, %g1
    618c:	c4 07 bf f4 	ld  [ %fp + -12 ], %g2
    6190:	86 00 a0 30 	add  %g2, 0x30, %g3
    6194:	c6 28 40 00 	stb  %g3, [ %g1 ]
    6198:	81 aa 0a 50 	fcmpd  %f8, %f16
    619c:	01 00 00 00 	nop 
    61a0:	03 bf ff f2 	fbne  6168 <cvt+0x84>
    61a4:	88 01 20 01 	inc  %g4
    61a8:	80 a6 40 01 	cmp  %i1, %g1
    61ac:	08 80 00 2f 	bleu  6268 <cvt+0x184>
    61b0:	84 10 00 1d 	mov  %i5, %g2
    61b4:	84 00 60 04 	add  %g1, 4, %g2
    61b8:	80 a7 40 02 	cmp  %i5, %g2
    61bc:	84 07 60 04 	add  %i5, 4, %g2
    61c0:	b8 60 3f ff 	subx  %g0, -1, %i4
    61c4:	80 a0 40 02 	cmp  %g1, %g2
    61c8:	86 60 3f ff 	subx  %g0, -1, %g3
    61cc:	96 27 40 01 	sub  %i5, %g1, %o3
    61d0:	b8 17 00 03 	or  %i4, %g3, %i4
    61d4:	96 02 e0 50 	add  %o3, 0x50, %o3
    61d8:	84 10 00 01 	mov  %g1, %g2
    61dc:	b1 32 e0 02 	srl  %o3, 2, %i0
    61e0:	86 10 20 01 	mov  1, %g3
    61e4:	80 a2 e0 03 	cmp  %o3, 3
    61e8:	18 80 00 03 	bgu  61f4 <cvt+0x110>
    61ec:	99 2e 20 02 	sll  %i0, 2, %o4
    61f0:	86 10 20 00 	clr  %g3
    61f4:	b4 10 40 1d 	or  %g1, %i5, %i2
    61f8:	b4 0e a0 03 	and  %i2, 3, %i2
    61fc:	80 a0 00 1a 	cmp  %g0, %i2
    6200:	86 0f 00 03 	and  %i4, %g3, %g3
    6204:	b8 60 3f ff 	subx  %g0, -1, %i4
    6208:	80 88 c0 1c 	btst  %g3, %i4
    620c:	02 80 00 a1 	be  6490 <cvt+0x3ac>
    6210:	80 a3 20 00 	cmp  %o4, 0
    6214:	02 80 00 9f 	be  6490 <cvt+0x3ac>
    6218:	b8 10 20 00 	clr  %i4
    621c:	86 10 20 00 	clr  %g3
    6220:	f4 00 40 03 	ld  [ %g1 + %g3 ], %i2
    6224:	f4 27 40 03 	st  %i2, [ %i5 + %g3 ]
    6228:	b8 07 20 01 	inc  %i4
    622c:	80 a6 00 1c 	cmp  %i0, %i4
    6230:	18 bf ff fc 	bgu  6220 <cvt+0x13c>
    6234:	86 00 e0 04 	add  %g3, 4, %g3
    6238:	86 07 40 0c 	add  %i5, %o4, %g3
    623c:	80 a2 c0 0c 	cmp  %o3, %o4
    6240:	02 80 00 08 	be  6260 <cvt+0x17c>
    6244:	82 00 40 0c 	add  %g1, %o4, %g1
    6248:	f8 08 40 00 	ldub  [ %g1 ], %i4
    624c:	f8 28 c0 00 	stb  %i4, [ %g3 ]
    6250:	82 00 60 01 	inc  %g1
    6254:	80 a6 40 01 	cmp  %i1, %g1
    6258:	18 bf ff fc 	bgu  6248 <cvt+0x164>
    625c:	86 00 e0 01 	inc  %g3
    6260:	84 26 40 02 	sub  %i1, %g2, %g2
    6264:	84 07 40 02 	add  %i5, %g2, %g2
    6268:	80 a3 60 00 	cmp  %o5, 0
    626c:	12 80 00 03 	bne  6278 <cvt+0x194>
    6270:	82 07 40 0f 	add  %i5, %o7, %g1
    6274:	82 00 40 04 	add  %g1, %g4, %g1
    6278:	80 a0 40 1d 	cmp  %g1, %i5
    627c:	0a 80 00 77 	bcs  6458 <cvt+0x374>
    6280:	c8 26 c0 00 	st  %g4, [ %i3 ]
    6284:	80 a0 80 01 	cmp  %g2, %g1
    6288:	18 80 00 17 	bgu  62e4 <cvt+0x200>
    628c:	88 07 60 50 	add  %i5, 0x50, %g4
    6290:	07 10 00 00 	sethi  %hi(0x40000000), %g3
    6294:	80 a0 80 04 	cmp  %g2, %g4
    6298:	1a 80 00 13 	bcc  62e4 <cvt+0x200>
    629c:	86 10 e0 60 	or  %g3, 0x60, %g3
    62a0:	10 80 00 05 	b  62b4 <cvt+0x1d0>
    62a4:	d9 18 c0 00 	ldd  [ %g3 ], %f12
    62a8:	80 a0 80 04 	cmp  %g2, %g4
    62ac:	02 80 00 0f 	be  62e8 <cvt+0x204>
    62b0:	80 a0 40 04 	cmp  %g1, %g4
    62b4:	95 a2 89 4c 	fmuld  %f10, %f12, %f10
    62b8:	91 a0 1a 4a 	fdtoi  %f10, %f8
    62bc:	91 a0 19 08 	fitod  %f8, %f8
    62c0:	9d a0 1a 48 	fdtoi  %f8, %f14
    62c4:	dd 27 bf f4 	st  %f14, [ %fp + -12 ]
    62c8:	c6 07 bf f4 	ld  [ %fp + -12 ], %g3
    62cc:	86 00 e0 30 	add  %g3, 0x30, %g3
    62d0:	c6 28 80 00 	stb  %g3, [ %g2 ]
    62d4:	84 00 a0 01 	inc  %g2
    62d8:	80 a0 40 02 	cmp  %g1, %g2
    62dc:	1a bf ff f3 	bcc  62a8 <cvt+0x1c4>
    62e0:	95 a2 88 c8 	fsubd  %f10, %f8, %f10
    62e4:	80 a0 40 04 	cmp  %g1, %g4
    62e8:	1a 80 00 62 	bcc  6470 <cvt+0x38c>
    62ec:	84 10 00 01 	mov  %g1, %g2
    62f0:	c6 08 40 00 	ldub  [ %g1 ], %g3
    62f4:	86 00 e0 05 	add  %g3, 5, %g3
    62f8:	c6 28 40 00 	stb  %g3, [ %g1 ]
    62fc:	88 10 20 30 	mov  0x30, %g4
    6300:	80 a3 60 00 	cmp  %o5, 0
    6304:	02 80 00 3e 	be  63fc <cvt+0x318>
    6308:	b8 10 20 31 	mov  0x31, %i4
    630c:	87 28 e0 18 	sll  %g3, 0x18, %g3
    6310:	87 38 e0 18 	sra  %g3, 0x18, %g3
    6314:	80 a0 e0 39 	cmp  %g3, 0x39
    6318:	24 80 00 10 	ble,a   6358 <cvt+0x274>
    631c:	84 10 00 01 	mov  %g1, %g2
    6320:	80 a7 40 02 	cmp  %i5, %g2
    6324:	0a 80 00 48 	bcs  6444 <cvt+0x360>
    6328:	c8 28 80 00 	stb  %g4, [ %g2 ]
    632c:	f8 28 80 00 	stb  %i4, [ %g2 ]
    6330:	c6 06 c0 00 	ld  [ %i3 ], %g3
    6334:	86 00 e0 01 	inc  %g3
    6338:	c6 26 c0 00 	st  %g3, [ %i3 ]
    633c:	c6 08 80 00 	ldub  [ %g2 ], %g3
    6340:	87 28 e0 18 	sll  %g3, 0x18, %g3
    6344:	87 38 e0 18 	sra  %g3, 0x18, %g3
    6348:	80 a0 e0 39 	cmp  %g3, 0x39
    634c:	14 bf ff f6 	bg  6324 <cvt+0x240>
    6350:	80 a7 40 02 	cmp  %i5, %g2
    6354:	84 10 00 01 	mov  %g1, %g2
    6358:	c0 28 80 00 	clrb  [ %g2 ]
    635c:	81 c7 e0 08 	ret 
    6360:	91 e8 00 1d 	restore  %g0, %i5, %o0
    6364:	81 aa 8a cc 	fcmped  %f10, %f12
    6368:	01 00 00 00 	nop 
    636c:	1d 80 00 46 	fbule  6484 <cvt+0x3a0>
    6370:	01 00 00 00 	nop 
    6374:	07 10 00 00 	sethi  %hi(0x40000000), %g3
    6378:	03 10 00 00 	sethi  %hi(0x40000000), %g1
    637c:	d9 18 e0 60 	ldd  [ %g3 + 0x60 ], %f12
    6380:	d1 18 60 70 	ldd  [ %g1 + 0x70 ], %f8
    6384:	99 a2 89 4c 	fmuld  %f10, %f12, %f12
    6388:	88 10 20 00 	clr  %g4
    638c:	e1 18 e0 60 	ldd  [ %g3 + 0x60 ], %f16
    6390:	9d a0 00 28 	fmovs  %f8, %f14
    6394:	81 ab 0a c8 	fcmped  %f12, %f8
    6398:	01 00 00 00 	nop 
    639c:	09 80 00 06 	fbl  63b4 <cvt+0x2d0>
    63a0:	9f a0 00 29 	fmovs  %f9, %f15
    63a4:	10 bf ff b1 	b  6268 <cvt+0x184>
    63a8:	84 10 00 1d 	mov  %i5, %g2
    63ac:	99 a0 00 28 	fmovs  %f8, %f12
    63b0:	9b a0 00 29 	fmovs  %f9, %f13
    63b4:	91 a3 09 50 	fmuld  %f12, %f16, %f8
    63b8:	81 aa 0a ce 	fcmped  %f8, %f14
    63bc:	01 00 00 00 	nop 
    63c0:	09 bf ff fb 	fbl  63ac <cvt+0x2c8>
    63c4:	88 01 3f ff 	add  %g4, -1, %g4
    63c8:	84 10 00 1d 	mov  %i5, %g2
    63cc:	95 a0 00 2c 	fmovs  %f12, %f10
    63d0:	10 bf ff a6 	b  6268 <cvt+0x184>
    63d4:	97 a0 00 2d 	fmovs  %f13, %f11
    63d8:	f8 28 40 00 	stb  %i4, [ %g1 ]
    63dc:	c6 06 c0 00 	ld  [ %i3 ], %g3
    63e0:	86 00 e0 01 	inc  %g3
    63e4:	80 a0 80 1d 	cmp  %g2, %i5
    63e8:	08 80 00 03 	bleu  63f4 <cvt+0x310>
    63ec:	c6 26 c0 00 	st  %g3, [ %i3 ]
    63f0:	c8 28 80 00 	stb  %g4, [ %g2 ]
    63f4:	84 00 a0 01 	inc  %g2
    63f8:	c6 08 40 00 	ldub  [ %g1 ], %g3
    63fc:	87 28 e0 18 	sll  %g3, 0x18, %g3
    6400:	87 38 e0 18 	sra  %g3, 0x18, %g3
    6404:	80 a0 e0 39 	cmp  %g3, 0x39
    6408:	24 bf ff d5 	ble,a   635c <cvt+0x278>
    640c:	c0 28 80 00 	clrb  [ %g2 ]
    6410:	80 a0 40 1d 	cmp  %g1, %i5
    6414:	08 bf ff f1 	bleu  63d8 <cvt+0x2f4>
    6418:	c8 28 40 00 	stb  %g4, [ %g1 ]
    641c:	c6 08 7f ff 	ldub  [ %g1 + -1 ], %g3
    6420:	86 00 e0 01 	inc  %g3
    6424:	c6 28 7f ff 	stb  %g3, [ %g1 + -1 ]
    6428:	87 28 e0 18 	sll  %g3, 0x18, %g3
    642c:	87 38 e0 18 	sra  %g3, 0x18, %g3
    6430:	80 a0 e0 39 	cmp  %g3, 0x39
    6434:	14 bf ff f7 	bg  6410 <cvt+0x32c>
    6438:	82 00 7f ff 	add  %g1, -1, %g1
    643c:	10 bf ff c8 	b  635c <cvt+0x278>
    6440:	c0 28 80 00 	clrb  [ %g2 ]
    6444:	c6 08 bf ff 	ldub  [ %g2 + -1 ], %g3
    6448:	86 00 e0 01 	inc  %g3
    644c:	c6 28 bf ff 	stb  %g3, [ %g2 + -1 ]
    6450:	10 bf ff af 	b  630c <cvt+0x228>
    6454:	84 00 bf ff 	add  %g2, -1, %g2
    6458:	c0 2f 40 00 	clrb  [ %i5 ]
    645c:	81 c7 e0 08 	ret 
    6460:	91 e8 00 1d 	restore  %g0, %i5, %o0
    6464:	95 a0 00 aa 	fnegs  %f10, %f10
    6468:	10 bf ff 30 	b  6128 <cvt+0x44>
    646c:	c2 27 00 00 	st  %g1, [ %i4 ]
    6470:	c0 2f 60 4f 	clrb  [ %i5 + 0x4f ]
    6474:	81 c7 e0 08 	ret 
    6478:	91 e8 00 1d 	restore  %g0, %i5, %o0
    647c:	10 bf ff 24 	b  610c <cvt+0x28>
    6480:	9e 10 00 1a 	mov  %i2, %o7
    6484:	84 10 00 1d 	mov  %i5, %g2
    6488:	10 bf ff 78 	b  6268 <cvt+0x184>
    648c:	88 10 20 00 	clr  %g4
    6490:	10 bf ff 6e 	b  6248 <cvt+0x164>
    6494:	86 10 00 1d 	mov  %i5, %g3

00006498 <__modf>:
    6498:	9c 03 bf b0 	add  %sp, -80, %sp
    649c:	d0 3b a0 48 	std  %o0, [ %sp + 0x48 ]
    64a0:	c1 1b a0 48 	ldd  [ %sp + 0x48 ], %f0
    64a4:	9c 23 bf b0 	sub  %sp, -80, %sp
    64a8:	91 a0 1a 40 	fdtoi  %f0, %f8
    64ac:	91 a0 19 08 	fitod  %f8, %f8
    64b0:	81 a0 08 c8 	fsubd  %f0, %f8, %f0
    64b4:	81 c3 e0 08 	retl 
    64b8:	d1 3a 80 00 	std  %f8, [ %o2 ]

000064bc <ecvt>:
    64bc:	9d e3 bf 98 	save  %sp, -104, %sp
    64c0:	82 10 20 01 	mov  1, %g1
    64c4:	90 10 00 18 	mov  %i0, %o0
    64c8:	92 10 00 19 	mov  %i1, %o1
    64cc:	c2 23 a0 5c 	st  %g1, [ %sp + 0x5c ]
    64d0:	94 10 00 1a 	mov  %i2, %o2
    64d4:	96 10 00 1b 	mov  %i3, %o3
    64d8:	98 10 00 1c 	mov  %i4, %o4
    64dc:	1b 10 00 00 	sethi  %hi(0x40000000), %o5
    64e0:	7f ff ff 01 	call  60e4 <cvt>
    64e4:	9a 13 60 b8 	or  %o5, 0xb8, %o5	! 400000b8 <CVTBUF>
    64e8:	81 c7 e0 08 	ret 
    64ec:	91 e8 00 08 	restore  %g0, %o0, %o0

000064f0 <ecvtbuf>:
    64f0:	9d e3 bf 98 	save  %sp, -104, %sp
    64f4:	82 10 20 01 	mov  1, %g1
    64f8:	90 10 00 18 	mov  %i0, %o0
    64fc:	92 10 00 19 	mov  %i1, %o1
    6500:	c2 23 a0 5c 	st  %g1, [ %sp + 0x5c ]
    6504:	94 10 00 1a 	mov  %i2, %o2
    6508:	96 10 00 1b 	mov  %i3, %o3
    650c:	98 10 00 1c 	mov  %i4, %o4
    6510:	7f ff fe f5 	call  60e4 <cvt>
    6514:	9a 10 00 1d 	mov  %i5, %o5
    6518:	81 c7 e0 08 	ret 
    651c:	91 e8 00 08 	restore  %g0, %o0, %o0

00006520 <fcvt>:
    6520:	9d e3 bf 98 	save  %sp, -104, %sp
    6524:	1b 10 00 00 	sethi  %hi(0x40000000), %o5
    6528:	c0 23 a0 5c 	clr  [ %sp + 0x5c ]
    652c:	90 10 00 18 	mov  %i0, %o0
    6530:	92 10 00 19 	mov  %i1, %o1
    6534:	94 10 00 1a 	mov  %i2, %o2
    6538:	96 10 00 1b 	mov  %i3, %o3
    653c:	98 10 00 1c 	mov  %i4, %o4
    6540:	7f ff fe e9 	call  60e4 <cvt>
    6544:	9a 13 60 b8 	or  %o5, 0xb8, %o5
    6548:	81 c7 e0 08 	ret 
    654c:	91 e8 00 08 	restore  %g0, %o0, %o0

00006550 <fcvtbuf>:
    6550:	9d e3 bf 98 	save  %sp, -104, %sp
    6554:	c0 23 a0 5c 	clr  [ %sp + 0x5c ]
    6558:	90 10 00 18 	mov  %i0, %o0
    655c:	92 10 00 19 	mov  %i1, %o1
    6560:	94 10 00 1a 	mov  %i2, %o2
    6564:	96 10 00 1b 	mov  %i3, %o3
    6568:	98 10 00 1c 	mov  %i4, %o4
    656c:	7f ff fe de 	call  60e4 <cvt>
    6570:	9a 10 00 1d 	mov  %i5, %o5
    6574:	81 c7 e0 08 	ret 
    6578:	91 e8 00 08 	restore  %g0, %o0, %o0

0000657c <__ajit_clear_all_gp_registers__>:
    657c:	82 10 00 00 	mov  %g0, %g1
    6580:	84 10 00 00 	mov  %g0, %g2
    6584:	86 10 00 00 	mov  %g0, %g3
    6588:	88 10 00 00 	mov  %g0, %g4
    658c:	8a 10 00 00 	mov  %g0, %g5
    6590:	8c 10 00 00 	mov  %g0, %g6
    6594:	8e 10 00 00 	mov  %g0, %g7
    6598:	b0 10 00 00 	mov  %g0, %i0
    659c:	b2 10 00 00 	mov  %g0, %i1
    65a0:	b4 10 00 00 	mov  %g0, %i2
    65a4:	b6 10 00 00 	mov  %g0, %i3
    65a8:	b8 10 00 00 	mov  %g0, %i4
    65ac:	ba 10 00 00 	mov  %g0, %i5
    65b0:	bc 10 00 00 	mov  %g0, %fp
    65b4:	be 10 00 00 	mov  %g0, %i7
    65b8:	a0 10 00 00 	mov  %g0, %l0
    65bc:	a2 10 00 00 	mov  %g0, %l1
    65c0:	a4 10 00 00 	mov  %g0, %l2
    65c4:	a6 10 00 00 	mov  %g0, %l3
    65c8:	a8 10 00 00 	mov  %g0, %l4
    65cc:	aa 10 00 00 	mov  %g0, %l5
    65d0:	ac 10 00 00 	mov  %g0, %l6
    65d4:	ae 10 00 00 	mov  %g0, %l7
    65d8:	90 10 00 00 	mov  %g0, %o0
    65dc:	92 10 00 00 	mov  %g0, %o1
    65e0:	94 10 00 00 	mov  %g0, %o2
    65e4:	96 10 00 00 	mov  %g0, %o3
    65e8:	98 10 00 00 	mov  %g0, %o4
    65ec:	9a 10 00 00 	mov  %g0, %o5
    65f0:	9c 10 00 00 	mov  %g0, %sp
    65f4:	9e 10 00 00 	mov  %g0, %o7
    65f8:	81 e0 00 00 	save 
    65fc:	a0 10 00 00 	mov  %g0, %l0
    6600:	a2 10 00 00 	mov  %g0, %l1
    6604:	a4 10 00 00 	mov  %g0, %l2
    6608:	a6 10 00 00 	mov  %g0, %l3
    660c:	a8 10 00 00 	mov  %g0, %l4
    6610:	aa 10 00 00 	mov  %g0, %l5
    6614:	ac 10 00 00 	mov  %g0, %l6
    6618:	ae 10 00 00 	mov  %g0, %l7
    661c:	90 10 00 00 	mov  %g0, %o0
    6620:	92 10 00 00 	mov  %g0, %o1
    6624:	94 10 00 00 	mov  %g0, %o2
    6628:	96 10 00 00 	mov  %g0, %o3
    662c:	98 10 00 00 	mov  %g0, %o4
    6630:	9a 10 00 00 	mov  %g0, %o5
    6634:	9c 10 00 00 	mov  %g0, %sp
    6638:	9e 10 00 00 	mov  %g0, %o7
    663c:	81 e0 00 00 	save 
    6640:	a0 10 00 00 	mov  %g0, %l0
    6644:	a2 10 00 00 	mov  %g0, %l1
    6648:	a4 10 00 00 	mov  %g0, %l2
    664c:	a6 10 00 00 	mov  %g0, %l3
    6650:	a8 10 00 00 	mov  %g0, %l4
    6654:	aa 10 00 00 	mov  %g0, %l5
    6658:	ac 10 00 00 	mov  %g0, %l6
    665c:	ae 10 00 00 	mov  %g0, %l7
    6660:	90 10 00 00 	mov  %g0, %o0
    6664:	92 10 00 00 	mov  %g0, %o1
    6668:	94 10 00 00 	mov  %g0, %o2
    666c:	96 10 00 00 	mov  %g0, %o3
    6670:	98 10 00 00 	mov  %g0, %o4
    6674:	9a 10 00 00 	mov  %g0, %o5
    6678:	9c 10 00 00 	mov  %g0, %sp
    667c:	9e 10 00 00 	mov  %g0, %o7
    6680:	81 e0 00 00 	save 
    6684:	a0 10 00 00 	mov  %g0, %l0
    6688:	a2 10 00 00 	mov  %g0, %l1
    668c:	a4 10 00 00 	mov  %g0, %l2
    6690:	a6 10 00 00 	mov  %g0, %l3
    6694:	a8 10 00 00 	mov  %g0, %l4
    6698:	aa 10 00 00 	mov  %g0, %l5
    669c:	ac 10 00 00 	mov  %g0, %l6
    66a0:	ae 10 00 00 	mov  %g0, %l7
    66a4:	90 10 00 00 	mov  %g0, %o0
    66a8:	92 10 00 00 	mov  %g0, %o1
    66ac:	94 10 00 00 	mov  %g0, %o2
    66b0:	96 10 00 00 	mov  %g0, %o3
    66b4:	98 10 00 00 	mov  %g0, %o4
    66b8:	9a 10 00 00 	mov  %g0, %o5
    66bc:	9c 10 00 00 	mov  %g0, %sp
    66c0:	9e 10 00 00 	mov  %g0, %o7
    66c4:	81 e0 00 00 	save 
    66c8:	a0 10 00 00 	mov  %g0, %l0
    66cc:	a2 10 00 00 	mov  %g0, %l1
    66d0:	a4 10 00 00 	mov  %g0, %l2
    66d4:	a6 10 00 00 	mov  %g0, %l3
    66d8:	a8 10 00 00 	mov  %g0, %l4
    66dc:	aa 10 00 00 	mov  %g0, %l5
    66e0:	ac 10 00 00 	mov  %g0, %l6
    66e4:	ae 10 00 00 	mov  %g0, %l7
    66e8:	90 10 00 00 	mov  %g0, %o0
    66ec:	92 10 00 00 	mov  %g0, %o1
    66f0:	94 10 00 00 	mov  %g0, %o2
    66f4:	96 10 00 00 	mov  %g0, %o3
    66f8:	98 10 00 00 	mov  %g0, %o4
    66fc:	9a 10 00 00 	mov  %g0, %o5
    6700:	9c 10 00 00 	mov  %g0, %sp
    6704:	9e 10 00 00 	mov  %g0, %o7
    6708:	81 e0 00 00 	save 
    670c:	a0 10 00 00 	mov  %g0, %l0
    6710:	a2 10 00 00 	mov  %g0, %l1
    6714:	a4 10 00 00 	mov  %g0, %l2
    6718:	a6 10 00 00 	mov  %g0, %l3
    671c:	a8 10 00 00 	mov  %g0, %l4
    6720:	aa 10 00 00 	mov  %g0, %l5
    6724:	ac 10 00 00 	mov  %g0, %l6
    6728:	ae 10 00 00 	mov  %g0, %l7
    672c:	90 10 00 00 	mov  %g0, %o0
    6730:	92 10 00 00 	mov  %g0, %o1
    6734:	94 10 00 00 	mov  %g0, %o2
    6738:	96 10 00 00 	mov  %g0, %o3
    673c:	98 10 00 00 	mov  %g0, %o4
    6740:	9a 10 00 00 	mov  %g0, %o5
    6744:	9c 10 00 00 	mov  %g0, %sp
    6748:	9e 10 00 00 	mov  %g0, %o7
    674c:	81 e0 00 00 	save 
    6750:	a0 10 00 00 	mov  %g0, %l0
    6754:	a2 10 00 00 	mov  %g0, %l1
    6758:	a4 10 00 00 	mov  %g0, %l2
    675c:	a6 10 00 00 	mov  %g0, %l3
    6760:	a8 10 00 00 	mov  %g0, %l4
    6764:	aa 10 00 00 	mov  %g0, %l5
    6768:	ac 10 00 00 	mov  %g0, %l6
    676c:	ae 10 00 00 	mov  %g0, %l7
    6770:	90 10 00 00 	mov  %g0, %o0
    6774:	92 10 00 00 	mov  %g0, %o1
    6778:	94 10 00 00 	mov  %g0, %o2
    677c:	96 10 00 00 	mov  %g0, %o3
    6780:	98 10 00 00 	mov  %g0, %o4
    6784:	9a 10 00 00 	mov  %g0, %o5
    6788:	9c 10 00 00 	mov  %g0, %sp
    678c:	9e 10 00 00 	mov  %g0, %o7
    6790:	81 e0 00 00 	save 
    6794:	a0 10 00 00 	mov  %g0, %l0
    6798:	a2 10 00 00 	mov  %g0, %l1
    679c:	a4 10 00 00 	mov  %g0, %l2
    67a0:	a6 10 00 00 	mov  %g0, %l3
    67a4:	a8 10 00 00 	mov  %g0, %l4
    67a8:	aa 10 00 00 	mov  %g0, %l5
    67ac:	ac 10 00 00 	mov  %g0, %l6
    67b0:	ae 10 00 00 	mov  %g0, %l7
    67b4:	90 10 00 00 	mov  %g0, %o0
    67b8:	92 10 00 00 	mov  %g0, %o1
    67bc:	94 10 00 00 	mov  %g0, %o2
    67c0:	96 10 00 00 	mov  %g0, %o3
    67c4:	98 10 00 00 	mov  %g0, %o4
    67c8:	9a 10 00 00 	mov  %g0, %o5
    67cc:	9c 10 00 00 	mov  %g0, %sp
    67d0:	9e 10 00 00 	mov  %g0, %o7
    67d4:	81 e8 00 00 	restore 
    67d8:	81 e8 00 00 	restore 
    67dc:	81 e8 00 00 	restore 
    67e0:	81 e8 00 00 	restore 
    67e4:	81 e8 00 00 	restore 
    67e8:	81 e8 00 00 	restore 
    67ec:	81 e8 00 00 	restore 
    67f0:	81 c3 e0 08 	retl 
    67f4:	01 00 00 00 	nop 

000067f8 <__ajit_read_core_thread_id_word__>:
    67f8:	91 47 40 00 	rd  %asr29, %o0
    67fc:	81 c3 e0 08 	retl 
    6800:	01 00 00 00 	nop 

00006804 <ajit_get_core_and_thread_id>:
    6804:	83 47 40 00 	rd  %asr29, %g1
    6808:	85 30 60 08 	srl  %g1, 8, %g2
    680c:	c4 2a 00 00 	stb  %g2, [ %o0 ]
    6810:	81 c3 e0 08 	retl 
    6814:	c2 2a 40 00 	stb  %g1, [ %o1 ]

00006818 <__ajit_read_cycle_count_register_high__>:
    6818:	91 47 80 00 	rd  %asr30, %o0
    681c:	81 c3 e0 08 	retl 
    6820:	01 00 00 00 	nop 

00006824 <__ajit_read_cycle_count_register_low__>:
    6824:	91 47 c0 00 	rd  %asr31, %o0
    6828:	81 c3 e0 08 	retl 
    682c:	01 00 00 00 	nop 

00006830 <__ajit_get_clock_time>:
    6830:	99 47 c0 00 	rd  %asr31, %o4
    6834:	83 47 80 00 	rd  %asr30, %g1
    6838:	86 10 20 00 	clr  %g3
    683c:	9a 10 00 0c 	mov  %o4, %o5
    6840:	98 10 20 00 	clr  %o4
    6844:	86 10 c0 0d 	or  %g3, %o5, %g3
    6848:	84 10 40 0c 	or  %g1, %o4, %g2
    684c:	92 10 00 03 	mov  %g3, %o1
    6850:	81 c3 e0 08 	retl 
    6854:	90 10 00 02 	mov  %g2, %o0

00006858 <__ajit_sleep__>:
    6858:	95 47 c0 00 	rd  %asr31, %o2
    685c:	83 47 80 00 	rd  %asr30, %g1
    6860:	9a 10 20 00 	clr  %o5
    6864:	96 10 00 0a 	mov  %o2, %o3
    6868:	9a 13 40 0b 	or  %o5, %o3, %o5
    686c:	92 83 40 08 	addcc  %o5, %o0, %o1
    6870:	94 10 20 00 	clr  %o2
    6874:	98 10 40 0a 	or  %g1, %o2, %o4
    6878:	90 43 20 00 	addx  %o4, 0, %o0
    687c:	80 a2 00 0c 	cmp  %o0, %o4
    6880:	08 80 00 0c 	bleu  68b0 <__ajit_sleep__+0x58>
    6884:	01 00 00 00 	nop 
    6888:	99 47 c0 00 	rd  %asr31, %o4
    688c:	83 47 80 00 	rd  %asr30, %g1
    6890:	86 10 20 00 	clr  %g3
    6894:	9a 10 00 0c 	mov  %o4, %o5
    6898:	98 10 20 00 	clr  %o4
    689c:	98 10 40 0c 	or  %g1, %o4, %o4
    68a0:	80 a2 00 0c 	cmp  %o0, %o4
    68a4:	18 bf ff f9 	bgu  6888 <__ajit_sleep__+0x30>
    68a8:	9a 10 c0 0d 	or  %g3, %o5, %o5
    68ac:	80 a2 00 0c 	cmp  %o0, %o4
    68b0:	12 80 00 04 	bne  68c0 <__ajit_sleep__+0x68>
    68b4:	80 a2 40 0d 	cmp  %o1, %o5
    68b8:	18 bf ff f4 	bgu  6888 <__ajit_sleep__+0x30>
    68bc:	01 00 00 00 	nop 
    68c0:	81 c3 e0 08 	retl 
    68c4:	01 00 00 00 	nop 

000068c8 <__ajit_set_mmu_default_cacheable_bit__>:
    68c8:	80 a0 00 08 	cmp  %g0, %o0
    68cc:	84 10 20 00 	clr  %g2
    68d0:	82 40 20 00 	addx  %g0, 0, %g1
    68d4:	83 28 60 08 	sll  %g1, 8, %g1
    68d8:	c2 a0 80 80 	sta  %g1, [ %g2 ] #ASI_N
    68dc:	81 c3 e0 08 	retl 
    68e0:	01 00 00 00 	nop 

000068e4 <__ajit_store_word_mmu_reg__>:
    68e4:	d0 a2 40 80 	sta  %o0, [ %o1 ] #ASI_N
    68e8:	81 c3 e0 08 	retl 
    68ec:	01 00 00 00 	nop 

000068f0 <__ajit_store_word_mmu_bypass__>:
    68f0:	d0 a2 44 00 	sta  %o0, [ %o1 ] #ASI_SCRATCHPAD
    68f4:	81 c3 e0 08 	retl 
    68f8:	01 00 00 00 	nop 

000068fc <__ajit_load_word_mmu_reg__>:
    68fc:	d0 82 00 80 	lda  [ %o0 ] #ASI_N, %o0
    6900:	81 c3 e0 08 	retl 
    6904:	01 00 00 00 	nop 

00006908 <__ajit_load_word_mmu_bypass__>:
    6908:	d0 82 04 00 	lda  [ %o0 ] #ASI_SCRATCHPAD, %o0
    690c:	81 c3 e0 08 	retl 
    6910:	01 00 00 00 	nop 

00006914 <__ajit_flush_icache__>:
    6914:	81 d8 20 00 	flush  %g0
    6918:	81 c3 e0 08 	retl 
    691c:	01 00 00 00 	nop 

00006920 <__ajit_flush_dcache__>:
    6920:	c0 a0 02 60 	sta  %g0, [ %g0 ] (19)
    6924:	81 c3 e0 08 	retl 
    6928:	01 00 00 00 	nop 

0000692c <__ajit_write_timer_control_register__>:
    692c:	03 3f ff cc 	sethi  %hi(0xffff3000), %g1
    6930:	82 10 61 00 	or  %g1, 0x100, %g1	! ffff3100 <_GLOBAL_OFFSET_TABLE_+0xbfff2ff8>
    6934:	d0 a0 44 00 	sta  %o0, [ %g1 ] #ASI_SCRATCHPAD
    6938:	81 c3 e0 08 	retl 
    693c:	01 00 00 00 	nop 

00006940 <__ajit_read_timer_control_register__>:
    6940:	11 3f ff cc 	sethi  %hi(0xffff3000), %o0
    6944:	90 12 21 00 	or  %o0, 0x100, %o0	! ffff3100 <_GLOBAL_OFFSET_TABLE_+0xbfff2ff8>
    6948:	d0 82 04 00 	lda  [ %o0 ] #ASI_SCRATCHPAD, %o0
    694c:	81 c3 e0 08 	retl 
    6950:	01 00 00 00 	nop 

00006954 <__ajit_write_timer_control_register_via_vmap__>:
    6954:	03 3f ff cc 	sethi  %hi(0xffff3000), %g1
    6958:	82 10 61 00 	or  %g1, 0x100, %g1	! ffff3100 <_GLOBAL_OFFSET_TABLE_+0xbfff2ff8>
    695c:	81 c3 e0 08 	retl 
    6960:	d0 20 40 00 	st  %o0, [ %g1 ]

00006964 <__ajit_read_timer_control_register_via_vmap__>:
    6964:	03 3f ff cc 	sethi  %hi(0xffff3000), %g1
    6968:	82 10 61 00 	or  %g1, 0x100, %g1	! ffff3100 <_GLOBAL_OFFSET_TABLE_+0xbfff2ff8>
    696c:	81 c3 e0 08 	retl 
    6970:	d0 00 40 00 	ld  [ %g1 ], %o0

00006974 <__ajit_write_serial_control_register__>:
    6974:	03 3f ff cc 	sethi  %hi(0xffff3000), %g1
    6978:	82 10 62 00 	or  %g1, 0x200, %g1	! ffff3200 <_GLOBAL_OFFSET_TABLE_+0xbfff30f8>
    697c:	d0 a0 44 00 	sta  %o0, [ %g1 ] #ASI_SCRATCHPAD
    6980:	81 c3 e0 08 	retl 
    6984:	01 00 00 00 	nop 

00006988 <__ajit_serial_configure__>:
    6988:	05 3f ff cc 	sethi  %hi(0xffff3000), %g2
    698c:	84 10 a2 00 	or  %g2, 0x200, %g2	! ffff3200 <_GLOBAL_OFFSET_TABLE_+0xbfff30f8>
    6990:	c4 80 84 00 	lda  [ %g2 ] #ASI_SCRATCHPAD, %g2
    6994:	80 a2 20 00 	cmp  %o0, 0
    6998:	02 80 00 03 	be  69a4 <__ajit_serial_configure__+0x1c>
    699c:	82 08 bf fe 	and  %g2, -2, %g1
    69a0:	82 10 a0 01 	or  %g2, 1, %g1
    69a4:	80 a2 60 00 	cmp  %o1, 0
    69a8:	02 80 00 03 	be  69b4 <__ajit_serial_configure__+0x2c>
    69ac:	84 08 7f fd 	and  %g1, -3, %g2
    69b0:	84 10 60 02 	or  %g1, 2, %g2
    69b4:	80 a2 a0 00 	cmp  %o2, 0
    69b8:	02 80 00 03 	be  69c4 <__ajit_serial_configure__+0x3c>
    69bc:	82 08 bf fb 	and  %g2, -5, %g1
    69c0:	82 10 a0 04 	or  %g2, 4, %g1
    69c4:	05 3f ff cc 	sethi  %hi(0xffff3000), %g2
    69c8:	84 10 a2 00 	or  %g2, 0x200, %g2	! ffff3200 <_GLOBAL_OFFSET_TABLE_+0xbfff30f8>
    69cc:	c2 a0 84 00 	sta  %g1, [ %g2 ] #ASI_SCRATCHPAD
    69d0:	81 c3 e0 08 	retl 
    69d4:	01 00 00 00 	nop 

000069d8 <__ajit_serial_uart_reset__>:
    69d8:	03 3f ff cc 	sethi  %hi(0xffff3000), %g1
    69dc:	82 10 62 00 	or  %g1, 0x200, %g1	! ffff3200 <_GLOBAL_OFFSET_TABLE_+0xbfff30f8>
    69e0:	c4 80 44 00 	lda  [ %g1 ] #ASI_SCRATCHPAD, %g2
    69e4:	86 10 20 08 	mov  8, %g3
    69e8:	c6 a0 44 00 	sta  %g3, [ %g1 ] #ASI_SCRATCHPAD
    69ec:	c4 a0 44 00 	sta  %g2, [ %g1 ] #ASI_SCRATCHPAD
    69f0:	81 c3 e0 08 	retl 
    69f4:	01 00 00 00 	nop 

000069f8 <__ajit_serial_set_baudrate__>:
    69f8:	91 2a 20 04 	sll  %o0, 4, %o0
    69fc:	80 a2 00 09 	cmp  %o0, %o1
    6a00:	1a 80 00 26 	bcc  6a98 <__ajit_serial_set_baudrate__+0xa0>
    6a04:	82 10 20 00 	clr  %g1
    6a08:	80 a2 20 00 	cmp  %o0, 0
    6a0c:	22 80 00 24 	be,a   6a9c <__ajit_serial_set_baudrate__+0xa4>
    6a10:	05 3f ff cd 	sethi  %hi(0xffff3400), %g2
    6a14:	84 10 00 09 	mov  %o1, %g2
    6a18:	10 80 00 03 	b  6a24 <__ajit_serial_set_baudrate__+0x2c>
    6a1c:	82 10 00 08 	mov  %o0, %g1
    6a20:	82 10 00 03 	mov  %g3, %g1
    6a24:	81 80 20 00 	mov  %g0, %y
    6a28:	01 00 00 00 	nop 
    6a2c:	01 00 00 00 	nop 
    6a30:	01 00 00 00 	nop 
    6a34:	86 70 80 01 	udiv  %g2, %g1, %g3
    6a38:	86 58 c0 01 	smul  %g3, %g1, %g3
    6a3c:	86 20 80 03 	sub  %g2, %g3, %g3
    6a40:	80 a0 e0 00 	cmp  %g3, 0
    6a44:	12 bf ff f7 	bne  6a20 <__ajit_serial_set_baudrate__+0x28>
    6a48:	84 10 00 01 	mov  %g1, %g2
    6a4c:	81 80 20 00 	mov  %g0, %y
    6a50:	01 00 00 00 	nop 
    6a54:	01 00 00 00 	nop 
    6a58:	01 00 00 00 	nop 
    6a5c:	84 72 00 01 	udiv  %o0, %g1, %g2
    6a60:	81 80 20 00 	mov  %g0, %y
    6a64:	01 00 00 00 	nop 
    6a68:	01 00 00 00 	nop 
    6a6c:	01 00 00 00 	nop 
    6a70:	88 72 40 01 	udiv  %o1, %g1, %g4
    6a74:	86 08 af ff 	and  %g2, 0xfff, %g3
    6a78:	82 21 00 02 	sub  %g4, %g2, %g1
    6a7c:	05 3f ff cd 	sethi  %hi(0xffff3400), %g2
    6a80:	83 28 60 10 	sll  %g1, 0x10, %g1
    6a84:	84 10 a0 08 	or  %g2, 8, %g2
    6a88:	82 10 40 03 	or  %g1, %g3, %g1
    6a8c:	c2 a0 84 00 	sta  %g1, [ %g2 ] #ASI_SCRATCHPAD
    6a90:	81 c3 e0 08 	retl 
    6a94:	01 00 00 00 	nop 
    6a98:	05 3f ff cd 	sethi  %hi(0xffff3400), %g2
    6a9c:	84 10 a0 08 	or  %g2, 8, %g2	! ffff3408 <_GLOBAL_OFFSET_TABLE_+0xbfff3300>
    6aa0:	c2 a0 84 00 	sta  %g1, [ %g2 ] #ASI_SCRATCHPAD
    6aa4:	81 c3 e0 08 	retl 
    6aa8:	01 00 00 00 	nop 

00006aac <__ajit_serial_set_baudrate_via_vmap__>:
    6aac:	91 2a 20 04 	sll  %o0, 4, %o0
    6ab0:	80 a2 00 09 	cmp  %o0, %o1
    6ab4:	1a 80 00 25 	bcc  6b48 <__ajit_serial_set_baudrate_via_vmap__+0x9c>
    6ab8:	84 10 20 00 	clr  %g2
    6abc:	80 a2 20 00 	cmp  %o0, 0
    6ac0:	22 80 00 23 	be,a   6b4c <__ajit_serial_set_baudrate_via_vmap__+0xa0>
    6ac4:	03 3f ff cd 	sethi  %hi(0xffff3400), %g1
    6ac8:	84 10 00 09 	mov  %o1, %g2
    6acc:	10 80 00 03 	b  6ad8 <__ajit_serial_set_baudrate_via_vmap__+0x2c>
    6ad0:	82 10 00 08 	mov  %o0, %g1
    6ad4:	82 10 00 03 	mov  %g3, %g1
    6ad8:	81 80 20 00 	mov  %g0, %y
    6adc:	01 00 00 00 	nop 
    6ae0:	01 00 00 00 	nop 
    6ae4:	01 00 00 00 	nop 
    6ae8:	86 70 80 01 	udiv  %g2, %g1, %g3
    6aec:	86 58 c0 01 	smul  %g3, %g1, %g3
    6af0:	86 20 80 03 	sub  %g2, %g3, %g3
    6af4:	80 a0 e0 00 	cmp  %g3, 0
    6af8:	12 bf ff f7 	bne  6ad4 <__ajit_serial_set_baudrate_via_vmap__+0x28>
    6afc:	84 10 00 01 	mov  %g1, %g2
    6b00:	81 80 20 00 	mov  %g0, %y
    6b04:	01 00 00 00 	nop 
    6b08:	01 00 00 00 	nop 
    6b0c:	01 00 00 00 	nop 
    6b10:	86 72 00 01 	udiv  %o0, %g1, %g3
    6b14:	81 80 20 00 	mov  %g0, %y
    6b18:	01 00 00 00 	nop 
    6b1c:	01 00 00 00 	nop 
    6b20:	01 00 00 00 	nop 
    6b24:	84 72 40 01 	udiv  %o1, %g1, %g2
    6b28:	82 08 ef ff 	and  %g3, 0xfff, %g1
    6b2c:	84 20 80 03 	sub  %g2, %g3, %g2
    6b30:	85 28 a0 10 	sll  %g2, 0x10, %g2
    6b34:	84 10 80 01 	or  %g2, %g1, %g2
    6b38:	03 3f ff cd 	sethi  %hi(0xffff3400), %g1
    6b3c:	82 10 60 08 	or  %g1, 8, %g1	! ffff3408 <_GLOBAL_OFFSET_TABLE_+0xbfff3300>
    6b40:	81 c3 e0 08 	retl 
    6b44:	c4 20 40 00 	st  %g2, [ %g1 ]
    6b48:	03 3f ff cd 	sethi  %hi(0xffff3400), %g1
    6b4c:	82 10 60 08 	or  %g1, 8, %g1	! ffff3408 <_GLOBAL_OFFSET_TABLE_+0xbfff3300>
    6b50:	81 c3 e0 08 	retl 
    6b54:	c4 20 40 00 	st  %g2, [ %g1 ]

00006b58 <calculate_baud_control_word_for_uart>:
    6b58:	91 2a 20 04 	sll  %o0, 4, %o0
    6b5c:	80 a2 00 09 	cmp  %o0, %o1
    6b60:	1a 80 00 20 	bcc  6be0 <calculate_baud_control_word_for_uart+0x88>
    6b64:	80 a2 20 00 	cmp  %o0, 0
    6b68:	02 80 00 1e 	be  6be0 <calculate_baud_control_word_for_uart+0x88>
    6b6c:	84 10 00 09 	mov  %o1, %g2
    6b70:	10 80 00 03 	b  6b7c <calculate_baud_control_word_for_uart+0x24>
    6b74:	82 10 00 08 	mov  %o0, %g1
    6b78:	82 10 00 03 	mov  %g3, %g1
    6b7c:	81 80 20 00 	mov  %g0, %y
    6b80:	01 00 00 00 	nop 
    6b84:	01 00 00 00 	nop 
    6b88:	01 00 00 00 	nop 
    6b8c:	86 70 80 01 	udiv  %g2, %g1, %g3
    6b90:	86 58 c0 01 	smul  %g3, %g1, %g3
    6b94:	86 20 80 03 	sub  %g2, %g3, %g3
    6b98:	80 a0 e0 00 	cmp  %g3, 0
    6b9c:	12 bf ff f7 	bne  6b78 <calculate_baud_control_word_for_uart+0x20>
    6ba0:	84 10 00 01 	mov  %g1, %g2
    6ba4:	81 80 20 00 	mov  %g0, %y
    6ba8:	01 00 00 00 	nop 
    6bac:	01 00 00 00 	nop 
    6bb0:	01 00 00 00 	nop 
    6bb4:	84 72 00 01 	udiv  %o0, %g1, %g2
    6bb8:	81 80 20 00 	mov  %g0, %y
    6bbc:	01 00 00 00 	nop 
    6bc0:	01 00 00 00 	nop 
    6bc4:	01 00 00 00 	nop 
    6bc8:	90 72 40 01 	udiv  %o1, %g1, %o0
    6bcc:	82 08 af ff 	and  %g2, 0xfff, %g1
    6bd0:	90 22 00 02 	sub  %o0, %g2, %o0
    6bd4:	91 2a 20 10 	sll  %o0, 0x10, %o0
    6bd8:	81 c3 e0 08 	retl 
    6bdc:	90 12 00 01 	or  %o0, %g1, %o0
    6be0:	81 c3 e0 08 	retl 
    6be4:	90 10 20 00 	clr  %o0

00006be8 <__ajit_serial_set_baudrate_inner__>:
    6be8:	93 2a 60 04 	sll  %o1, 4, %o1
    6bec:	80 a2 40 0a 	cmp  %o1, %o2
    6bf0:	1a 80 00 27 	bcc  6c8c <__ajit_serial_set_baudrate_inner__+0xa4>
    6bf4:	05 3f ff cd 	sethi  %hi(0xffff3400), %g2
    6bf8:	80 a2 60 00 	cmp  %o1, 0
    6bfc:	22 80 00 25 	be,a   6c90 <__ajit_serial_set_baudrate_inner__+0xa8>
    6c00:	82 10 20 00 	clr  %g1
    6c04:	84 10 00 0a 	mov  %o2, %g2
    6c08:	10 80 00 03 	b  6c14 <__ajit_serial_set_baudrate_inner__+0x2c>
    6c0c:	82 10 00 09 	mov  %o1, %g1
    6c10:	82 10 00 03 	mov  %g3, %g1
    6c14:	81 80 20 00 	mov  %g0, %y
    6c18:	01 00 00 00 	nop 
    6c1c:	01 00 00 00 	nop 
    6c20:	01 00 00 00 	nop 
    6c24:	86 70 80 01 	udiv  %g2, %g1, %g3
    6c28:	86 58 c0 01 	smul  %g3, %g1, %g3
    6c2c:	86 20 80 03 	sub  %g2, %g3, %g3
    6c30:	80 a0 e0 00 	cmp  %g3, 0
    6c34:	12 bf ff f7 	bne  6c10 <__ajit_serial_set_baudrate_inner__+0x28>
    6c38:	84 10 00 01 	mov  %g1, %g2
    6c3c:	81 80 20 00 	mov  %g0, %y
    6c40:	01 00 00 00 	nop 
    6c44:	01 00 00 00 	nop 
    6c48:	01 00 00 00 	nop 
    6c4c:	84 72 40 01 	udiv  %o1, %g1, %g2
    6c50:	81 80 20 00 	mov  %g0, %y
    6c54:	01 00 00 00 	nop 
    6c58:	01 00 00 00 	nop 
    6c5c:	01 00 00 00 	nop 
    6c60:	88 72 80 01 	udiv  %o2, %g1, %g4
    6c64:	86 08 af ff 	and  %g2, 0xfff, %g3
    6c68:	82 21 00 02 	sub  %g4, %g2, %g1
    6c6c:	80 a2 20 00 	cmp  %o0, 0
    6c70:	83 28 60 10 	sll  %g1, 0x10, %g1
    6c74:	05 3f ff cd 	sethi  %hi(0xffff3400), %g2
    6c78:	82 10 40 03 	or  %g1, %g3, %g1
    6c7c:	02 80 00 08 	be  6c9c <__ajit_serial_set_baudrate_inner__+0xb4>
    6c80:	84 10 a0 08 	or  %g2, 8, %g2
    6c84:	81 c3 e0 08 	retl 
    6c88:	c2 20 80 00 	st  %g1, [ %g2 ]
    6c8c:	82 10 20 00 	clr  %g1
    6c90:	80 a2 20 00 	cmp  %o0, 0
    6c94:	12 bf ff fc 	bne  6c84 <__ajit_serial_set_baudrate_inner__+0x9c>
    6c98:	84 10 a0 08 	or  %g2, 8, %g2
    6c9c:	c2 a0 84 00 	sta  %g1, [ %g2 ] #ASI_SCRATCHPAD
    6ca0:	81 c3 e0 08 	retl 
    6ca4:	01 00 00 00 	nop 

00006ca8 <__ajit_read_serial_control_register__>:
    6ca8:	11 3f ff cc 	sethi  %hi(0xffff3000), %o0
    6cac:	90 12 22 00 	or  %o0, 0x200, %o0	! ffff3200 <_GLOBAL_OFFSET_TABLE_+0xbfff30f8>
    6cb0:	d0 82 04 00 	lda  [ %o0 ] #ASI_SCRATCHPAD, %o0
    6cb4:	81 c3 e0 08 	retl 
    6cb8:	01 00 00 00 	nop 

00006cbc <__ajit_write_serial_tx_register__>:
    6cbc:	03 3f ff cc 	sethi  %hi(0xffff3000), %g1
    6cc0:	82 10 62 04 	or  %g1, 0x204, %g1	! ffff3204 <_GLOBAL_OFFSET_TABLE_+0xbfff30fc>
    6cc4:	d0 a8 44 00 	stba  %o0, [ %g1 ] #ASI_SCRATCHPAD
    6cc8:	81 c3 e0 08 	retl 
    6ccc:	01 00 00 00 	nop 

00006cd0 <__ajit_read_serial_tx_register__>:
    6cd0:	11 3f ff cc 	sethi  %hi(0xffff3000), %o0
    6cd4:	90 12 22 04 	or  %o0, 0x204, %o0	! ffff3204 <_GLOBAL_OFFSET_TABLE_+0xbfff30fc>
    6cd8:	d0 8a 04 00 	lduba  [ %o0 ] #ASI_SCRATCHPAD, %o0
    6cdc:	81 c3 e0 08 	retl 
    6ce0:	90 0a 20 ff 	and  %o0, 0xff, %o0

00006ce4 <__ajit_read_serial_rx_register__>:
    6ce4:	11 3f ff cc 	sethi  %hi(0xffff3000), %o0
    6ce8:	90 12 22 08 	or  %o0, 0x208, %o0	! ffff3208 <_GLOBAL_OFFSET_TABLE_+0xbfff3100>
    6cec:	d0 8a 04 00 	lduba  [ %o0 ] #ASI_SCRATCHPAD, %o0
    6cf0:	81 c3 e0 08 	retl 
    6cf4:	90 0a 20 ff 	and  %o0, 0xff, %o0

00006cf8 <__ajit_serial_putchar__>:
    6cf8:	05 3f ff cc 	sethi  %hi(0xffff3000), %g2
    6cfc:	82 10 a2 00 	or  %g2, 0x200, %g1	! ffff3200 <_GLOBAL_OFFSET_TABLE_+0xbfff30f8>
    6d00:	c2 80 44 00 	lda  [ %g1 ] #ASI_SCRATCHPAD, %g1
    6d04:	80 88 60 01 	btst  1, %g1
    6d08:	02 80 00 07 	be  6d24 <__ajit_serial_putchar__+0x2c>
    6d0c:	86 10 20 00 	clr  %g3
    6d10:	80 88 60 08 	btst  8, %g1
    6d14:	12 80 00 04 	bne  6d24 <__ajit_serial_putchar__+0x2c>
    6d18:	84 10 a2 04 	or  %g2, 0x204, %g2
    6d1c:	d0 a8 84 00 	stba  %o0, [ %g2 ] #ASI_SCRATCHPAD
    6d20:	86 10 00 08 	mov  %o0, %g3
    6d24:	81 c3 e0 08 	retl 
    6d28:	90 10 00 03 	mov  %g3, %o0

00006d2c <__ajit_serial_getchar__>:
    6d2c:	03 3f ff cc 	sethi  %hi(0xffff3000), %g1
    6d30:	84 10 62 00 	or  %g1, 0x200, %g2	! ffff3200 <_GLOBAL_OFFSET_TABLE_+0xbfff30f8>
    6d34:	c4 80 84 00 	lda  [ %g2 ] #ASI_SCRATCHPAD, %g2
    6d38:	84 08 a0 12 	and  %g2, 0x12, %g2
    6d3c:	80 a0 a0 12 	cmp  %g2, 0x12
    6d40:	12 80 00 04 	bne  6d50 <__ajit_serial_getchar__+0x24>
    6d44:	90 10 20 00 	clr  %o0
    6d48:	90 10 62 08 	or  %g1, 0x208, %o0
    6d4c:	d0 8a 04 00 	lduba  [ %o0 ] #ASI_SCRATCHPAD, %o0
    6d50:	81 c3 e0 08 	retl 
    6d54:	01 00 00 00 	nop 

00006d58 <__ajit_serial_puts__>:
    6d58:	80 a2 60 00 	cmp  %o1, 0
    6d5c:	02 80 00 16 	be  6db4 <__ajit_serial_puts__+0x5c>
    6d60:	19 3f ff cc 	sethi  %hi(0xffff3000), %o4
    6d64:	9a 10 20 00 	clr  %o5
    6d68:	84 13 22 00 	or  %o4, 0x200, %g2
    6d6c:	88 10 20 00 	clr  %g4
    6d70:	98 13 22 04 	or  %o4, 0x204, %o4
    6d74:	c6 0a 00 0d 	ldub  [ %o0 + %o5 ], %g3
    6d78:	c2 80 84 00 	lda  [ %g2 ] #ASI_SCRATCHPAD, %g1
    6d7c:	80 88 60 01 	btst  1, %g1
    6d80:	02 bf ff fe 	be  6d78 <__ajit_serial_puts__+0x20>
    6d84:	80 88 60 08 	btst  8, %g1
    6d88:	12 bf ff fc 	bne  6d78 <__ajit_serial_puts__+0x20>
    6d8c:	01 00 00 00 	nop 
    6d90:	c6 ab 04 00 	stba  %g3, [ %o4 ] #ASI_SCRATCHPAD
    6d94:	87 28 e0 18 	sll  %g3, 0x18, %g3
    6d98:	80 a0 e0 00 	cmp  %g3, 0
    6d9c:	22 bf ff f7 	be,a   6d78 <__ajit_serial_puts__+0x20>
    6da0:	c6 0a 00 0d 	ldub  [ %o0 + %o5 ], %g3
    6da4:	88 01 20 01 	inc  %g4
    6da8:	80 a1 00 09 	cmp  %g4, %o1
    6dac:	12 bf ff f2 	bne  6d74 <__ajit_serial_puts__+0x1c>
    6db0:	9a 10 00 04 	mov  %g4, %o5
    6db4:	81 c3 e0 08 	retl 
    6db8:	01 00 00 00 	nop 

00006dbc <__ajit_serial_gets__>:
    6dbc:	80 a2 60 00 	cmp  %o1, 0
    6dc0:	02 80 00 15 	be  6e14 <__ajit_serial_gets__+0x58>
    6dc4:	09 3f ff cc 	sethi  %hi(0xffff3000), %g4
    6dc8:	9a 10 20 00 	clr  %o5
    6dcc:	84 11 22 00 	or  %g4, 0x200, %g2
    6dd0:	86 10 20 00 	clr  %g3
    6dd4:	88 11 22 08 	or  %g4, 0x208, %g4
    6dd8:	c2 80 84 00 	lda  [ %g2 ] #ASI_SCRATCHPAD, %g1
    6ddc:	80 88 60 02 	btst  2, %g1
    6de0:	02 bf ff fe 	be  6dd8 <__ajit_serial_gets__+0x1c>
    6de4:	80 88 60 10 	btst  0x10, %g1
    6de8:	02 bf ff fc 	be  6dd8 <__ajit_serial_gets__+0x1c>
    6dec:	01 00 00 00 	nop 
    6df0:	c2 89 04 00 	lduba  [ %g4 ] #ASI_SCRATCHPAD, %g1
    6df4:	80 a0 60 00 	cmp  %g1, 0
    6df8:	02 bf ff f8 	be  6dd8 <__ajit_serial_gets__+0x1c>
    6dfc:	01 00 00 00 	nop 
    6e00:	c2 2a 00 0d 	stb  %g1, [ %o0 + %o5 ]
    6e04:	86 00 e0 01 	inc  %g3
    6e08:	80 a0 c0 09 	cmp  %g3, %o1
    6e0c:	12 bf ff f3 	bne  6dd8 <__ajit_serial_gets__+0x1c>
    6e10:	9a 10 00 03 	mov  %g3, %o5
    6e14:	81 c3 e0 08 	retl 
    6e18:	01 00 00 00 	nop 

00006e1c <__ajit_write_serial_control_register_via_vmap__>:
    6e1c:	03 3f ff cc 	sethi  %hi(0xffff3000), %g1
    6e20:	82 10 62 00 	or  %g1, 0x200, %g1	! ffff3200 <_GLOBAL_OFFSET_TABLE_+0xbfff30f8>
    6e24:	81 c3 e0 08 	retl 
    6e28:	d0 20 40 00 	st  %o0, [ %g1 ]

00006e2c <__ajit_read_serial_control_register_via_vmap__>:
    6e2c:	03 3f ff cc 	sethi  %hi(0xffff3000), %g1
    6e30:	82 10 62 00 	or  %g1, 0x200, %g1	! ffff3200 <_GLOBAL_OFFSET_TABLE_+0xbfff30f8>
    6e34:	81 c3 e0 08 	retl 
    6e38:	d0 08 40 00 	ldub  [ %g1 ], %o0

00006e3c <__ajit_write_serial_tx_register_via_vmap__>:
    6e3c:	03 3f ff cc 	sethi  %hi(0xffff3000), %g1
    6e40:	82 10 62 04 	or  %g1, 0x204, %g1	! ffff3204 <_GLOBAL_OFFSET_TABLE_+0xbfff30fc>
    6e44:	81 c3 e0 08 	retl 
    6e48:	d0 28 40 00 	stb  %o0, [ %g1 ]

00006e4c <__ajit_read_serial_tx_register_via_vmap__>:
    6e4c:	03 3f ff cc 	sethi  %hi(0xffff3000), %g1
    6e50:	82 10 62 04 	or  %g1, 0x204, %g1	! ffff3204 <_GLOBAL_OFFSET_TABLE_+0xbfff30fc>
    6e54:	81 c3 e0 08 	retl 
    6e58:	d0 08 40 00 	ldub  [ %g1 ], %o0

00006e5c <__ajit_read_serial_rx_register_via_vmap__>:
    6e5c:	03 3f ff cc 	sethi  %hi(0xffff3000), %g1
    6e60:	82 10 62 08 	or  %g1, 0x208, %g1	! ffff3208 <_GLOBAL_OFFSET_TABLE_+0xbfff3100>
    6e64:	81 c3 e0 08 	retl 
    6e68:	d0 08 40 00 	ldub  [ %g1 ], %o0

00006e6c <__ajit_serial_putchar_via_vmap__>:
    6e6c:	05 3f ff cc 	sethi  %hi(0xffff3000), %g2
    6e70:	82 10 a2 00 	or  %g2, 0x200, %g1	! ffff3200 <_GLOBAL_OFFSET_TABLE_+0xbfff30f8>
    6e74:	c2 00 40 00 	ld  [ %g1 ], %g1
    6e78:	80 88 60 01 	btst  1, %g1
    6e7c:	02 80 00 07 	be  6e98 <__ajit_serial_putchar_via_vmap__+0x2c>
    6e80:	86 10 20 00 	clr  %g3
    6e84:	80 88 60 08 	btst  8, %g1
    6e88:	12 80 00 04 	bne  6e98 <__ajit_serial_putchar_via_vmap__+0x2c>
    6e8c:	84 10 a2 04 	or  %g2, 0x204, %g2
    6e90:	86 10 00 08 	mov  %o0, %g3
    6e94:	d0 28 80 00 	stb  %o0, [ %g2 ]
    6e98:	81 c3 e0 08 	retl 
    6e9c:	90 10 00 03 	mov  %g3, %o0

00006ea0 <__ajit_serial_getchar_via_vmap__>:
    6ea0:	03 3f ff cc 	sethi  %hi(0xffff3000), %g1
    6ea4:	84 10 62 00 	or  %g1, 0x200, %g2	! ffff3200 <_GLOBAL_OFFSET_TABLE_+0xbfff30f8>
    6ea8:	c4 00 80 00 	ld  [ %g2 ], %g2
    6eac:	84 08 a0 12 	and  %g2, 0x12, %g2
    6eb0:	80 a0 a0 12 	cmp  %g2, 0x12
    6eb4:	12 80 00 04 	bne  6ec4 <__ajit_serial_getchar_via_vmap__+0x24>
    6eb8:	90 10 20 00 	clr  %o0
    6ebc:	82 10 62 08 	or  %g1, 0x208, %g1
    6ec0:	d0 08 40 00 	ldub  [ %g1 ], %o0
    6ec4:	81 c3 e0 08 	retl 
    6ec8:	01 00 00 00 	nop 

00006ecc <__ajit_serial_puts_via_vmap__>:
    6ecc:	17 3f ff cc 	sethi  %hi(0xffff3000), %o3
    6ed0:	9a 10 20 00 	clr  %o5
    6ed4:	98 12 e2 00 	or  %o3, 0x200, %o4
    6ed8:	88 10 20 00 	clr  %g4
    6edc:	80 a2 60 00 	cmp  %o1, 0
    6ee0:	02 80 00 15 	be  6f34 <__ajit_serial_puts_via_vmap__+0x68>
    6ee4:	96 12 e2 04 	or  %o3, 0x204, %o3
    6ee8:	c2 03 00 00 	ld  [ %o4 ], %g1
    6eec:	c6 0a 00 0d 	ldub  [ %o0 + %o5 ], %g3
    6ef0:	84 08 60 01 	and  %g1, 1, %g2
    6ef4:	82 08 60 08 	and  %g1, 8, %g1
    6ef8:	80 a0 a0 00 	cmp  %g2, 0
    6efc:	12 80 00 03 	bne  6f08 <__ajit_serial_puts_via_vmap__+0x3c>
    6f00:	80 a0 60 00 	cmp  %g1, 0
    6f04:	30 80 00 00 	b,a   6f04 <__ajit_serial_puts_via_vmap__+0x38>
    6f08:	12 bf ff fd 	bne  6efc <__ajit_serial_puts_via_vmap__+0x30>
    6f0c:	80 a0 a0 00 	cmp  %g2, 0
    6f10:	c6 2a c0 00 	stb  %g3, [ %o3 ]
    6f14:	87 28 e0 18 	sll  %g3, 0x18, %g3
    6f18:	80 a0 e0 00 	cmp  %g3, 0
    6f1c:	22 bf ff f4 	be,a   6eec <__ajit_serial_puts_via_vmap__+0x20>
    6f20:	c2 03 00 00 	ld  [ %o4 ], %g1
    6f24:	88 01 20 01 	inc  %g4
    6f28:	80 a1 00 09 	cmp  %g4, %o1
    6f2c:	12 bf ff ef 	bne  6ee8 <__ajit_serial_puts_via_vmap__+0x1c>
    6f30:	9a 10 00 04 	mov  %g4, %o5
    6f34:	81 c3 e0 08 	retl 
    6f38:	01 00 00 00 	nop 

00006f3c <__ajit_serial_gets_via_vmap__>:
    6f3c:	1b 3f ff cc 	sethi  %hi(0xffff3000), %o5
    6f40:	98 10 20 00 	clr  %o4
    6f44:	88 13 62 00 	or  %o5, 0x200, %g4
    6f48:	86 10 20 00 	clr  %g3
    6f4c:	80 a2 60 00 	cmp  %o1, 0
    6f50:	02 80 00 13 	be  6f9c <__ajit_serial_gets_via_vmap__+0x60>
    6f54:	9a 13 62 08 	or  %o5, 0x208, %o5
    6f58:	c2 01 00 00 	ld  [ %g4 ], %g1
    6f5c:	80 88 60 02 	btst  2, %g1
    6f60:	02 80 00 06 	be  6f78 <__ajit_serial_gets_via_vmap__+0x3c>
    6f64:	84 08 60 10 	and  %g1, 0x10, %g2
    6f68:	80 a0 a0 00 	cmp  %g2, 0
    6f6c:	32 80 00 04 	bne,a   6f7c <__ajit_serial_gets_via_vmap__+0x40>
    6f70:	c2 0b 40 00 	ldub  [ %o5 ], %g1
    6f74:	30 80 00 00 	b,a   6f74 <__ajit_serial_gets_via_vmap__+0x38>
    6f78:	30 80 00 00 	b,a   6f78 <__ajit_serial_gets_via_vmap__+0x3c>
    6f7c:	80 a0 60 00 	cmp  %g1, 0
    6f80:	22 bf ff f7 	be,a   6f5c <__ajit_serial_gets_via_vmap__+0x20>
    6f84:	c2 01 00 00 	ld  [ %g4 ], %g1
    6f88:	c2 2a 00 0c 	stb  %g1, [ %o0 + %o4 ]
    6f8c:	86 00 e0 01 	inc  %g3
    6f90:	80 a0 c0 09 	cmp  %g3, %o1
    6f94:	12 bf ff f1 	bne  6f58 <__ajit_serial_gets_via_vmap__+0x1c>
    6f98:	98 10 00 03 	mov  %g3, %o4
    6f9c:	81 c3 e0 08 	retl 
    6fa0:	01 00 00 00 	nop 

00006fa4 <__ajit_serial_configure_via_vmap__>:
    6fa4:	03 3f ff cc 	sethi  %hi(0xffff3000), %g1
    6fa8:	82 10 62 00 	or  %g1, 0x200, %g1	! ffff3200 <_GLOBAL_OFFSET_TABLE_+0xbfff30f8>
    6fac:	80 a2 20 00 	cmp  %o0, 0
    6fb0:	c4 00 40 00 	ld  [ %g1 ], %g2
    6fb4:	02 80 00 03 	be  6fc0 <__ajit_serial_configure_via_vmap__+0x1c>
    6fb8:	82 08 bf fe 	and  %g2, -2, %g1
    6fbc:	82 10 a0 01 	or  %g2, 1, %g1
    6fc0:	80 a2 60 00 	cmp  %o1, 0
    6fc4:	02 80 00 03 	be  6fd0 <__ajit_serial_configure_via_vmap__+0x2c>
    6fc8:	84 08 7f fd 	and  %g1, -3, %g2
    6fcc:	84 10 60 02 	or  %g1, 2, %g2
    6fd0:	80 a2 a0 00 	cmp  %o2, 0
    6fd4:	02 80 00 03 	be  6fe0 <__ajit_serial_configure_via_vmap__+0x3c>
    6fd8:	82 08 bf fb 	and  %g2, -5, %g1
    6fdc:	82 10 a0 04 	or  %g2, 4, %g1
    6fe0:	05 3f ff cc 	sethi  %hi(0xffff3000), %g2
    6fe4:	84 10 a2 00 	or  %g2, 0x200, %g2	! ffff3200 <_GLOBAL_OFFSET_TABLE_+0xbfff30f8>
    6fe8:	81 c3 e0 08 	retl 
    6fec:	c2 20 80 00 	st  %g1, [ %g2 ]

00006ff0 <__ajit_serial_uart_reset_via_vmap__>:
    6ff0:	03 3f ff cc 	sethi  %hi(0xffff3000), %g1
    6ff4:	82 10 62 00 	or  %g1, 0x200, %g1	! ffff3200 <_GLOBAL_OFFSET_TABLE_+0xbfff30f8>
    6ff8:	c4 08 40 00 	ldub  [ %g1 ], %g2
    6ffc:	81 c3 e0 08 	retl 
    7000:	c4 20 40 00 	st  %g2, [ %g1 ]

00007004 <__ajit_serial_uart_reset_inner__>:
    7004:	03 3f ff cc 	sethi  %hi(0xffff3000), %g1
    7008:	80 a2 20 00 	cmp  %o0, 0
    700c:	12 80 00 08 	bne  702c <__ajit_serial_uart_reset_inner__+0x28>
    7010:	82 10 62 00 	or  %g1, 0x200, %g1
    7014:	c4 80 44 00 	lda  [ %g1 ] #ASI_SCRATCHPAD, %g2
    7018:	86 10 20 08 	mov  8, %g3
    701c:	c6 a0 44 00 	sta  %g3, [ %g1 ] #ASI_SCRATCHPAD
    7020:	c4 a0 44 00 	sta  %g2, [ %g1 ] #ASI_SCRATCHPAD
    7024:	81 c3 e0 08 	retl 
    7028:	01 00 00 00 	nop 
    702c:	c4 08 40 00 	ldub  [ %g1 ], %g2
    7030:	81 c3 e0 08 	retl 
    7034:	c4 20 40 00 	st  %g2, [ %g1 ]

00007038 <__ajit_write_irc_control_register__>:
    7038:	03 3f ff cc 	sethi  %hi(0xffff3000), %g1
    703c:	d0 a0 44 00 	sta  %o0, [ %g1 ] #ASI_SCRATCHPAD
    7040:	81 c3 e0 08 	retl 
    7044:	01 00 00 00 	nop 

00007048 <__ajit_read_irc_control_register__>:
    7048:	11 3f ff cc 	sethi  %hi(0xffff3000), %o0
    704c:	d0 82 04 00 	lda  [ %o0 ] #ASI_SCRATCHPAD, %o0
    7050:	81 c3 e0 08 	retl 
    7054:	01 00 00 00 	nop 

00007058 <__ajit_write_irc_control_register_via_vmap__>:
    7058:	03 3f ff cc 	sethi  %hi(0xffff3000), %g1
    705c:	81 c3 e0 08 	retl 
    7060:	d0 20 40 00 	st  %o0, [ %g1 ]

00007064 <__ajit_read_irc_control_register_via_vmap__>:
    7064:	03 3f ff cc 	sethi  %hi(0xffff3000), %g1
    7068:	81 c3 e0 08 	retl 
    706c:	d0 00 40 00 	ld  [ %g1 ], %o0

00007070 <__ajit_write_spi_master_register__>:
    7070:	91 2a 20 02 	sll  %o0, 2, %o0
    7074:	03 3f ff cc 	sethi  %hi(0xffff3000), %g1
    7078:	82 10 63 00 	or  %g1, 0x300, %g1	! ffff3300 <_GLOBAL_OFFSET_TABLE_+0xbfff31f8>
    707c:	90 02 00 01 	add  %o0, %g1, %o0
    7080:	d2 a2 04 00 	sta  %o1, [ %o0 ] #ASI_SCRATCHPAD
    7084:	81 c3 e0 08 	retl 
    7088:	01 00 00 00 	nop 

0000708c <__ajit_write_spi_master_register_via_vmap__>:
    708c:	91 2a 20 02 	sll  %o0, 2, %o0
    7090:	03 3f ff cc 	sethi  %hi(0xffff3000), %g1
    7094:	82 10 63 00 	or  %g1, 0x300, %g1	! ffff3300 <_GLOBAL_OFFSET_TABLE_+0xbfff31f8>
    7098:	81 c3 e0 08 	retl 
    709c:	d2 2a 00 01 	stb  %o1, [ %o0 + %g1 ]

000070a0 <__ajit_read_spi_master_register__>:
    70a0:	91 2a 20 02 	sll  %o0, 2, %o0
    70a4:	03 3f ff cc 	sethi  %hi(0xffff3000), %g1
    70a8:	82 10 63 00 	or  %g1, 0x300, %g1	! ffff3300 <_GLOBAL_OFFSET_TABLE_+0xbfff31f8>
    70ac:	90 02 00 01 	add  %o0, %g1, %o0
    70b0:	d0 82 04 00 	lda  [ %o0 ] #ASI_SCRATCHPAD, %o0
    70b4:	81 c3 e0 08 	retl 
    70b8:	90 0a 20 ff 	and  %o0, 0xff, %o0

000070bc <__ajit_read_spi_master_register_via_vmap__>:
    70bc:	91 2a 20 02 	sll  %o0, 2, %o0
    70c0:	03 3f ff cc 	sethi  %hi(0xffff3000), %g1
    70c4:	82 10 63 00 	or  %g1, 0x300, %g1	! ffff3300 <_GLOBAL_OFFSET_TABLE_+0xbfff31f8>
    70c8:	81 c3 e0 08 	retl 
    70cc:	d0 0a 00 01 	ldub  [ %o0 + %g1 ], %o0

000070d0 <__ajit_gpio_xfer__>:
    70d0:	09 3f ff cc 	sethi  %hi(0xffff3000), %g4
    70d4:	82 11 23 00 	or  %g4, 0x300, %g1	! ffff3300 <_GLOBAL_OFFSET_TABLE_+0xbfff31f8>
    70d8:	d0 a0 44 00 	sta  %o0, [ %g1 ] #ASI_SCRATCHPAD
    70dc:	82 10 20 13 	mov  0x13, %g1
    70e0:	88 11 23 08 	or  %g4, 0x308, %g4
    70e4:	c2 a1 04 00 	sta  %g1, [ %g4 ] #ASI_SCRATCHPAD
    70e8:	82 10 21 00 	mov  0x100, %g1
    70ec:	c4 81 04 00 	lda  [ %g4 ] #ASI_SCRATCHPAD, %g2
    70f0:	82 00 7f ff 	add  %g1, -1, %g1
    70f4:	87 38 60 1f 	sra  %g1, 0x1f, %g3
    70f8:	86 20 c0 01 	sub  %g3, %g1, %g3
    70fc:	87 30 e0 1f 	srl  %g3, 0x1f, %g3
    7100:	80 88 c0 02 	btst  %g3, %g2
    7104:	12 bf ff fa 	bne  70ec <__ajit_gpio_xfer__+0x1c>
    7108:	11 3f ff cc 	sethi  %hi(0xffff3000), %o0
    710c:	90 12 23 00 	or  %o0, 0x300, %o0	! ffff3300 <_GLOBAL_OFFSET_TABLE_+0xbfff31f8>
    7110:	d0 82 04 00 	lda  [ %o0 ] #ASI_SCRATCHPAD, %o0
    7114:	81 c3 e0 08 	retl 
    7118:	90 0a 20 ff 	and  %o0, 0xff, %o0

0000711c <__ajit_gpio_xfer_via_vmap__>:
    711c:	03 3f ff cc 	sethi  %hi(0xffff3000), %g1
    7120:	84 10 63 00 	or  %g1, 0x300, %g2	! ffff3300 <_GLOBAL_OFFSET_TABLE_+0xbfff31f8>
    7124:	d0 28 80 00 	stb  %o0, [ %g2 ]
    7128:	82 10 63 08 	or  %g1, 0x308, %g1
    712c:	84 10 20 13 	mov  0x13, %g2
    7130:	81 c3 e0 08 	retl 
    7134:	c4 28 40 00 	stb  %g2, [ %g1 ]

00007138 <__ajit_ta_0__>:
    7138:	91 d0 20 00 	ta  0
    713c:	01 00 00 00 	nop 
    7140:	01 00 00 00 	nop 
    7144:	81 c3 e0 08 	retl 
    7148:	01 00 00 00 	nop 

0000714c <__ajit_fsqrtd__>:
    714c:	c1 1a 00 00 	ldd  [ %o0 ], %f0
    7150:	85 a0 05 40 	fsqrtd  %f0, %f2
    7154:	c5 3a 40 00 	std  %f2, [ %o1 ]
    7158:	81 c3 e0 08 	retl 
    715c:	01 00 00 00 	nop 

00007160 <__ajit_fsqrts__>:
    7160:	c1 02 00 00 	ld  [ %o0 ], %f0
    7164:	83 a0 05 20 	fsqrts  %f0, %f1
    7168:	c3 22 40 00 	st  %f1, [ %o1 ]
    716c:	81 c3 e0 08 	retl 
    7170:	01 00 00 00 	nop 

00007174 <__ajit_fitod__>:
    7174:	c1 02 00 00 	ld  [ %o0 ], %f0
    7178:	85 a0 19 00 	fitod  %f0, %f2
    717c:	c5 3a 40 00 	std  %f2, [ %o1 ]
    7180:	81 c3 e0 08 	retl 
    7184:	01 00 00 00 	nop 

00007188 <__ajit_fitos__>:
    7188:	c1 02 00 00 	ld  [ %o0 ], %f0
    718c:	83 a0 18 80 	fitos  %f0, %f1
    7190:	c3 22 40 00 	st  %f1, [ %o1 ]
    7194:	81 c3 e0 08 	retl 
    7198:	01 00 00 00 	nop 

0000719c <__ajit_fdtoi__>:
    719c:	c1 1a 00 00 	ldd  [ %o0 ], %f0
    71a0:	85 a0 1a 40 	fdtoi  %f0, %f2
    71a4:	c5 22 40 00 	st  %f2, [ %o1 ]
    71a8:	81 c3 e0 08 	retl 
    71ac:	01 00 00 00 	nop 

000071b0 <__ajit_fstoi__>:
    71b0:	c1 02 00 00 	ld  [ %o0 ], %f0
    71b4:	83 a0 1a 20 	fstoi  %f0, %f1
    71b8:	c3 22 40 00 	st  %f1, [ %o1 ]
    71bc:	81 c3 e0 08 	retl 
    71c0:	01 00 00 00 	nop 

000071c4 <prbs>:
    71c4:	03 1f ff ff 	sethi  %hi(0x7ffffc00), %g1
    71c8:	82 10 63 ff 	or  %g1, 0x3ff, %g1	! 7fffffff <_GLOBAL_OFFSET_TABLE_+0x3ffffef7>
    71cc:	91 32 20 01 	srl  %o0, 1, %o0
    71d0:	91 2a 20 02 	sll  %o0, 2, %o0
    71d4:	90 0a 00 01 	and  %o0, %g1, %o0
    71d8:	03 10 01 00 	sethi  %hi(0x40040000), %g1
    71dc:	81 c3 e0 08 	retl 
    71e0:	90 12 00 01 	or  %o0, %g1, %o0

000071e4 <init_src_array>:
    71e4:	9d e3 bf 80 	save  %sp, -128, %sp
    71e8:	03 10 00 00 	sethi  %hi(0x40000000), %g1
    71ec:	25 10 00 00 	sethi  %hi(0x40000000), %l2
    71f0:	d1 18 60 58 	ldd  [ %g1 + 0x58 ], %f8
    71f4:	23 10 00 00 	sethi  %hi(0x40000000), %l1
    71f8:	95 a0 00 28 	fmovs  %f8, %f10
    71fc:	97 a0 00 29 	fmovs  %f9, %f11
    7200:	21 10 00 00 	sethi  %hi(0x40000000), %l0
    7204:	b7 2e a0 02 	sll  %i2, 2, %i3
    7208:	d1 3f bf f0 	std  %f8, [ %fp + -16 ]
    720c:	d5 3f bf f8 	std  %f10, [ %fp + -8 ]
    7210:	a4 14 a0 70 	or  %l2, 0x70, %l2
    7214:	a2 14 60 98 	or  %l1, 0x98, %l1
    7218:	a0 14 20 a0 	or  %l0, 0xa0, %l0
    721c:	7f ff fd 85 	call  6830 <__ajit_get_clock_time>
    7220:	01 00 00 00 	nop 
    7224:	84 10 00 18 	mov  %i0, %g2
    7228:	b8 10 00 08 	mov  %o0, %i4
    722c:	ba 10 00 09 	mov  %o1, %i5
    7230:	80 a6 60 00 	cmp  %i1, 0
    7234:	04 80 00 07 	ble  7250 <init_src_array+0x6c>
    7238:	82 10 20 00 	clr  %g1
    723c:	c2 20 80 00 	st  %g1, [ %g2 ]
    7240:	82 00 40 1a 	add  %g1, %i2, %g1
    7244:	80 a6 40 01 	cmp  %i1, %g1
    7248:	14 bf ff fd 	bg  723c <init_src_array+0x58>
    724c:	84 00 80 1b 	add  %g2, %i3, %g2
    7250:	7f ff fd 78 	call  6830 <__ajit_get_clock_time>
    7254:	01 00 00 00 	nop 
    7258:	92 a2 40 1d 	subcc  %o1, %i5, %o1
    725c:	40 00 06 44 	call  8b6c <__floatundidf>
    7260:	90 62 00 1c 	subx  %o0, %i4, %o0
    7264:	d9 1f bf f8 	ldd  [ %fp + -8 ], %f12
    7268:	99 a3 08 40 	faddd  %f12, %f0, %f12
    726c:	d9 3f bf f8 	std  %f12, [ %fp + -8 ]
    7270:	dd 1f bf f8 	ldd  [ %fp + -8 ], %f14
    7274:	d1 1c 80 00 	ldd  [ %l2 ], %f8
    7278:	d9 1c 40 00 	ldd  [ %l1 ], %f12
    727c:	99 a3 89 4c 	fmuld  %f14, %f12, %f12
    7280:	dd 1f bf f0 	ldd  [ %fp + -16 ], %f14
    7284:	9d a3 88 48 	faddd  %f14, %f8, %f14
    7288:	d5 1c 00 00 	ldd  [ %l0 ], %f10
    728c:	81 ab 0a ca 	fcmped  %f12, %f10
    7290:	01 00 00 00 	nop 
    7294:	09 bf ff e2 	fbl  721c <init_src_array+0x38>
    7298:	dd 3f bf f0 	std  %f14, [ %fp + -16 ]
    729c:	b6 10 20 00 	clr  %i3
    72a0:	7f ff fd 64 	call  6830 <__ajit_get_clock_time>
    72a4:	01 00 00 00 	nop 
    72a8:	80 a6 60 00 	cmp  %i1, 0
    72ac:	b8 10 00 08 	mov  %o0, %i4
    72b0:	04 80 00 07 	ble  72cc <init_src_array+0xe8>
    72b4:	ba 10 00 09 	mov  %o1, %i5
    72b8:	82 10 20 00 	clr  %g1
    72bc:	82 00 40 1a 	add  %g1, %i2, %g1
    72c0:	80 a6 40 01 	cmp  %i1, %g1
    72c4:	14 bf ff ff 	bg  72c0 <init_src_array+0xdc>
    72c8:	82 00 40 1a 	add  %g1, %i2, %g1
    72cc:	7f ff fd 59 	call  6830 <__ajit_get_clock_time>
    72d0:	b6 06 e0 01 	inc  %i3
    72d4:	92 a2 40 1d 	subcc  %o1, %i5, %o1
    72d8:	40 00 06 25 	call  8b6c <__floatundidf>
    72dc:	90 62 00 1c 	subx  %o0, %i4, %o0
    72e0:	d1 1f bf f8 	ldd  [ %fp + -8 ], %f8
    72e4:	91 a2 08 c0 	fsubd  %f8, %f0, %f8
    72e8:	f6 27 bf ec 	st  %i3, [ %fp + -20 ]
    72ec:	d1 3f bf f8 	std  %f8, [ %fp + -8 ]
    72f0:	d5 07 bf ec 	ld  [ %fp + -20 ], %f10
    72f4:	d9 1f bf f0 	ldd  [ %fp + -16 ], %f12
    72f8:	91 a0 19 0a 	fitod  %f10, %f8
    72fc:	81 ab 0a c8 	fcmped  %f12, %f8
    7300:	01 00 00 00 	nop 
    7304:	0d bf ff e7 	fbg  72a0 <init_src_array+0xbc>
    7308:	dd 1f bf f8 	ldd  [ %fp + -8 ], %f14
    730c:	03 10 00 00 	sethi  %hi(0x40000000), %g1
    7310:	95 a3 89 cc 	fdivd  %f14, %f12, %f10
    7314:	d1 18 60 a8 	ldd  [ %g1 + 0xa8 ], %f8
    7318:	91 a2 89 48 	fmuld  %f10, %f8, %f8
    731c:	d1 3f bf e0 	std  %f8, [ %fp + -32 ]
    7320:	c4 1f bf e0 	ldd  [ %fp + -32 ], %g2
    7324:	11 10 00 00 	sethi  %hi(0x40000000), %o0
    7328:	92 10 00 02 	mov  %g2, %o1
    732c:	94 10 00 03 	mov  %g3, %o2
    7330:	7f ff f4 e7 	call  46cc <ee_printf>
    7334:	90 12 20 78 	or  %o0, 0x78, %o0
    7338:	d1 1f bf f8 	ldd  [ %fp + -8 ], %f8
    733c:	81 a0 18 c8 	fdtos  %f8, %f0
    7340:	81 c7 e0 08 	ret 
    7344:	81 e8 00 00 	restore 

00007348 <run_test>:
    7348:	9d e3 bf 80 	save  %sp, -128, %sp
    734c:	03 10 00 00 	sethi  %hi(0x40000000), %g1
    7350:	85 2e 20 02 	sll  %i0, 2, %g2
    7354:	d1 18 60 58 	ldd  [ %g1 + 0x58 ], %f8
    7358:	84 00 a0 0a 	add  %g2, 0xa, %g2
    735c:	95 a0 00 28 	fmovs  %f8, %f10
    7360:	84 08 bf f8 	and  %g2, -8, %g2
    7364:	97 a0 00 29 	fmovs  %f9, %f11
    7368:	9c 23 80 02 	sub  %sp, %g2, %sp
    736c:	27 10 00 00 	sethi  %hi(0x40000000), %l3
    7370:	25 10 00 00 	sethi  %hi(0x40000000), %l2
    7374:	23 10 00 00 	sethi  %hi(0x40000000), %l1
    7378:	a0 03 a0 5c 	add  %sp, 0x5c, %l0
    737c:	b7 2e 60 02 	sll  %i1, 2, %i3
    7380:	d1 3f bf f0 	std  %f8, [ %fp + -16 ]
    7384:	d5 3f bf f8 	std  %f10, [ %fp + -8 ]
    7388:	a6 14 e0 70 	or  %l3, 0x70, %l3
    738c:	a4 14 a0 98 	or  %l2, 0x98, %l2
    7390:	a2 14 60 a0 	or  %l1, 0xa0, %l1
    7394:	7f ff fd 27 	call  6830 <__ajit_get_clock_time>
    7398:	01 00 00 00 	nop 
    739c:	82 10 20 00 	clr  %g1	! 0 <_start>
    73a0:	b8 10 00 08 	mov  %o0, %i4
    73a4:	ba 10 00 09 	mov  %o1, %i5
    73a8:	80 a6 20 00 	cmp  %i0, 0
    73ac:	04 80 00 08 	ble  73cc <run_test+0x84>
    73b0:	84 10 20 00 	clr  %g2
    73b4:	c6 06 80 01 	ld  [ %i2 + %g1 ], %g3
    73b8:	c6 24 00 01 	st  %g3, [ %l0 + %g1 ]
    73bc:	84 00 80 19 	add  %g2, %i1, %g2
    73c0:	80 a6 00 02 	cmp  %i0, %g2
    73c4:	14 bf ff fc 	bg  73b4 <run_test+0x6c>
    73c8:	82 00 40 1b 	add  %g1, %i3, %g1
    73cc:	7f ff fd 19 	call  6830 <__ajit_get_clock_time>
    73d0:	01 00 00 00 	nop 
    73d4:	92 a2 40 1d 	subcc  %o1, %i5, %o1
    73d8:	40 00 05 e5 	call  8b6c <__floatundidf>
    73dc:	90 62 00 1c 	subx  %o0, %i4, %o0
    73e0:	d9 1f bf f8 	ldd  [ %fp + -8 ], %f12
    73e4:	99 a3 08 40 	faddd  %f12, %f0, %f12
    73e8:	d9 3f bf f8 	std  %f12, [ %fp + -8 ]
    73ec:	dd 1f bf f8 	ldd  [ %fp + -8 ], %f14
    73f0:	d1 1c c0 00 	ldd  [ %l3 ], %f8
    73f4:	d9 1c 80 00 	ldd  [ %l2 ], %f12
    73f8:	99 a3 89 4c 	fmuld  %f14, %f12, %f12
    73fc:	dd 1f bf f0 	ldd  [ %fp + -16 ], %f14
    7400:	9d a3 88 48 	faddd  %f14, %f8, %f14
    7404:	d5 1c 40 00 	ldd  [ %l1 ], %f10
    7408:	81 ab 0a ca 	fcmped  %f12, %f10
    740c:	01 00 00 00 	nop 
    7410:	09 bf ff e1 	fbl  7394 <run_test+0x4c>
    7414:	dd 3f bf f0 	std  %f14, [ %fp + -16 ]
    7418:	b6 10 20 00 	clr  %i3
    741c:	7f ff fd 05 	call  6830 <__ajit_get_clock_time>
    7420:	01 00 00 00 	nop 
    7424:	80 a6 20 00 	cmp  %i0, 0
    7428:	b8 10 00 08 	mov  %o0, %i4
    742c:	04 80 00 07 	ble  7448 <run_test+0x100>
    7430:	ba 10 00 09 	mov  %o1, %i5
    7434:	82 10 20 00 	clr  %g1
    7438:	82 00 40 19 	add  %g1, %i1, %g1
    743c:	80 a6 00 01 	cmp  %i0, %g1
    7440:	14 bf ff ff 	bg  743c <run_test+0xf4>
    7444:	82 00 40 19 	add  %g1, %i1, %g1
    7448:	7f ff fc fa 	call  6830 <__ajit_get_clock_time>
    744c:	b6 06 e0 01 	inc  %i3
    7450:	92 a2 40 1d 	subcc  %o1, %i5, %o1
    7454:	40 00 05 c6 	call  8b6c <__floatundidf>
    7458:	90 62 00 1c 	subx  %o0, %i4, %o0
    745c:	d1 1f bf f8 	ldd  [ %fp + -8 ], %f8
    7460:	91 a2 08 c0 	fsubd  %f8, %f0, %f8
    7464:	f6 27 bf ec 	st  %i3, [ %fp + -20 ]
    7468:	d1 3f bf f8 	std  %f8, [ %fp + -8 ]
    746c:	d5 07 bf ec 	ld  [ %fp + -20 ], %f10
    7470:	d9 1f bf f0 	ldd  [ %fp + -16 ], %f12
    7474:	91 a0 19 0a 	fitod  %f10, %f8
    7478:	81 aa 0a cc 	fcmped  %f8, %f12
    747c:	01 00 00 00 	nop 
    7480:	09 bf ff e7 	fbl  741c <run_test+0xd4>
    7484:	dd 1f bf f8 	ldd  [ %fp + -8 ], %f14
    7488:	03 10 00 00 	sethi  %hi(0x40000000), %g1
    748c:	95 a3 89 cc 	fdivd  %f14, %f12, %f10
    7490:	d1 18 60 a8 	ldd  [ %g1 + 0xa8 ], %f8
    7494:	91 a2 89 48 	fmuld  %f10, %f8, %f8
    7498:	d1 3f bf e0 	std  %f8, [ %fp + -32 ]
    749c:	c4 1f bf e0 	ldd  [ %fp + -32 ], %g2
    74a0:	11 10 00 00 	sethi  %hi(0x40000000), %o0
    74a4:	92 10 00 02 	mov  %g2, %o1
    74a8:	94 10 00 03 	mov  %g3, %o2
    74ac:	7f ff f4 88 	call  46cc <ee_printf>
    74b0:	90 12 20 78 	or  %o0, 0x78, %o0
    74b4:	d1 1f bf f8 	ldd  [ %fp + -8 ], %f8
    74b8:	93 a0 1a 48 	fdtoi  %f8, %f9
    74bc:	d3 27 bf ec 	st  %f9, [ %fp + -20 ]
    74c0:	f0 07 bf ec 	ld  [ %fp + -20 ], %i0
    74c4:	81 c7 e0 08 	ret 
    74c8:	81 e8 00 00 	restore 
    74cc:	80 8a 60 01 	btst  1, %o1
    74d0:	02 80 00 08 	be  74f0 <run_test+0x1a8>
    74d4:	80 8a 60 02 	btst  2, %o1
    74d8:	c4 0a 7f ff 	ldub  [ %o1 + -1 ], %g2
    74dc:	92 22 60 01 	dec  %o1
    74e0:	c4 2a 3f ff 	stb  %g2, [ %o0 + -1 ]
    74e4:	94 22 a0 01 	dec  %o2
    74e8:	02 80 00 1a 	be  7550 <__GI_memmove+0x3c>
    74ec:	90 22 20 01 	dec  %o0
    74f0:	c4 12 7f fe 	lduh  [ %o1 + -2 ], %g2
    74f4:	92 22 60 02 	sub  %o1, 2, %o1
    74f8:	c4 32 3f fe 	sth  %g2, [ %o0 + -2 ]
    74fc:	94 22 a0 02 	sub  %o2, 2, %o2
    7500:	10 80 00 14 	b  7550 <__GI_memmove+0x3c>
    7504:	90 22 20 02 	sub  %o0, 2, %o0

00007508 <bcopy>:
    7508:	96 10 00 08 	mov  %o0, %o3
    750c:	90 10 00 09 	mov  %o1, %o0
    7510:	92 10 00 0b 	mov  %o3, %o1

00007514 <__GI_memmove>:
    7514:	80 a2 00 09 	cmp  %o0, %o1
    7518:	d0 23 a0 40 	st  %o0, [ %sp + 0x40 ]
    751c:	08 80 01 79 	bleu  7b00 <__GI_memcpy+0x8>
    7520:	98 22 00 09 	sub  %o0, %o1, %o4
    7524:	96 02 40 0a 	add  %o1, %o2, %o3
    7528:	80 a2 c0 08 	cmp  %o3, %o0
    752c:	08 80 01 76 	bleu  7b04 <__GI_memcpy+0xc>
    7530:	9a 8b 20 03 	andcc  %o4, 3, %o5
    7534:	92 02 40 0a 	add  %o1, %o2, %o1
    7538:	90 02 00 0a 	add  %o0, %o2, %o0
    753c:	12 80 00 f9 	bne  7920 <__GI_memmove+0x40c>
    7540:	80 a2 a0 0f 	cmp  %o2, 0xf
    7544:	08 80 00 eb 	bleu  78f0 <__GI_memmove+0x3dc>
    7548:	80 8a 60 03 	btst  3, %o1
    754c:	12 bf ff e0 	bne  74cc <run_test+0x184>
    7550:	80 8a 60 04 	btst  4, %o1
    7554:	02 80 00 07 	be  7570 <__GI_memmove+0x5c>
    7558:	82 10 00 0a 	mov  %o2, %g1
    755c:	d8 02 7f fc 	ld  [ %o1 + -4 ], %o4
    7560:	82 20 60 04 	sub  %g1, 4, %g1
    7564:	d8 22 3f fc 	st  %o4, [ %o0 + -4 ]
    7568:	92 22 60 04 	sub  %o1, 4, %o1
    756c:	90 22 20 04 	sub  %o0, 4, %o0
    7570:	8c 88 7f 80 	andcc  %g1, -128, %g6
    7574:	02 80 00 37 	be  7650 <__GI_memmove+0x13c>
    7578:	80 8a 20 04 	btst  4, %o0
    757c:	02 80 00 84 	be  778c <__GI_memmove+0x278>
    7580:	d4 1a 7f e0 	ldd  [ %o1 + -32 ], %o2
    7584:	d8 1a 7f e8 	ldd  [ %o1 + -24 ], %o4
    7588:	c4 1a 7f f0 	ldd  [ %o1 + -16 ], %g2
    758c:	c8 1a 7f f8 	ldd  [ %o1 + -8 ], %g4
    7590:	d4 22 3f e0 	st  %o2, [ %o0 + -32 ]
    7594:	d6 22 3f e4 	st  %o3, [ %o0 + -28 ]
    7598:	d8 22 3f e8 	st  %o4, [ %o0 + -24 ]
    759c:	da 22 3f ec 	st  %o5, [ %o0 + -20 ]
    75a0:	c4 22 3f f0 	st  %g2, [ %o0 + -16 ]
    75a4:	c6 22 3f f4 	st  %g3, [ %o0 + -12 ]
    75a8:	c8 22 3f f8 	st  %g4, [ %o0 + -8 ]
    75ac:	ca 22 3f fc 	st  %g5, [ %o0 + -4 ]
    75b0:	d4 1a 7f c0 	ldd  [ %o1 + -64 ], %o2
    75b4:	d8 1a 7f c8 	ldd  [ %o1 + -56 ], %o4
    75b8:	c4 1a 7f d0 	ldd  [ %o1 + -48 ], %g2
    75bc:	c8 1a 7f d8 	ldd  [ %o1 + -40 ], %g4
    75c0:	d4 22 3f c0 	st  %o2, [ %o0 + -64 ]
    75c4:	d6 22 3f c4 	st  %o3, [ %o0 + -60 ]
    75c8:	d8 22 3f c8 	st  %o4, [ %o0 + -56 ]
    75cc:	da 22 3f cc 	st  %o5, [ %o0 + -52 ]
    75d0:	c4 22 3f d0 	st  %g2, [ %o0 + -48 ]
    75d4:	c6 22 3f d4 	st  %g3, [ %o0 + -44 ]
    75d8:	c8 22 3f d8 	st  %g4, [ %o0 + -40 ]
    75dc:	ca 22 3f dc 	st  %g5, [ %o0 + -36 ]
    75e0:	d4 1a 7f a0 	ldd  [ %o1 + -96 ], %o2
    75e4:	d8 1a 7f a8 	ldd  [ %o1 + -88 ], %o4
    75e8:	c4 1a 7f b0 	ldd  [ %o1 + -80 ], %g2
    75ec:	c8 1a 7f b8 	ldd  [ %o1 + -72 ], %g4
    75f0:	d4 22 3f a0 	st  %o2, [ %o0 + -96 ]
    75f4:	d6 22 3f a4 	st  %o3, [ %o0 + -92 ]
    75f8:	d8 22 3f a8 	st  %o4, [ %o0 + -88 ]
    75fc:	da 22 3f ac 	st  %o5, [ %o0 + -84 ]
    7600:	c4 22 3f b0 	st  %g2, [ %o0 + -80 ]
    7604:	c6 22 3f b4 	st  %g3, [ %o0 + -76 ]
    7608:	c8 22 3f b8 	st  %g4, [ %o0 + -72 ]
    760c:	ca 22 3f bc 	st  %g5, [ %o0 + -68 ]
    7610:	d4 1a 7f 80 	ldd  [ %o1 + -128 ], %o2
    7614:	d8 1a 7f 88 	ldd  [ %o1 + -120 ], %o4
    7618:	c4 1a 7f 90 	ldd  [ %o1 + -112 ], %g2
    761c:	c8 1a 7f 98 	ldd  [ %o1 + -104 ], %g4
    7620:	d4 22 3f 80 	st  %o2, [ %o0 + -128 ]
    7624:	d6 22 3f 84 	st  %o3, [ %o0 + -124 ]
    7628:	d8 22 3f 88 	st  %o4, [ %o0 + -120 ]
    762c:	da 22 3f 8c 	st  %o5, [ %o0 + -116 ]
    7630:	c4 22 3f 90 	st  %g2, [ %o0 + -112 ]
    7634:	c6 22 3f 94 	st  %g3, [ %o0 + -108 ]
    7638:	c8 22 3f 98 	st  %g4, [ %o0 + -104 ]
    763c:	ca 22 3f 9c 	st  %g5, [ %o0 + -100 ]
    7640:	8c a1 a0 80 	subcc  %g6, 0x80, %g6
    7644:	92 22 60 80 	sub  %o1, 0x80, %o1
    7648:	12 bf ff ce 	bne  7580 <__GI_memmove+0x6c>
    764c:	90 22 20 80 	sub  %o0, 0x80, %o0
    7650:	8c 88 60 70 	andcc  %g1, 0x70, %g6
    7654:	02 80 00 34 	be  7724 <__GI_memmove+0x210>
    7658:	80 88 60 08 	btst  8, %g1
    765c:	99 31 a0 01 	srl  %g6, 1, %o4
    7660:	84 10 00 0f 	mov  %o7, %g2
    7664:	98 01 80 0c 	add  %g6, %o4, %o4
    7668:	40 00 05 3d 	call  8b5c <__GI_memcpy+0x1064>
    766c:	92 22 40 06 	sub  %o1, %g6, %o1
    7670:	9e 10 00 02 	mov  %g2, %o7
    7674:	81 c3 60 bc 	jmp  %o5 + 0xbc
    7678:	90 22 00 06 	sub  %o0, %g6, %o0
    767c:	c4 1a 60 60 	ldd  [ %o1 + 0x60 ], %g2
    7680:	c8 1a 60 68 	ldd  [ %o1 + 0x68 ], %g4
    7684:	c4 22 20 60 	st  %g2, [ %o0 + 0x60 ]
    7688:	c6 22 20 64 	st  %g3, [ %o0 + 0x64 ]
    768c:	c8 22 20 68 	st  %g4, [ %o0 + 0x68 ]
    7690:	ca 22 20 6c 	st  %g5, [ %o0 + 0x6c ]
    7694:	c4 1a 60 50 	ldd  [ %o1 + 0x50 ], %g2
    7698:	c8 1a 60 58 	ldd  [ %o1 + 0x58 ], %g4
    769c:	c4 22 20 50 	st  %g2, [ %o0 + 0x50 ]
    76a0:	c6 22 20 54 	st  %g3, [ %o0 + 0x54 ]
    76a4:	c8 22 20 58 	st  %g4, [ %o0 + 0x58 ]
    76a8:	ca 22 20 5c 	st  %g5, [ %o0 + 0x5c ]
    76ac:	c4 1a 60 40 	ldd  [ %o1 + 0x40 ], %g2
    76b0:	c8 1a 60 48 	ldd  [ %o1 + 0x48 ], %g4
    76b4:	c4 22 20 40 	st  %g2, [ %o0 + 0x40 ]
    76b8:	c6 22 20 44 	st  %g3, [ %o0 + 0x44 ]
    76bc:	c8 22 20 48 	st  %g4, [ %o0 + 0x48 ]
    76c0:	ca 22 20 4c 	st  %g5, [ %o0 + 0x4c ]
    76c4:	c4 1a 60 30 	ldd  [ %o1 + 0x30 ], %g2
    76c8:	c8 1a 60 38 	ldd  [ %o1 + 0x38 ], %g4
    76cc:	c4 22 20 30 	st  %g2, [ %o0 + 0x30 ]
    76d0:	c6 22 20 34 	st  %g3, [ %o0 + 0x34 ]
    76d4:	c8 22 20 38 	st  %g4, [ %o0 + 0x38 ]
    76d8:	ca 22 20 3c 	st  %g5, [ %o0 + 0x3c ]
    76dc:	c4 1a 60 20 	ldd  [ %o1 + 0x20 ], %g2
    76e0:	c8 1a 60 28 	ldd  [ %o1 + 0x28 ], %g4
    76e4:	c4 22 20 20 	st  %g2, [ %o0 + 0x20 ]
    76e8:	c6 22 20 24 	st  %g3, [ %o0 + 0x24 ]
    76ec:	c8 22 20 28 	st  %g4, [ %o0 + 0x28 ]
    76f0:	ca 22 20 2c 	st  %g5, [ %o0 + 0x2c ]
    76f4:	c4 1a 60 10 	ldd  [ %o1 + 0x10 ], %g2
    76f8:	c8 1a 60 18 	ldd  [ %o1 + 0x18 ], %g4
    76fc:	c4 22 20 10 	st  %g2, [ %o0 + 0x10 ]
    7700:	c6 22 20 14 	st  %g3, [ %o0 + 0x14 ]
    7704:	c8 22 20 18 	st  %g4, [ %o0 + 0x18 ]
    7708:	ca 22 20 1c 	st  %g5, [ %o0 + 0x1c ]
    770c:	c4 1a 60 00 	ldd  [ %o1 ], %g2
    7710:	c8 1a 60 08 	ldd  [ %o1 + 8 ], %g4
    7714:	c4 22 20 00 	st  %g2, [ %o0 ]
    7718:	c6 22 20 04 	st  %g3, [ %o0 + 4 ]
    771c:	c8 22 20 08 	st  %g4, [ %o0 + 8 ]
    7720:	ca 22 20 0c 	st  %g5, [ %o0 + 0xc ]
    7724:	02 80 00 07 	be  7740 <__GI_memmove+0x22c>
    7728:	80 88 60 04 	btst  4, %g1
    772c:	c4 1a 7f f8 	ldd  [ %o1 + -8 ], %g2
    7730:	90 22 20 08 	sub  %o0, 8, %o0
    7734:	92 22 60 08 	sub  %o1, 8, %o1
    7738:	c4 22 00 00 	st  %g2, [ %o0 ]
    773c:	c6 22 20 04 	st  %g3, [ %o0 + 4 ]
    7740:	02 80 00 06 	be  7758 <__GI_memmove+0x244>
    7744:	80 88 60 02 	btst  2, %g1
    7748:	c4 02 7f fc 	ld  [ %o1 + -4 ], %g2
    774c:	92 22 60 04 	sub  %o1, 4, %o1
    7750:	c4 22 3f fc 	st  %g2, [ %o0 + -4 ]
    7754:	90 22 20 04 	sub  %o0, 4, %o0
    7758:	02 80 00 06 	be  7770 <__GI_memmove+0x25c>
    775c:	80 88 60 01 	btst  1, %g1
    7760:	c4 12 7f fe 	lduh  [ %o1 + -2 ], %g2
    7764:	92 22 60 02 	sub  %o1, 2, %o1
    7768:	c4 32 3f fe 	sth  %g2, [ %o0 + -2 ]
    776c:	90 22 20 02 	sub  %o0, 2, %o0
    7770:	02 80 00 04 	be  7780 <__GI_memmove+0x26c>
    7774:	01 00 00 00 	nop 
    7778:	c4 0a 7f ff 	ldub  [ %o1 + -1 ], %g2
    777c:	c4 2a 3f ff 	stb  %g2, [ %o0 + -1 ]
    7780:	81 c3 e0 08 	retl 
    7784:	d0 03 a0 40 	ld  [ %sp + 0x40 ], %o0
    7788:	d4 1a 7f e0 	ldd  [ %o1 + -32 ], %o2
    778c:	d8 1a 7f e8 	ldd  [ %o1 + -24 ], %o4
    7790:	c4 1a 7f f0 	ldd  [ %o1 + -16 ], %g2
    7794:	c8 1a 7f f8 	ldd  [ %o1 + -8 ], %g4
    7798:	d4 3a 3f e0 	std  %o2, [ %o0 + -32 ]
    779c:	d8 3a 3f e8 	std  %o4, [ %o0 + -24 ]
    77a0:	c4 3a 3f f0 	std  %g2, [ %o0 + -16 ]
    77a4:	c8 3a 3f f8 	std  %g4, [ %o0 + -8 ]
    77a8:	d4 1a 7f c0 	ldd  [ %o1 + -64 ], %o2
    77ac:	d8 1a 7f c8 	ldd  [ %o1 + -56 ], %o4
    77b0:	c4 1a 7f d0 	ldd  [ %o1 + -48 ], %g2
    77b4:	c8 1a 7f d8 	ldd  [ %o1 + -40 ], %g4
    77b8:	d4 3a 3f c0 	std  %o2, [ %o0 + -64 ]
    77bc:	d8 3a 3f c8 	std  %o4, [ %o0 + -56 ]
    77c0:	c4 3a 3f d0 	std  %g2, [ %o0 + -48 ]
    77c4:	c8 3a 3f d8 	std  %g4, [ %o0 + -40 ]
    77c8:	d4 1a 7f a0 	ldd  [ %o1 + -96 ], %o2
    77cc:	d8 1a 7f a8 	ldd  [ %o1 + -88 ], %o4
    77d0:	c4 1a 7f b0 	ldd  [ %o1 + -80 ], %g2
    77d4:	c8 1a 7f b8 	ldd  [ %o1 + -72 ], %g4
    77d8:	d4 3a 3f a0 	std  %o2, [ %o0 + -96 ]
    77dc:	d8 3a 3f a8 	std  %o4, [ %o0 + -88 ]
    77e0:	c4 3a 3f b0 	std  %g2, [ %o0 + -80 ]
    77e4:	c8 3a 3f b8 	std  %g4, [ %o0 + -72 ]
    77e8:	d4 1a 7f 80 	ldd  [ %o1 + -128 ], %o2
    77ec:	d8 1a 7f 88 	ldd  [ %o1 + -120 ], %o4
    77f0:	c4 1a 7f 90 	ldd  [ %o1 + -112 ], %g2
    77f4:	c8 1a 7f 98 	ldd  [ %o1 + -104 ], %g4
    77f8:	d4 3a 3f 80 	std  %o2, [ %o0 + -128 ]
    77fc:	d8 3a 3f 88 	std  %o4, [ %o0 + -120 ]
    7800:	c4 3a 3f 90 	std  %g2, [ %o0 + -112 ]
    7804:	c8 3a 3f 98 	std  %g4, [ %o0 + -104 ]
    7808:	8c a1 a0 80 	subcc  %g6, 0x80, %g6
    780c:	92 22 60 80 	sub  %o1, 0x80, %o1
    7810:	12 bf ff de 	bne  7788 <__GI_memmove+0x274>
    7814:	90 22 20 80 	sub  %o0, 0x80, %o0
    7818:	8c 88 60 70 	andcc  %g1, 0x70, %g6
    781c:	02 bf ff c2 	be  7724 <__GI_memmove+0x210>
    7820:	80 88 60 08 	btst  8, %g1
    7824:	99 31 a0 01 	srl  %g6, 1, %o4
    7828:	84 10 00 0f 	mov  %o7, %g2
    782c:	98 01 80 0c 	add  %g6, %o4, %o4
    7830:	40 00 04 cb 	call  8b5c <__GI_memcpy+0x1064>
    7834:	92 22 40 06 	sub  %o1, %g6, %o1
    7838:	9e 10 00 02 	mov  %g2, %o7
    783c:	81 c3 7e f4 	jmp  %o5 + -268
    7840:	90 22 00 06 	sub  %o0, %g6, %o0
    7844:	96 0a a0 0e 	and  %o2, 0xe, %o3
    7848:	84 10 00 0f 	mov  %o7, %g2
    784c:	99 2a e0 03 	sll  %o3, 3, %o4
    7850:	90 22 00 0b 	sub  %o0, %o3, %o0
    7854:	40 00 04 c2 	call  8b5c <__GI_memcpy+0x1064>
    7858:	92 22 40 0b 	sub  %o1, %o3, %o1
    785c:	9e 10 00 02 	mov  %g2, %o7
    7860:	81 c3 60 84 	jmp  %o5 + 0x84
    7864:	80 8a a0 01 	btst  1, %o2
    7868:	c4 0a 60 0c 	ldub  [ %o1 + 0xc ], %g2
    786c:	c6 0a 60 0d 	ldub  [ %o1 + 0xd ], %g3
    7870:	c4 2a 20 0c 	stb  %g2, [ %o0 + 0xc ]
    7874:	c6 2a 20 0d 	stb  %g3, [ %o0 + 0xd ]
    7878:	c4 0a 60 0a 	ldub  [ %o1 + 0xa ], %g2
    787c:	c6 0a 60 0b 	ldub  [ %o1 + 0xb ], %g3
    7880:	c4 2a 20 0a 	stb  %g2, [ %o0 + 0xa ]
    7884:	c6 2a 20 0b 	stb  %g3, [ %o0 + 0xb ]
    7888:	c4 0a 60 08 	ldub  [ %o1 + 8 ], %g2
    788c:	c6 0a 60 09 	ldub  [ %o1 + 9 ], %g3
    7890:	c4 2a 20 08 	stb  %g2, [ %o0 + 8 ]
    7894:	c6 2a 20 09 	stb  %g3, [ %o0 + 9 ]
    7898:	c4 0a 60 06 	ldub  [ %o1 + 6 ], %g2
    789c:	c6 0a 60 07 	ldub  [ %o1 + 7 ], %g3
    78a0:	c4 2a 20 06 	stb  %g2, [ %o0 + 6 ]
    78a4:	c6 2a 20 07 	stb  %g3, [ %o0 + 7 ]
    78a8:	c4 0a 60 04 	ldub  [ %o1 + 4 ], %g2
    78ac:	c6 0a 60 05 	ldub  [ %o1 + 5 ], %g3
    78b0:	c4 2a 20 04 	stb  %g2, [ %o0 + 4 ]
    78b4:	c6 2a 20 05 	stb  %g3, [ %o0 + 5 ]
    78b8:	c4 0a 60 02 	ldub  [ %o1 + 2 ], %g2
    78bc:	c6 0a 60 03 	ldub  [ %o1 + 3 ], %g3
    78c0:	c4 2a 20 02 	stb  %g2, [ %o0 + 2 ]
    78c4:	c6 2a 20 03 	stb  %g3, [ %o0 + 3 ]
    78c8:	c4 0a 60 00 	ldub  [ %o1 ], %g2
    78cc:	c6 0a 60 01 	ldub  [ %o1 + 1 ], %g3
    78d0:	c4 2a 20 00 	stb  %g2, [ %o0 ]
    78d4:	c6 2a 20 01 	stb  %g3, [ %o0 + 1 ]
    78d8:	02 80 00 04 	be  78e8 <__GI_memmove+0x3d4>
    78dc:	01 00 00 00 	nop 
    78e0:	c4 0a 7f ff 	ldub  [ %o1 + -1 ], %g2
    78e4:	c4 2a 3f ff 	stb  %g2, [ %o0 + -1 ]
    78e8:	81 c3 e0 08 	retl 
    78ec:	d0 03 a0 40 	ld  [ %sp + 0x40 ], %o0
    78f0:	12 bf ff d5 	bne  7844 <__GI_memmove+0x330>
    78f4:	80 8a a0 08 	btst  8, %o2
    78f8:	02 80 00 08 	be  7918 <__GI_memmove+0x404>
    78fc:	80 8a a0 04 	btst  4, %o2
    7900:	c4 02 7f f8 	ld  [ %o1 + -8 ], %g2
    7904:	c6 02 7f fc 	ld  [ %o1 + -4 ], %g3
    7908:	92 22 60 08 	sub  %o1, 8, %o1
    790c:	c4 22 3f f8 	st  %g2, [ %o0 + -8 ]
    7910:	c6 22 3f fc 	st  %g3, [ %o0 + -4 ]
    7914:	90 22 20 08 	sub  %o0, 8, %o0
    7918:	10 bf ff 8a 	b  7740 <__GI_memmove+0x22c>
    791c:	82 10 00 0a 	mov  %o2, %g1
    7920:	80 a2 a0 0f 	cmp  %o2, 0xf
    7924:	08 bf ff c8 	bleu  7844 <__GI_memmove+0x330>
    7928:	80 8a 20 03 	btst  3, %o0
    792c:	02 80 00 11 	be  7970 <__GI_memmove+0x45c>
    7930:	80 8a 20 01 	btst  1, %o0
    7934:	02 80 00 08 	be  7954 <__GI_memmove+0x440>
    7938:	80 8a 20 02 	btst  2, %o0
    793c:	ca 0a 7f ff 	ldub  [ %o1 + -1 ], %g5
    7940:	92 22 60 01 	dec  %o1
    7944:	ca 2a 3f ff 	stb  %g5, [ %o0 + -1 ]
    7948:	90 22 20 01 	dec  %o0
    794c:	02 80 00 09 	be  7970 <__GI_memmove+0x45c>
    7950:	94 22 a0 01 	dec  %o2
    7954:	ca 0a 7f ff 	ldub  [ %o1 + -1 ], %g5
    7958:	92 22 60 02 	sub  %o1, 2, %o1
    795c:	ca 2a 3f ff 	stb  %g5, [ %o0 + -1 ]
    7960:	90 22 20 02 	sub  %o0, 2, %o0
    7964:	ca 0a 40 00 	ldub  [ %o1 ], %g5
    7968:	94 22 a0 02 	sub  %o2, 2, %o2
    796c:	ca 2a 00 00 	stb  %g5, [ %o0 ]
    7970:	84 0a 60 03 	and  %o1, 3, %g2
    7974:	92 0a 7f fc 	and  %o1, -4, %o1
    7978:	86 0a a0 0c 	and  %o2, 0xc, %g3
    797c:	92 02 60 04 	add  %o1, 4, %o1
    7980:	80 a0 e0 04 	cmp  %g3, 4
    7984:	89 28 a0 03 	sll  %g2, 3, %g4
    7988:	84 10 20 20 	mov  0x20, %g2
    798c:	02 80 00 18 	be  79ec <__GI_memmove+0x4d8>
    7990:	8c 20 80 04 	sub  %g2, %g4, %g6
    7994:	0a 80 00 10 	bcs  79d4 <__GI_memmove+0x4c0>
    7998:	80 a0 e0 08 	cmp  %g3, 8
    799c:	02 80 00 08 	be  79bc <__GI_memmove+0x4a8>
    79a0:	87 32 a0 02 	srl  %o2, 2, %g3
    79a4:	d6 02 7f fc 	ld  [ %o1 + -4 ], %o3
    79a8:	90 02 3f f8 	add  %o0, -8, %o0
    79ac:	d8 02 7f f8 	ld  [ %o1 + -8 ], %o4
    79b0:	92 02 7f f0 	add  %o1, -16, %o1
    79b4:	10 80 00 1e 	b  7a2c <__GI_memmove+0x518>
    79b8:	86 00 e0 01 	inc  %g3
    79bc:	d8 02 7f fc 	ld  [ %o1 + -4 ], %o4
    79c0:	90 02 3f fc 	add  %o0, -4, %o0
    79c4:	c2 02 7f f8 	ld  [ %o1 + -8 ], %g1
    79c8:	92 02 7f f4 	add  %o1, -12, %o1
    79cc:	10 80 00 1d 	b  7a40 <__GI_memmove+0x52c>
    79d0:	86 00 e0 02 	add  %g3, 2, %g3
    79d4:	da 02 7f fc 	ld  [ %o1 + -4 ], %o5
    79d8:	90 02 3f f4 	add  %o0, -12, %o0
    79dc:	d6 02 7f f8 	ld  [ %o1 + -8 ], %o3
    79e0:	92 02 7f ec 	add  %o1, -20, %o1
    79e4:	10 80 00 0d 	b  7a18 <__GI_memmove+0x504>
    79e8:	87 32 a0 02 	srl  %o2, 2, %g3
    79ec:	c2 02 7f fc 	ld  [ %o1 + -4 ], %g1
    79f0:	87 32 a0 02 	srl  %o2, 2, %g3
    79f4:	da 02 7f f8 	ld  [ %o1 + -8 ], %o5
    79f8:	92 02 7f e8 	add  %o1, -24, %o1
    79fc:	90 02 3f f0 	add  %o0, -16, %o0
    7a00:	86 00 ff ff 	add  %g3, -1, %g3
    7a04:	d6 02 60 0c 	ld  [ %o1 + 0xc ], %o3
    7a08:	85 2b 40 04 	sll  %o5, %g4, %g2
    7a0c:	8b 30 40 06 	srl  %g1, %g6, %g5
    7a10:	84 10 80 05 	or  %g2, %g5, %g2
    7a14:	c4 22 20 0c 	st  %g2, [ %o0 + 0xc ]
    7a18:	d8 02 60 08 	ld  [ %o1 + 8 ], %o4
    7a1c:	85 2a c0 04 	sll  %o3, %g4, %g2
    7a20:	8b 33 40 06 	srl  %o5, %g6, %g5
    7a24:	84 10 80 05 	or  %g2, %g5, %g2
    7a28:	c4 22 20 08 	st  %g2, [ %o0 + 8 ]
    7a2c:	c2 02 60 04 	ld  [ %o1 + 4 ], %g1
    7a30:	85 2b 00 04 	sll  %o4, %g4, %g2
    7a34:	8b 32 c0 06 	srl  %o3, %g6, %g5
    7a38:	84 10 80 05 	or  %g2, %g5, %g2
    7a3c:	c4 22 20 04 	st  %g2, [ %o0 + 4 ]
    7a40:	da 02 40 00 	ld  [ %o1 ], %o5
    7a44:	85 28 40 04 	sll  %g1, %g4, %g2
    7a48:	8b 33 00 06 	srl  %o4, %g6, %g5
    7a4c:	86 80 ff fc 	addcc  %g3, -4, %g3
    7a50:	84 10 80 05 	or  %g2, %g5, %g2
    7a54:	92 02 7f f0 	add  %o1, -16, %o1
    7a58:	c4 22 00 00 	st  %g2, [ %o0 ]
    7a5c:	90 02 3f f0 	add  %o0, -16, %o0
    7a60:	32 bf ff ea 	bne,a   7a08 <__GI_memmove+0x4f4>
    7a64:	d6 02 60 0c 	ld  [ %o1 + 0xc ], %o3
    7a68:	85 2b 40 04 	sll  %o5, %g4, %g2
    7a6c:	8b 30 40 06 	srl  %g1, %g6, %g5
    7a70:	87 31 20 03 	srl  %g4, 3, %g3
    7a74:	84 10 80 05 	or  %g2, %g5, %g2
    7a78:	92 02 40 03 	add  %o1, %g3, %o1
    7a7c:	80 8a a0 02 	btst  2, %o2
    7a80:	c4 22 20 0c 	st  %g2, [ %o0 + 0xc ]
    7a84:	02 80 00 08 	be  7aa4 <__GI_memmove+0x590>
    7a88:	80 8a a0 01 	btst  1, %o2
    7a8c:	ca 0a 60 0f 	ldub  [ %o1 + 0xf ], %g5
    7a90:	92 02 7f fe 	add  %o1, -2, %o1
    7a94:	ca 2a 20 0b 	stb  %g5, [ %o0 + 0xb ]
    7a98:	90 02 3f fe 	add  %o0, -2, %o0
    7a9c:	ca 0a 60 10 	ldub  [ %o1 + 0x10 ], %g5
    7aa0:	ca 2a 20 0c 	stb  %g5, [ %o0 + 0xc ]
    7aa4:	02 80 00 04 	be  7ab4 <__GI_memmove+0x5a0>
    7aa8:	01 00 00 00 	nop 
    7aac:	ca 0a 60 0f 	ldub  [ %o1 + 0xf ], %g5
    7ab0:	ca 2a 20 0b 	stb  %g5, [ %o0 + 0xb ]
    7ab4:	81 c3 e0 08 	retl 
    7ab8:	d0 03 a0 40 	ld  [ %sp + 0x40 ], %o0
    7abc:	80 8a 60 01 	btst  1, %o1
    7ac0:	02 80 00 08 	be  7ae0 <__GI_memmove+0x5cc>
    7ac4:	80 8a 60 02 	btst  2, %o1
    7ac8:	c4 0a 40 00 	ldub  [ %o1 ], %g2
    7acc:	92 02 60 01 	inc  %o1
    7ad0:	c4 2a 00 00 	stb  %g2, [ %o0 ]
    7ad4:	94 22 a0 01 	dec  %o2
    7ad8:	12 80 00 10 	bne  7b18 <__GI_memcpy+0x20>
    7adc:	90 02 20 01 	inc  %o0
    7ae0:	c4 12 40 00 	lduh  [ %o1 ], %g2
    7ae4:	92 02 60 02 	add  %o1, 2, %o1
    7ae8:	c4 32 00 00 	sth  %g2, [ %o0 ]
    7aec:	94 22 a0 02 	sub  %o2, 2, %o2
    7af0:	10 80 00 0a 	b  7b18 <__GI_memcpy+0x20>
    7af4:	90 02 20 02 	add  %o0, 2, %o0

00007af8 <__GI_memcpy>:
    7af8:	98 22 00 09 	sub  %o0, %o1, %o4
    7afc:	d0 23 a0 40 	st  %o0, [ %sp + 0x40 ]
    7b00:	9a 8b 20 03 	andcc  %o4, 3, %o5
    7b04:	12 80 00 f4 	bne  7ed4 <__GI_memcpy+0x3dc>
    7b08:	80 a2 a0 0f 	cmp  %o2, 0xf
    7b0c:	08 80 04 08 	bleu  8b2c <__GI_memcpy+0x1034>
    7b10:	80 8a 60 03 	btst  3, %o1
    7b14:	12 bf ff ea 	bne  7abc <__GI_memmove+0x5a8>
    7b18:	80 8a 60 04 	btst  4, %o1
    7b1c:	02 80 00 07 	be  7b38 <__GI_memcpy+0x40>
    7b20:	82 10 00 0a 	mov  %o2, %g1
    7b24:	d8 02 40 00 	ld  [ %o1 ], %o4
    7b28:	82 20 60 04 	sub  %g1, 4, %g1
    7b2c:	d8 22 00 00 	st  %o4, [ %o0 ]
    7b30:	92 02 60 04 	add  %o1, 4, %o1
    7b34:	90 02 20 04 	add  %o0, 4, %o0
    7b38:	8c 88 7f 80 	andcc  %g1, -128, %g6
    7b3c:	02 80 00 37 	be  7c18 <__GI_memcpy+0x120>
    7b40:	80 8a 20 04 	btst  4, %o0
    7b44:	02 80 00 84 	be  7d54 <__GI_memcpy+0x25c>
    7b48:	d4 1a 60 00 	ldd  [ %o1 ], %o2
    7b4c:	d8 1a 60 08 	ldd  [ %o1 + 8 ], %o4
    7b50:	c4 1a 60 10 	ldd  [ %o1 + 0x10 ], %g2
    7b54:	c8 1a 60 18 	ldd  [ %o1 + 0x18 ], %g4
    7b58:	d4 22 20 00 	st  %o2, [ %o0 ]
    7b5c:	d6 22 20 04 	st  %o3, [ %o0 + 4 ]
    7b60:	d8 22 20 08 	st  %o4, [ %o0 + 8 ]
    7b64:	da 22 20 0c 	st  %o5, [ %o0 + 0xc ]
    7b68:	c4 22 20 10 	st  %g2, [ %o0 + 0x10 ]
    7b6c:	c6 22 20 14 	st  %g3, [ %o0 + 0x14 ]
    7b70:	c8 22 20 18 	st  %g4, [ %o0 + 0x18 ]
    7b74:	ca 22 20 1c 	st  %g5, [ %o0 + 0x1c ]
    7b78:	d4 1a 60 20 	ldd  [ %o1 + 0x20 ], %o2
    7b7c:	d8 1a 60 28 	ldd  [ %o1 + 0x28 ], %o4
    7b80:	c4 1a 60 30 	ldd  [ %o1 + 0x30 ], %g2
    7b84:	c8 1a 60 38 	ldd  [ %o1 + 0x38 ], %g4
    7b88:	d4 22 20 20 	st  %o2, [ %o0 + 0x20 ]
    7b8c:	d6 22 20 24 	st  %o3, [ %o0 + 0x24 ]
    7b90:	d8 22 20 28 	st  %o4, [ %o0 + 0x28 ]
    7b94:	da 22 20 2c 	st  %o5, [ %o0 + 0x2c ]
    7b98:	c4 22 20 30 	st  %g2, [ %o0 + 0x30 ]
    7b9c:	c6 22 20 34 	st  %g3, [ %o0 + 0x34 ]
    7ba0:	c8 22 20 38 	st  %g4, [ %o0 + 0x38 ]
    7ba4:	ca 22 20 3c 	st  %g5, [ %o0 + 0x3c ]
    7ba8:	d4 1a 60 40 	ldd  [ %o1 + 0x40 ], %o2
    7bac:	d8 1a 60 48 	ldd  [ %o1 + 0x48 ], %o4
    7bb0:	c4 1a 60 50 	ldd  [ %o1 + 0x50 ], %g2
    7bb4:	c8 1a 60 58 	ldd  [ %o1 + 0x58 ], %g4
    7bb8:	d4 22 20 40 	st  %o2, [ %o0 + 0x40 ]
    7bbc:	d6 22 20 44 	st  %o3, [ %o0 + 0x44 ]
    7bc0:	d8 22 20 48 	st  %o4, [ %o0 + 0x48 ]
    7bc4:	da 22 20 4c 	st  %o5, [ %o0 + 0x4c ]
    7bc8:	c4 22 20 50 	st  %g2, [ %o0 + 0x50 ]
    7bcc:	c6 22 20 54 	st  %g3, [ %o0 + 0x54 ]
    7bd0:	c8 22 20 58 	st  %g4, [ %o0 + 0x58 ]
    7bd4:	ca 22 20 5c 	st  %g5, [ %o0 + 0x5c ]
    7bd8:	d4 1a 60 60 	ldd  [ %o1 + 0x60 ], %o2
    7bdc:	d8 1a 60 68 	ldd  [ %o1 + 0x68 ], %o4
    7be0:	c4 1a 60 70 	ldd  [ %o1 + 0x70 ], %g2
    7be4:	c8 1a 60 78 	ldd  [ %o1 + 0x78 ], %g4
    7be8:	d4 22 20 60 	st  %o2, [ %o0 + 0x60 ]
    7bec:	d6 22 20 64 	st  %o3, [ %o0 + 0x64 ]
    7bf0:	d8 22 20 68 	st  %o4, [ %o0 + 0x68 ]
    7bf4:	da 22 20 6c 	st  %o5, [ %o0 + 0x6c ]
    7bf8:	c4 22 20 70 	st  %g2, [ %o0 + 0x70 ]
    7bfc:	c6 22 20 74 	st  %g3, [ %o0 + 0x74 ]
    7c00:	c8 22 20 78 	st  %g4, [ %o0 + 0x78 ]
    7c04:	ca 22 20 7c 	st  %g5, [ %o0 + 0x7c ]
    7c08:	8c a1 a0 80 	subcc  %g6, 0x80, %g6
    7c0c:	92 02 60 80 	add  %o1, 0x80, %o1
    7c10:	12 bf ff ce 	bne  7b48 <__GI_memcpy+0x50>
    7c14:	90 02 20 80 	add  %o0, 0x80, %o0
    7c18:	8c 88 60 70 	andcc  %g1, 0x70, %g6
    7c1c:	02 80 00 34 	be  7cec <__GI_memcpy+0x1f4>
    7c20:	80 88 60 08 	btst  8, %g1
    7c24:	99 31 a0 01 	srl  %g6, 1, %o4
    7c28:	84 10 00 0f 	mov  %o7, %g2
    7c2c:	98 01 80 0c 	add  %g6, %o4, %o4
    7c30:	92 02 40 06 	add  %o1, %g6, %o1
    7c34:	40 00 03 ca 	call  8b5c <__GI_memcpy+0x1064>
    7c38:	90 02 00 06 	add  %o0, %g6, %o0
    7c3c:	81 c3 60 b8 	jmp  %o5 + 0xb8
    7c40:	9e 10 00 02 	mov  %g2, %o7
    7c44:	c4 1a 7f 90 	ldd  [ %o1 + -112 ], %g2
    7c48:	c8 1a 7f 98 	ldd  [ %o1 + -104 ], %g4
    7c4c:	c4 22 3f 90 	st  %g2, [ %o0 + -112 ]
    7c50:	c6 22 3f 94 	st  %g3, [ %o0 + -108 ]
    7c54:	c8 22 3f 98 	st  %g4, [ %o0 + -104 ]
    7c58:	ca 22 3f 9c 	st  %g5, [ %o0 + -100 ]
    7c5c:	c4 1a 7f a0 	ldd  [ %o1 + -96 ], %g2
    7c60:	c8 1a 7f a8 	ldd  [ %o1 + -88 ], %g4
    7c64:	c4 22 3f a0 	st  %g2, [ %o0 + -96 ]
    7c68:	c6 22 3f a4 	st  %g3, [ %o0 + -92 ]
    7c6c:	c8 22 3f a8 	st  %g4, [ %o0 + -88 ]
    7c70:	ca 22 3f ac 	st  %g5, [ %o0 + -84 ]
    7c74:	c4 1a 7f b0 	ldd  [ %o1 + -80 ], %g2
    7c78:	c8 1a 7f b8 	ldd  [ %o1 + -72 ], %g4
    7c7c:	c4 22 3f b0 	st  %g2, [ %o0 + -80 ]
    7c80:	c6 22 3f b4 	st  %g3, [ %o0 + -76 ]
    7c84:	c8 22 3f b8 	st  %g4, [ %o0 + -72 ]
    7c88:	ca 22 3f bc 	st  %g5, [ %o0 + -68 ]
    7c8c:	c4 1a 7f c0 	ldd  [ %o1 + -64 ], %g2
    7c90:	c8 1a 7f c8 	ldd  [ %o1 + -56 ], %g4
    7c94:	c4 22 3f c0 	st  %g2, [ %o0 + -64 ]
    7c98:	c6 22 3f c4 	st  %g3, [ %o0 + -60 ]
    7c9c:	c8 22 3f c8 	st  %g4, [ %o0 + -56 ]
    7ca0:	ca 22 3f cc 	st  %g5, [ %o0 + -52 ]
    7ca4:	c4 1a 7f d0 	ldd  [ %o1 + -48 ], %g2
    7ca8:	c8 1a 7f d8 	ldd  [ %o1 + -40 ], %g4
    7cac:	c4 22 3f d0 	st  %g2, [ %o0 + -48 ]
    7cb0:	c6 22 3f d4 	st  %g3, [ %o0 + -44 ]
    7cb4:	c8 22 3f d8 	st  %g4, [ %o0 + -40 ]
    7cb8:	ca 22 3f dc 	st  %g5, [ %o0 + -36 ]
    7cbc:	c4 1a 7f e0 	ldd  [ %o1 + -32 ], %g2
    7cc0:	c8 1a 7f e8 	ldd  [ %o1 + -24 ], %g4
    7cc4:	c4 22 3f e0 	st  %g2, [ %o0 + -32 ]
    7cc8:	c6 22 3f e4 	st  %g3, [ %o0 + -28 ]
    7ccc:	c8 22 3f e8 	st  %g4, [ %o0 + -24 ]
    7cd0:	ca 22 3f ec 	st  %g5, [ %o0 + -20 ]
    7cd4:	c4 1a 7f f0 	ldd  [ %o1 + -16 ], %g2
    7cd8:	c8 1a 7f f8 	ldd  [ %o1 + -8 ], %g4
    7cdc:	c4 22 3f f0 	st  %g2, [ %o0 + -16 ]
    7ce0:	c6 22 3f f4 	st  %g3, [ %o0 + -12 ]
    7ce4:	c8 22 3f f8 	st  %g4, [ %o0 + -8 ]
    7ce8:	ca 22 3f fc 	st  %g5, [ %o0 + -4 ]
    7cec:	02 80 00 07 	be  7d08 <__GI_memcpy+0x210>
    7cf0:	80 88 60 04 	btst  4, %g1
    7cf4:	c4 1a 40 00 	ldd  [ %o1 ], %g2
    7cf8:	90 02 20 08 	add  %o0, 8, %o0
    7cfc:	c4 22 3f f8 	st  %g2, [ %o0 + -8 ]
    7d00:	92 02 60 08 	add  %o1, 8, %o1
    7d04:	c6 22 3f fc 	st  %g3, [ %o0 + -4 ]
    7d08:	02 80 00 06 	be  7d20 <__GI_memcpy+0x228>
    7d0c:	80 88 60 02 	btst  2, %g1
    7d10:	c4 02 40 00 	ld  [ %o1 ], %g2
    7d14:	92 02 60 04 	add  %o1, 4, %o1
    7d18:	c4 22 00 00 	st  %g2, [ %o0 ]
    7d1c:	90 02 20 04 	add  %o0, 4, %o0
    7d20:	02 80 00 06 	be  7d38 <__GI_memcpy+0x240>
    7d24:	80 88 60 01 	btst  1, %g1
    7d28:	c4 12 40 00 	lduh  [ %o1 ], %g2
    7d2c:	92 02 60 02 	add  %o1, 2, %o1
    7d30:	c4 32 00 00 	sth  %g2, [ %o0 ]
    7d34:	90 02 20 02 	add  %o0, 2, %o0
    7d38:	02 80 00 04 	be  7d48 <__GI_memcpy+0x250>
    7d3c:	01 00 00 00 	nop 
    7d40:	c4 0a 40 00 	ldub  [ %o1 ], %g2
    7d44:	c4 2a 00 00 	stb  %g2, [ %o0 ]
    7d48:	81 c3 e0 08 	retl 
    7d4c:	d0 03 a0 40 	ld  [ %sp + 0x40 ], %o0
    7d50:	d4 1a 60 00 	ldd  [ %o1 ], %o2
    7d54:	d8 1a 60 08 	ldd  [ %o1 + 8 ], %o4
    7d58:	c4 1a 60 10 	ldd  [ %o1 + 0x10 ], %g2
    7d5c:	c8 1a 60 18 	ldd  [ %o1 + 0x18 ], %g4
    7d60:	d4 3a 20 00 	std  %o2, [ %o0 ]
    7d64:	d8 3a 20 08 	std  %o4, [ %o0 + 8 ]
    7d68:	c4 3a 20 10 	std  %g2, [ %o0 + 0x10 ]
    7d6c:	c8 3a 20 18 	std  %g4, [ %o0 + 0x18 ]
    7d70:	d4 1a 60 20 	ldd  [ %o1 + 0x20 ], %o2
    7d74:	d8 1a 60 28 	ldd  [ %o1 + 0x28 ], %o4
    7d78:	c4 1a 60 30 	ldd  [ %o1 + 0x30 ], %g2
    7d7c:	c8 1a 60 38 	ldd  [ %o1 + 0x38 ], %g4
    7d80:	d4 3a 20 20 	std  %o2, [ %o0 + 0x20 ]
    7d84:	d8 3a 20 28 	std  %o4, [ %o0 + 0x28 ]
    7d88:	c4 3a 20 30 	std  %g2, [ %o0 + 0x30 ]
    7d8c:	c8 3a 20 38 	std  %g4, [ %o0 + 0x38 ]
    7d90:	d4 1a 60 40 	ldd  [ %o1 + 0x40 ], %o2
    7d94:	d8 1a 60 48 	ldd  [ %o1 + 0x48 ], %o4
    7d98:	c4 1a 60 50 	ldd  [ %o1 + 0x50 ], %g2
    7d9c:	c8 1a 60 58 	ldd  [ %o1 + 0x58 ], %g4
    7da0:	d4 3a 20 40 	std  %o2, [ %o0 + 0x40 ]
    7da4:	d8 3a 20 48 	std  %o4, [ %o0 + 0x48 ]
    7da8:	c4 3a 20 50 	std  %g2, [ %o0 + 0x50 ]
    7dac:	c8 3a 20 58 	std  %g4, [ %o0 + 0x58 ]
    7db0:	d4 1a 60 60 	ldd  [ %o1 + 0x60 ], %o2
    7db4:	d8 1a 60 68 	ldd  [ %o1 + 0x68 ], %o4
    7db8:	c4 1a 60 70 	ldd  [ %o1 + 0x70 ], %g2
    7dbc:	c8 1a 60 78 	ldd  [ %o1 + 0x78 ], %g4
    7dc0:	d4 3a 20 60 	std  %o2, [ %o0 + 0x60 ]
    7dc4:	d8 3a 20 68 	std  %o4, [ %o0 + 0x68 ]
    7dc8:	c4 3a 20 70 	std  %g2, [ %o0 + 0x70 ]
    7dcc:	c8 3a 20 78 	std  %g4, [ %o0 + 0x78 ]
    7dd0:	8c a1 a0 80 	subcc  %g6, 0x80, %g6
    7dd4:	92 02 60 80 	add  %o1, 0x80, %o1
    7dd8:	12 bf ff de 	bne  7d50 <__GI_memcpy+0x258>
    7ddc:	90 02 20 80 	add  %o0, 0x80, %o0
    7de0:	8c 88 60 70 	andcc  %g1, 0x70, %g6
    7de4:	02 80 00 24 	be  7e74 <__GI_memcpy+0x37c>
    7de8:	80 88 60 08 	btst  8, %g1
    7dec:	84 10 00 0f 	mov  %o7, %g2
    7df0:	40 00 03 5d 	call  8b64 <__GI_memcpy+0x106c>
    7df4:	92 02 40 06 	add  %o1, %g6, %o1
    7df8:	9e 10 00 02 	mov  %g2, %o7
    7dfc:	81 c3 60 84 	jmp  %o5 + 0x84
    7e00:	90 02 00 06 	add  %o0, %g6, %o0
    7e04:	c4 1a 7f 90 	ldd  [ %o1 + -112 ], %g2
    7e08:	c8 1a 7f 98 	ldd  [ %o1 + -104 ], %g4
    7e0c:	c4 3a 3f 90 	std  %g2, [ %o0 + -112 ]
    7e10:	c8 3a 3f 98 	std  %g4, [ %o0 + -104 ]
    7e14:	c4 1a 7f a0 	ldd  [ %o1 + -96 ], %g2
    7e18:	c8 1a 7f a8 	ldd  [ %o1 + -88 ], %g4
    7e1c:	c4 3a 3f a0 	std  %g2, [ %o0 + -96 ]
    7e20:	c8 3a 3f a8 	std  %g4, [ %o0 + -88 ]
    7e24:	c4 1a 7f b0 	ldd  [ %o1 + -80 ], %g2
    7e28:	c8 1a 7f b8 	ldd  [ %o1 + -72 ], %g4
    7e2c:	c4 3a 3f b0 	std  %g2, [ %o0 + -80 ]
    7e30:	c8 3a 3f b8 	std  %g4, [ %o0 + -72 ]
    7e34:	c4 1a 7f c0 	ldd  [ %o1 + -64 ], %g2
    7e38:	c8 1a 7f c8 	ldd  [ %o1 + -56 ], %g4
    7e3c:	c4 3a 3f c0 	std  %g2, [ %o0 + -64 ]
    7e40:	c8 3a 3f c8 	std  %g4, [ %o0 + -56 ]
    7e44:	c4 1a 7f d0 	ldd  [ %o1 + -48 ], %g2
    7e48:	c8 1a 7f d8 	ldd  [ %o1 + -40 ], %g4
    7e4c:	c4 3a 3f d0 	std  %g2, [ %o0 + -48 ]
    7e50:	c8 3a 3f d8 	std  %g4, [ %o0 + -40 ]
    7e54:	c4 1a 7f e0 	ldd  [ %o1 + -32 ], %g2
    7e58:	c8 1a 7f e8 	ldd  [ %o1 + -24 ], %g4
    7e5c:	c4 3a 3f e0 	std  %g2, [ %o0 + -32 ]
    7e60:	c8 3a 3f e8 	std  %g4, [ %o0 + -24 ]
    7e64:	c4 1a 7f f0 	ldd  [ %o1 + -16 ], %g2
    7e68:	c8 1a 7f f8 	ldd  [ %o1 + -8 ], %g4
    7e6c:	c4 3a 3f f0 	std  %g2, [ %o0 + -16 ]
    7e70:	c8 3a 3f f8 	std  %g4, [ %o0 + -8 ]
    7e74:	02 80 00 06 	be  7e8c <__GI_memcpy+0x394>
    7e78:	80 88 60 04 	btst  4, %g1
    7e7c:	c4 1a 40 00 	ldd  [ %o1 ], %g2
    7e80:	90 02 20 08 	add  %o0, 8, %o0
    7e84:	c4 3a 3f f8 	std  %g2, [ %o0 + -8 ]
    7e88:	92 02 60 08 	add  %o1, 8, %o1
    7e8c:	02 80 00 06 	be  7ea4 <__GI_memcpy+0x3ac>
    7e90:	80 88 60 02 	btst  2, %g1
    7e94:	c4 02 40 00 	ld  [ %o1 ], %g2
    7e98:	92 02 60 04 	add  %o1, 4, %o1
    7e9c:	c4 22 00 00 	st  %g2, [ %o0 ]
    7ea0:	90 02 20 04 	add  %o0, 4, %o0
    7ea4:	02 80 00 06 	be  7ebc <__GI_memcpy+0x3c4>
    7ea8:	80 88 60 01 	btst  1, %g1
    7eac:	c4 12 40 00 	lduh  [ %o1 ], %g2
    7eb0:	92 02 60 02 	add  %o1, 2, %o1
    7eb4:	c4 32 00 00 	sth  %g2, [ %o0 ]
    7eb8:	90 02 20 02 	add  %o0, 2, %o0
    7ebc:	02 80 00 04 	be  7ecc <__GI_memcpy+0x3d4>
    7ec0:	01 00 00 00 	nop 
    7ec4:	c4 0a 40 00 	ldub  [ %o1 ], %g2
    7ec8:	c4 2a 00 00 	stb  %g2, [ %o0 ]
    7ecc:	81 c3 e0 08 	retl 
    7ed0:	d0 03 a0 40 	ld  [ %sp + 0x40 ], %o0
    7ed4:	80 a2 a0 06 	cmp  %o2, 6
    7ed8:	08 80 02 ea 	bleu  8a80 <__GI_memcpy+0xf88>
    7edc:	80 a2 a1 00 	cmp  %o2, 0x100
    7ee0:	1a 80 00 65 	bcc  8074 <__GI_memcpy+0x57c>
    7ee4:	80 8a 20 03 	btst  3, %o0
    7ee8:	02 80 00 11 	be  7f2c <__GI_memcpy+0x434>
    7eec:	80 8a 20 01 	btst  1, %o0
    7ef0:	02 80 00 08 	be  7f10 <__GI_memcpy+0x418>
    7ef4:	80 8a 20 02 	btst  2, %o0
    7ef8:	ca 0a 40 00 	ldub  [ %o1 ], %g5
    7efc:	92 02 60 01 	inc  %o1
    7f00:	ca 2a 00 00 	stb  %g5, [ %o0 ]
    7f04:	94 22 a0 01 	dec  %o2
    7f08:	12 80 00 09 	bne  7f2c <__GI_memcpy+0x434>
    7f0c:	90 02 20 01 	inc  %o0
    7f10:	c6 0a 40 00 	ldub  [ %o1 ], %g3
    7f14:	92 02 60 02 	add  %o1, 2, %o1
    7f18:	c6 2a 00 00 	stb  %g3, [ %o0 ]
    7f1c:	94 22 a0 02 	sub  %o2, 2, %o2
    7f20:	c6 0a 7f ff 	ldub  [ %o1 + -1 ], %g3
    7f24:	90 02 20 02 	add  %o0, 2, %o0
    7f28:	c6 2a 3f ff 	stb  %g3, [ %o0 + -1 ]
    7f2c:	84 0a 60 03 	and  %o1, 3, %g2
    7f30:	86 0a a0 0c 	and  %o2, 0xc, %g3
    7f34:	92 0a 7f fc 	and  %o1, -4, %o1
    7f38:	80 a0 e0 04 	cmp  %g3, 4
    7f3c:	89 28 a0 03 	sll  %g2, 3, %g4
    7f40:	84 10 20 20 	mov  0x20, %g2
    7f44:	02 80 00 17 	be  7fa0 <__GI_memcpy+0x4a8>
    7f48:	8c 20 80 04 	sub  %g2, %g4, %g6
    7f4c:	0a 80 00 0f 	bcs  7f88 <__GI_memcpy+0x490>
    7f50:	80 a0 e0 08 	cmp  %g3, 8
    7f54:	02 80 00 07 	be  7f70 <__GI_memcpy+0x478>
    7f58:	87 32 a0 02 	srl  %o2, 2, %g3
    7f5c:	d6 02 40 00 	ld  [ %o1 ], %o3
    7f60:	90 02 3f f8 	add  %o0, -8, %o0
    7f64:	d8 02 60 04 	ld  [ %o1 + 4 ], %o4
    7f68:	10 80 00 1f 	b  7fe4 <__GI_memcpy+0x4ec>
    7f6c:	86 00 e0 01 	inc  %g3
    7f70:	d8 02 40 00 	ld  [ %o1 ], %o4
    7f74:	90 02 3f f4 	add  %o0, -12, %o0
    7f78:	da 02 60 04 	ld  [ %o1 + 4 ], %o5
    7f7c:	86 00 e0 02 	add  %g3, 2, %g3
    7f80:	10 80 00 1e 	b  7ff8 <__GI_memcpy+0x500>
    7f84:	92 02 7f fc 	add  %o1, -4, %o1
    7f88:	c2 02 40 00 	ld  [ %o1 ], %g1
    7f8c:	90 02 3f fc 	add  %o0, -4, %o0
    7f90:	d6 02 60 04 	ld  [ %o1 + 4 ], %o3
    7f94:	87 32 a0 02 	srl  %o2, 2, %g3
    7f98:	10 80 00 0e 	b  7fd0 <__GI_memcpy+0x4d8>
    7f9c:	92 02 60 04 	add  %o1, 4, %o1
    7fa0:	da 02 40 00 	ld  [ %o1 ], %o5
    7fa4:	80 a2 a0 07 	cmp  %o2, 7
    7fa8:	c2 02 60 04 	ld  [ %o1 + 4 ], %g1
    7fac:	87 32 a0 02 	srl  %o2, 2, %g3
    7fb0:	08 80 00 1c 	bleu  8020 <__GI_memcpy+0x528>
